ARM GAS  C:\Users\pbant\AppData\Local\Temp\ccAmOMRv.s 			page 1


   1              		.cpu cortex-m7
   2              		.eabi_attribute 28, 1
   3              		.eabi_attribute 20, 1
   4              		.eabi_attribute 21, 1
   5              		.eabi_attribute 23, 3
   6              		.eabi_attribute 24, 1
   7              		.eabi_attribute 25, 1
   8              		.eabi_attribute 26, 1
   9              		.eabi_attribute 30, 2
  10              		.eabi_attribute 34, 1
  11              		.eabi_attribute 18, 4
  12              		.file	"TestTFT.cpp"
  13              		.text
  14              	.Ltext0:
  15              		.cfi_sections	.debug_frame
  16              		.section	.text._ZN5daisy9DaisySeedD2Ev,"axG",%progbits,_ZN5daisy9DaisySeedD5Ev,comdat
  17              		.align	1
  18              		.p2align 2,,3
  19              		.weak	_ZN5daisy9DaisySeedD2Ev
  20              		.arch armv7e-m
  21              		.syntax unified
  22              		.thumb
  23              		.thumb_func
  24              		.fpu fpv5-d16
  26              	_ZN5daisy9DaisySeedD2Ev:
  27              	.LVL0:
  28              	.LFB2555:
  29              		.file 1 "../../../../Desktop/DaisyExamples/libDaisy//src/daisy_seed.h"
   1:../../../../Desktop/DaisyExamples/libDaisy//src/daisy_seed.h **** #pragma once
   2:../../../../Desktop/DaisyExamples/libDaisy//src/daisy_seed.h **** #ifndef DSY_SEED_H
   3:../../../../Desktop/DaisyExamples/libDaisy//src/daisy_seed.h **** #define DSY_SEED_H
   4:../../../../Desktop/DaisyExamples/libDaisy//src/daisy_seed.h **** 
   5:../../../../Desktop/DaisyExamples/libDaisy//src/daisy_seed.h **** #include "daisy.h"
   6:../../../../Desktop/DaisyExamples/libDaisy//src/daisy_seed.h **** 
   7:../../../../Desktop/DaisyExamples/libDaisy//src/daisy_seed.h **** //Uncomment this out if you're still using the rev2 hardware
   8:../../../../Desktop/DaisyExamples/libDaisy//src/daisy_seed.h **** //#define SEED_REV2
   9:../../../../Desktop/DaisyExamples/libDaisy//src/daisy_seed.h **** 
  10:../../../../Desktop/DaisyExamples/libDaisy//src/daisy_seed.h **** namespace daisy
  11:../../../../Desktop/DaisyExamples/libDaisy//src/daisy_seed.h **** {
  12:../../../../Desktop/DaisyExamples/libDaisy//src/daisy_seed.h **** /**
  13:../../../../Desktop/DaisyExamples/libDaisy//src/daisy_seed.h ****    @brief This is the higher-level interface for the Daisy board. \n 
  14:../../../../Desktop/DaisyExamples/libDaisy//src/daisy_seed.h ****     All basic peripheral configuration/initialization is setup here. \n
  15:../../../../Desktop/DaisyExamples/libDaisy//src/daisy_seed.h **** 
  16:../../../../Desktop/DaisyExamples/libDaisy//src/daisy_seed.h ****    @ingroup boards
  17:../../../../Desktop/DaisyExamples/libDaisy//src/daisy_seed.h **** */
  18:../../../../Desktop/DaisyExamples/libDaisy//src/daisy_seed.h **** class DaisySeed
  19:../../../../Desktop/DaisyExamples/libDaisy//src/daisy_seed.h **** {
  20:../../../../Desktop/DaisyExamples/libDaisy//src/daisy_seed.h ****   public:
  21:../../../../Desktop/DaisyExamples/libDaisy//src/daisy_seed.h ****     DaisySeed() {}
  22:../../../../Desktop/DaisyExamples/libDaisy//src/daisy_seed.h ****     ~DaisySeed() {}
  30              		.loc 1 22 5 view -0
  31              		.cfi_startproc
  32              		@ args = 0, pretend = 0, frame = 0
  33              		@ frame_needed = 0, uses_anonymous_args = 0
  34              		@ link register save eliminated.
  35              	.LBB224:
  36              	.LBI224:
ARM GAS  C:\Users\pbant\AppData\Local\Temp\ccAmOMRv.s 			page 2


  37              		.file 2 "../../../../Desktop/DaisyExamples/libDaisy//src/sys/system.h"
   1:../../../../Desktop/DaisyExamples/libDaisy//src/sys/system.h **** #ifndef DSY_SYSTEM_H
   2:../../../../Desktop/DaisyExamples/libDaisy//src/sys/system.h **** #define DSY_SYSTEM_H
   3:../../../../Desktop/DaisyExamples/libDaisy//src/sys/system.h **** 
   4:../../../../Desktop/DaisyExamples/libDaisy//src/sys/system.h **** #ifndef UNIT_TEST // for unit tests, a dummy implementation is provided below
   5:../../../../Desktop/DaisyExamples/libDaisy//src/sys/system.h **** 
   6:../../../../Desktop/DaisyExamples/libDaisy//src/sys/system.h **** #include <cstdint>
   7:../../../../Desktop/DaisyExamples/libDaisy//src/sys/system.h **** #include "per/tim.h"
   8:../../../../Desktop/DaisyExamples/libDaisy//src/sys/system.h **** 
   9:../../../../Desktop/DaisyExamples/libDaisy//src/sys/system.h **** namespace daisy
  10:../../../../Desktop/DaisyExamples/libDaisy//src/sys/system.h **** {
  11:../../../../Desktop/DaisyExamples/libDaisy//src/sys/system.h **** /** A handle for interacting with the Core System.
  12:../../../../Desktop/DaisyExamples/libDaisy//src/sys/system.h ****  ** This includes the Clock tree, MPU, global DMA initialization,
  13:../../../../Desktop/DaisyExamples/libDaisy//src/sys/system.h ****  ** cache handling, and any other necessary global initiailzation
  14:../../../../Desktop/DaisyExamples/libDaisy//src/sys/system.h ****  **
  15:../../../../Desktop/DaisyExamples/libDaisy//src/sys/system.h ****  ** @author shensley
  16:../../../../Desktop/DaisyExamples/libDaisy//src/sys/system.h ****  ** @ingroup system
  17:../../../../Desktop/DaisyExamples/libDaisy//src/sys/system.h ****  */
  18:../../../../Desktop/DaisyExamples/libDaisy//src/sys/system.h **** class System
  19:../../../../Desktop/DaisyExamples/libDaisy//src/sys/system.h **** {
  20:../../../../Desktop/DaisyExamples/libDaisy//src/sys/system.h ****   public:
  21:../../../../Desktop/DaisyExamples/libDaisy//src/sys/system.h ****     /** Contains settings for initializing the System */
  22:../../../../Desktop/DaisyExamples/libDaisy//src/sys/system.h ****     struct Config
  23:../../../../Desktop/DaisyExamples/libDaisy//src/sys/system.h ****     {
  24:../../../../Desktop/DaisyExamples/libDaisy//src/sys/system.h ****         /** Specifies the system clock frequency that feeds APB/AHB clocks, etc. */
  25:../../../../Desktop/DaisyExamples/libDaisy//src/sys/system.h ****         enum class SysClkFreq
  26:../../../../Desktop/DaisyExamples/libDaisy//src/sys/system.h ****         {
  27:../../../../Desktop/DaisyExamples/libDaisy//src/sys/system.h ****             FREQ_400MHZ,
  28:../../../../Desktop/DaisyExamples/libDaisy//src/sys/system.h ****             FREQ_480MHZ,
  29:../../../../Desktop/DaisyExamples/libDaisy//src/sys/system.h ****         };
  30:../../../../Desktop/DaisyExamples/libDaisy//src/sys/system.h **** 
  31:../../../../Desktop/DaisyExamples/libDaisy//src/sys/system.h ****         /** Method to call on the struct to set to defaults
  32:../../../../Desktop/DaisyExamples/libDaisy//src/sys/system.h ****          ** CPU Freq set to 400MHz
  33:../../../../Desktop/DaisyExamples/libDaisy//src/sys/system.h ****          ** Cache Enabled
  34:../../../../Desktop/DaisyExamples/libDaisy//src/sys/system.h ****          ** */
  35:../../../../Desktop/DaisyExamples/libDaisy//src/sys/system.h ****         void Defaults()
  36:../../../../Desktop/DaisyExamples/libDaisy//src/sys/system.h ****         {
  37:../../../../Desktop/DaisyExamples/libDaisy//src/sys/system.h ****             cpu_freq    = SysClkFreq::FREQ_400MHZ;
  38:../../../../Desktop/DaisyExamples/libDaisy//src/sys/system.h ****             use_dcache  = true;
  39:../../../../Desktop/DaisyExamples/libDaisy//src/sys/system.h ****             use_icache  = true;
  40:../../../../Desktop/DaisyExamples/libDaisy//src/sys/system.h ****             skip_clocks = false;
  41:../../../../Desktop/DaisyExamples/libDaisy//src/sys/system.h ****         }
  42:../../../../Desktop/DaisyExamples/libDaisy//src/sys/system.h **** 
  43:../../../../Desktop/DaisyExamples/libDaisy//src/sys/system.h ****         /** Method to call on the struct to set to boost mode:
  44:../../../../Desktop/DaisyExamples/libDaisy//src/sys/system.h ****          ** CPU Freq set to 480MHz
  45:../../../../Desktop/DaisyExamples/libDaisy//src/sys/system.h ****          ** Cache Enabled
  46:../../../../Desktop/DaisyExamples/libDaisy//src/sys/system.h ****          ** */
  47:../../../../Desktop/DaisyExamples/libDaisy//src/sys/system.h ****         void Boost()
  48:../../../../Desktop/DaisyExamples/libDaisy//src/sys/system.h ****         {
  49:../../../../Desktop/DaisyExamples/libDaisy//src/sys/system.h ****             cpu_freq    = SysClkFreq::FREQ_480MHZ;
  50:../../../../Desktop/DaisyExamples/libDaisy//src/sys/system.h ****             use_dcache  = true;
  51:../../../../Desktop/DaisyExamples/libDaisy//src/sys/system.h ****             use_icache  = true;
  52:../../../../Desktop/DaisyExamples/libDaisy//src/sys/system.h ****             skip_clocks = false;
  53:../../../../Desktop/DaisyExamples/libDaisy//src/sys/system.h ****         }
  54:../../../../Desktop/DaisyExamples/libDaisy//src/sys/system.h **** 
  55:../../../../Desktop/DaisyExamples/libDaisy//src/sys/system.h ****         SysClkFreq cpu_freq;
  56:../../../../Desktop/DaisyExamples/libDaisy//src/sys/system.h ****         bool       use_dcache;
ARM GAS  C:\Users\pbant\AppData\Local\Temp\ccAmOMRv.s 			page 3


  57:../../../../Desktop/DaisyExamples/libDaisy//src/sys/system.h ****         bool       use_icache;
  58:../../../../Desktop/DaisyExamples/libDaisy//src/sys/system.h ****         bool       skip_clocks;
  59:../../../../Desktop/DaisyExamples/libDaisy//src/sys/system.h ****     };
  60:../../../../Desktop/DaisyExamples/libDaisy//src/sys/system.h **** 
  61:../../../../Desktop/DaisyExamples/libDaisy//src/sys/system.h ****     /** Describes the different regions of memory available to the Daisy */
  62:../../../../Desktop/DaisyExamples/libDaisy//src/sys/system.h ****     enum MemoryRegion
  63:../../../../Desktop/DaisyExamples/libDaisy//src/sys/system.h ****     {
  64:../../../../Desktop/DaisyExamples/libDaisy//src/sys/system.h ****         INTERNAL_FLASH = 0,
  65:../../../../Desktop/DaisyExamples/libDaisy//src/sys/system.h ****         ITCMRAM,
  66:../../../../Desktop/DaisyExamples/libDaisy//src/sys/system.h ****         DTCMRAM,
  67:../../../../Desktop/DaisyExamples/libDaisy//src/sys/system.h ****         SRAM_D1,
  68:../../../../Desktop/DaisyExamples/libDaisy//src/sys/system.h ****         SRAM_D2,
  69:../../../../Desktop/DaisyExamples/libDaisy//src/sys/system.h ****         SRAM_D3,
  70:../../../../Desktop/DaisyExamples/libDaisy//src/sys/system.h ****         SDRAM,
  71:../../../../Desktop/DaisyExamples/libDaisy//src/sys/system.h ****         QSPI,
  72:../../../../Desktop/DaisyExamples/libDaisy//src/sys/system.h ****         INVALID_ADDRESS,
  73:../../../../Desktop/DaisyExamples/libDaisy//src/sys/system.h ****     };
  74:../../../../Desktop/DaisyExamples/libDaisy//src/sys/system.h **** 
  75:../../../../Desktop/DaisyExamples/libDaisy//src/sys/system.h ****     /** Bootloader struct for controlling bootloading parameters */
  76:../../../../Desktop/DaisyExamples/libDaisy//src/sys/system.h ****     struct BootInfo
  77:../../../../Desktop/DaisyExamples/libDaisy//src/sys/system.h ****     {
  78:../../../../Desktop/DaisyExamples/libDaisy//src/sys/system.h ****         enum class Type : uint32_t
  79:../../../../Desktop/DaisyExamples/libDaisy//src/sys/system.h ****         {
  80:../../../../Desktop/DaisyExamples/libDaisy//src/sys/system.h ****             INVALID      = 0x00000000,
  81:../../../../Desktop/DaisyExamples/libDaisy//src/sys/system.h ****             JUMP         = 0xDEADBEEF,
  82:../../../../Desktop/DaisyExamples/libDaisy//src/sys/system.h ****             SKIP_TIMEOUT = 0x5AFEB007,
  83:../../../../Desktop/DaisyExamples/libDaisy//src/sys/system.h ****             INF_TIMEOUT  = 0xB0074EFA,
  84:../../../../Desktop/DaisyExamples/libDaisy//src/sys/system.h ****         } status;
  85:../../../../Desktop/DaisyExamples/libDaisy//src/sys/system.h ****         uint32_t data;
  86:../../../../Desktop/DaisyExamples/libDaisy//src/sys/system.h ****         enum class Version : uint32_t
  87:../../../../Desktop/DaisyExamples/libDaisy//src/sys/system.h ****         {
  88:../../../../Desktop/DaisyExamples/libDaisy//src/sys/system.h ****             LT_v6_0 = 0, // Less than v6.0
  89:../../../../Desktop/DaisyExamples/libDaisy//src/sys/system.h ****             NONE,        // No bootloader present
  90:../../../../Desktop/DaisyExamples/libDaisy//src/sys/system.h ****             v6_0,        // v6.0
  91:../../../../Desktop/DaisyExamples/libDaisy//src/sys/system.h ****             v6_1,        // v6.1 or greater
  92:../../../../Desktop/DaisyExamples/libDaisy//src/sys/system.h ****             LAST
  93:../../../../Desktop/DaisyExamples/libDaisy//src/sys/system.h ****         } version;
  94:../../../../Desktop/DaisyExamples/libDaisy//src/sys/system.h ****     };
  95:../../../../Desktop/DaisyExamples/libDaisy//src/sys/system.h **** 
  96:../../../../Desktop/DaisyExamples/libDaisy//src/sys/system.h ****     System() {}
  97:../../../../Desktop/DaisyExamples/libDaisy//src/sys/system.h ****     ~System() {}
  38              		.loc 2 97 5 view .LVU1
  39              		.loc 2 97 5 is_stmt 0 view .LVU2
  40              	.LBE224:
  41              	.LBB225:
  42              	.LBI225:
  43              		.file 3 "../../../../Desktop/DaisyExamples/libDaisy//src/hid/usb.h"
   1:../../../../Desktop/DaisyExamples/libDaisy//src/hid/usb.h **** #pragma once
   2:../../../../Desktop/DaisyExamples/libDaisy//src/hid/usb.h **** #ifndef DSY_HID_USB_H
   3:../../../../Desktop/DaisyExamples/libDaisy//src/hid/usb.h **** #define DSY_HID_USB_H
   4:../../../../Desktop/DaisyExamples/libDaisy//src/hid/usb.h **** #include <stdint.h>
   5:../../../../Desktop/DaisyExamples/libDaisy//src/hid/usb.h **** #include <stdlib.h>
   6:../../../../Desktop/DaisyExamples/libDaisy//src/hid/usb.h **** 
   7:../../../../Desktop/DaisyExamples/libDaisy//src/hid/usb.h **** namespace daisy
   8:../../../../Desktop/DaisyExamples/libDaisy//src/hid/usb.h **** /** @addtogroup human_interface
   9:../../../../Desktop/DaisyExamples/libDaisy//src/hid/usb.h ****     @{
  10:../../../../Desktop/DaisyExamples/libDaisy//src/hid/usb.h **** */
ARM GAS  C:\Users\pbant\AppData\Local\Temp\ccAmOMRv.s 			page 4


  11:../../../../Desktop/DaisyExamples/libDaisy//src/hid/usb.h **** 
  12:../../../../Desktop/DaisyExamples/libDaisy//src/hid/usb.h **** {
  13:../../../../Desktop/DaisyExamples/libDaisy//src/hid/usb.h **** /** 
  14:../../../../Desktop/DaisyExamples/libDaisy//src/hid/usb.h ****     @brief Interface for initializing and using the USB Peripherals on the daisy
  15:../../../../Desktop/DaisyExamples/libDaisy//src/hid/usb.h ****     @author Stephen Hensley
  16:../../../../Desktop/DaisyExamples/libDaisy//src/hid/usb.h ****     @date December 2019
  17:../../../../Desktop/DaisyExamples/libDaisy//src/hid/usb.h **** */
  18:../../../../Desktop/DaisyExamples/libDaisy//src/hid/usb.h **** class UsbHandle
  19:../../../../Desktop/DaisyExamples/libDaisy//src/hid/usb.h **** {
  20:../../../../Desktop/DaisyExamples/libDaisy//src/hid/usb.h ****   public:
  21:../../../../Desktop/DaisyExamples/libDaisy//src/hid/usb.h ****     /** Return values for USBHandle Functions */
  22:../../../../Desktop/DaisyExamples/libDaisy//src/hid/usb.h ****     enum class Result
  23:../../../../Desktop/DaisyExamples/libDaisy//src/hid/usb.h ****     {
  24:../../../../Desktop/DaisyExamples/libDaisy//src/hid/usb.h ****         OK,
  25:../../../../Desktop/DaisyExamples/libDaisy//src/hid/usb.h ****         ERR,
  26:../../../../Desktop/DaisyExamples/libDaisy//src/hid/usb.h ****     };
  27:../../../../Desktop/DaisyExamples/libDaisy//src/hid/usb.h **** 
  28:../../../../Desktop/DaisyExamples/libDaisy//src/hid/usb.h ****     /** Specified which of the two USB Peripherals to initialize. */
  29:../../../../Desktop/DaisyExamples/libDaisy//src/hid/usb.h ****     enum UsbPeriph
  30:../../../../Desktop/DaisyExamples/libDaisy//src/hid/usb.h ****     {
  31:../../../../Desktop/DaisyExamples/libDaisy//src/hid/usb.h ****         FS_INTERNAL, /**< Internal pin */
  32:../../../../Desktop/DaisyExamples/libDaisy//src/hid/usb.h ****         FS_EXTERNAL, /**< FS External D+ pin is Pin 38 (GPIO32). FS External D- pin is Pin 37 (GPIO
  33:../../../../Desktop/DaisyExamples/libDaisy//src/hid/usb.h ****         FS_BOTH,     /**< Both */
  34:../../../../Desktop/DaisyExamples/libDaisy//src/hid/usb.h ****     };
  35:../../../../Desktop/DaisyExamples/libDaisy//src/hid/usb.h **** 
  36:../../../../Desktop/DaisyExamples/libDaisy//src/hid/usb.h **** 
  37:../../../../Desktop/DaisyExamples/libDaisy//src/hid/usb.h ****     /** Function called upon reception of a buffer */
  38:../../../../Desktop/DaisyExamples/libDaisy//src/hid/usb.h ****     typedef void (*ReceiveCallback)(uint8_t* buff, uint32_t* len);
  39:../../../../Desktop/DaisyExamples/libDaisy//src/hid/usb.h **** 
  40:../../../../Desktop/DaisyExamples/libDaisy//src/hid/usb.h ****     UsbHandle() {}
  41:../../../../Desktop/DaisyExamples/libDaisy//src/hid/usb.h **** 
  42:../../../../Desktop/DaisyExamples/libDaisy//src/hid/usb.h ****     ~UsbHandle() {}
  44              		.loc 3 42 5 is_stmt 1 view .LVU3
  45              		.loc 3 42 5 is_stmt 0 view .LVU4
  46              	.LBE225:
  47              	.LBB226:
  48              	.LBI226:
  49              		.file 4 "../../../../Desktop/DaisyExamples/libDaisy//src/per/adc.h"
   1:../../../../Desktop/DaisyExamples/libDaisy//src/per/adc.h **** #pragma once
   2:../../../../Desktop/DaisyExamples/libDaisy//src/per/adc.h **** #ifndef DSY_ADC_H
   3:../../../../Desktop/DaisyExamples/libDaisy//src/per/adc.h **** #define DSY_ADC_H /**< Macro */
   4:../../../../Desktop/DaisyExamples/libDaisy//src/per/adc.h **** #include <stdint.h>
   5:../../../../Desktop/DaisyExamples/libDaisy//src/per/adc.h **** #include <stdlib.h>
   6:../../../../Desktop/DaisyExamples/libDaisy//src/per/adc.h **** #include "daisy_core.h"
   7:../../../../Desktop/DaisyExamples/libDaisy//src/per/adc.h **** #include "per/gpio.h"
   8:../../../../Desktop/DaisyExamples/libDaisy//src/per/adc.h **** 
   9:../../../../Desktop/DaisyExamples/libDaisy//src/per/adc.h **** #define DSY_ADC_MAX_CHANNELS 16 /**< Maximum number of ADC channels */
  10:../../../../Desktop/DaisyExamples/libDaisy//src/per/adc.h **** 
  11:../../../../Desktop/DaisyExamples/libDaisy//src/per/adc.h **** namespace daisy
  12:../../../../Desktop/DaisyExamples/libDaisy//src/per/adc.h **** {
  13:../../../../Desktop/DaisyExamples/libDaisy//src/per/adc.h **** /** @addtogroup per_analog
  14:../../../../Desktop/DaisyExamples/libDaisy//src/per/adc.h ****     @{
  15:../../../../Desktop/DaisyExamples/libDaisy//src/per/adc.h **** */
  16:../../../../Desktop/DaisyExamples/libDaisy//src/per/adc.h **** 
  17:../../../../Desktop/DaisyExamples/libDaisy//src/per/adc.h **** /* While there may not be many configuration options here,
  18:../../../../Desktop/DaisyExamples/libDaisy//src/per/adc.h **** using a struct like this allows us to add more configuration
  19:../../../../Desktop/DaisyExamples/libDaisy//src/per/adc.h **** later without breaking existing functionality.
ARM GAS  C:\Users\pbant\AppData\Local\Temp\ccAmOMRv.s 			page 5


  20:../../../../Desktop/DaisyExamples/libDaisy//src/per/adc.h **** */
  21:../../../../Desktop/DaisyExamples/libDaisy//src/per/adc.h **** 
  22:../../../../Desktop/DaisyExamples/libDaisy//src/per/adc.h **** /** @brief   Configuration Structure for an ADC Channel 
  23:../../../../Desktop/DaisyExamples/libDaisy//src/per/adc.h ****  *  @details This can be used to configure a a single input, 
  24:../../../../Desktop/DaisyExamples/libDaisy//src/per/adc.h ****  *           or a multiplexed input, allowing up to 8 inputs on 
  25:../../../../Desktop/DaisyExamples/libDaisy//src/per/adc.h ****  *           one channel.
  26:../../../../Desktop/DaisyExamples/libDaisy//src/per/adc.h ****  *  @note    Sharing data lines to multiple muxes _is_ possible, but
  27:../../../../Desktop/DaisyExamples/libDaisy//src/per/adc.h ****  *           each channel sharing data lines must be set to the maximum
  28:../../../../Desktop/DaisyExamples/libDaisy//src/per/adc.h ****  *           number of channels, even if some multiplexers have fewer
  29:../../../../Desktop/DaisyExamples/libDaisy//src/per/adc.h ****  *           inputs connected.
  30:../../../../Desktop/DaisyExamples/libDaisy//src/per/adc.h **** */
  31:../../../../Desktop/DaisyExamples/libDaisy//src/per/adc.h **** struct AdcChannelConfig
  32:../../../../Desktop/DaisyExamples/libDaisy//src/per/adc.h **** {
  33:../../../../Desktop/DaisyExamples/libDaisy//src/per/adc.h ****     /** Which pin to use for multiplexing */
  34:../../../../Desktop/DaisyExamples/libDaisy//src/per/adc.h ****     enum MuxPin
  35:../../../../Desktop/DaisyExamples/libDaisy//src/per/adc.h ****     {
  36:../../../../Desktop/DaisyExamples/libDaisy//src/per/adc.h ****         MUX_SEL_0,    /**< & */
  37:../../../../Desktop/DaisyExamples/libDaisy//src/per/adc.h ****         MUX_SEL_1,    /**< & */
  38:../../../../Desktop/DaisyExamples/libDaisy//src/per/adc.h ****         MUX_SEL_2,    /**< & */
  39:../../../../Desktop/DaisyExamples/libDaisy//src/per/adc.h ****         MUX_SEL_LAST, /**< & */
  40:../../../../Desktop/DaisyExamples/libDaisy//src/per/adc.h ****     };
  41:../../../../Desktop/DaisyExamples/libDaisy//src/per/adc.h **** 
  42:../../../../Desktop/DaisyExamples/libDaisy//src/per/adc.h ****     /** \brief per channel conversion speed added to fixed time based on bitdepth, etc. */
  43:../../../../Desktop/DaisyExamples/libDaisy//src/per/adc.h ****     enum ConversionSpeed
  44:../../../../Desktop/DaisyExamples/libDaisy//src/per/adc.h ****     {
  45:../../../../Desktop/DaisyExamples/libDaisy//src/per/adc.h ****         SPEED_1CYCLES_5,
  46:../../../../Desktop/DaisyExamples/libDaisy//src/per/adc.h ****         SPEED_2CYCLES_5,
  47:../../../../Desktop/DaisyExamples/libDaisy//src/per/adc.h ****         SPEED_8CYCLES_5,
  48:../../../../Desktop/DaisyExamples/libDaisy//src/per/adc.h ****         SPEED_16CYCLES_5,
  49:../../../../Desktop/DaisyExamples/libDaisy//src/per/adc.h ****         SPEED_32CYCLES_5,
  50:../../../../Desktop/DaisyExamples/libDaisy//src/per/adc.h ****         SPEED_64CYCLES_5,
  51:../../../../Desktop/DaisyExamples/libDaisy//src/per/adc.h ****         SPEED_387CYCLES_5,
  52:../../../../Desktop/DaisyExamples/libDaisy//src/per/adc.h ****         SPEED_810CYCLES_5,
  53:../../../../Desktop/DaisyExamples/libDaisy//src/per/adc.h ****     };
  54:../../../../Desktop/DaisyExamples/libDaisy//src/per/adc.h **** 
  55:../../../../Desktop/DaisyExamples/libDaisy//src/per/adc.h ****     /** Initializes a single ADC pin as an ADC. 
  56:../../../../Desktop/DaisyExamples/libDaisy//src/per/adc.h ****     \param pin Pin to init.
  57:../../../../Desktop/DaisyExamples/libDaisy//src/per/adc.h ****     \param speed conversion speed for this pin defaults to 8.5 cycles
  58:../../../../Desktop/DaisyExamples/libDaisy//src/per/adc.h ****      */
  59:../../../../Desktop/DaisyExamples/libDaisy//src/per/adc.h ****     void InitSingle(dsy_gpio_pin pin, ConversionSpeed speed = SPEED_8CYCLES_5);
  60:../../../../Desktop/DaisyExamples/libDaisy//src/per/adc.h **** 
  61:../../../../Desktop/DaisyExamples/libDaisy//src/per/adc.h ****     /** 
  62:../../../../Desktop/DaisyExamples/libDaisy//src/per/adc.h ****     Initializes a single ADC pin as a Multiplexed ADC.
  63:../../../../Desktop/DaisyExamples/libDaisy//src/per/adc.h ****     Requires a CD405X Multiplexer connected to the pin.
  64:../../../../Desktop/DaisyExamples/libDaisy//src/per/adc.h ****     You only need to supply the mux pins that are required,
  65:../../../../Desktop/DaisyExamples/libDaisy//src/per/adc.h ****     e.g. a 4052 mux would only require mux_0 and mux_1.
  66:../../../../Desktop/DaisyExamples/libDaisy//src/per/adc.h ****     Internal Callbacks handle the pin addressing.
  67:../../../../Desktop/DaisyExamples/libDaisy//src/per/adc.h ****     \param adc_pin &
  68:../../../../Desktop/DaisyExamples/libDaisy//src/per/adc.h ****     \param mux_channels must be 1-8
  69:../../../../Desktop/DaisyExamples/libDaisy//src/per/adc.h ****     \param mux_0 First mux pin
  70:../../../../Desktop/DaisyExamples/libDaisy//src/per/adc.h ****     \param mux_1 Second mux pin
  71:../../../../Desktop/DaisyExamples/libDaisy//src/per/adc.h ****     \param mux_2 Third mux pin
  72:../../../../Desktop/DaisyExamples/libDaisy//src/per/adc.h ****     \param speed conversion speed for this pin defaults to 8.5 cycles
  73:../../../../Desktop/DaisyExamples/libDaisy//src/per/adc.h ****     */
  74:../../../../Desktop/DaisyExamples/libDaisy//src/per/adc.h ****     void InitMux(dsy_gpio_pin    adc_pin,
  75:../../../../Desktop/DaisyExamples/libDaisy//src/per/adc.h ****                  size_t          mux_channels,
  76:../../../../Desktop/DaisyExamples/libDaisy//src/per/adc.h ****                  dsy_gpio_pin    mux_0,
ARM GAS  C:\Users\pbant\AppData\Local\Temp\ccAmOMRv.s 			page 6


  77:../../../../Desktop/DaisyExamples/libDaisy//src/per/adc.h ****                  dsy_gpio_pin    mux_1 = {DSY_GPIOX, 0},
  78:../../../../Desktop/DaisyExamples/libDaisy//src/per/adc.h ****                  dsy_gpio_pin    mux_2 = {DSY_GPIOX, 0},
  79:../../../../Desktop/DaisyExamples/libDaisy//src/per/adc.h ****                  ConversionSpeed speed = SPEED_8CYCLES_5);
  80:../../../../Desktop/DaisyExamples/libDaisy//src/per/adc.h **** 
  81:../../../../Desktop/DaisyExamples/libDaisy//src/per/adc.h ****     dsy_gpio        pin_;                   /**< & */
  82:../../../../Desktop/DaisyExamples/libDaisy//src/per/adc.h ****     dsy_gpio        mux_pin_[MUX_SEL_LAST]; /**< & */
  83:../../../../Desktop/DaisyExamples/libDaisy//src/per/adc.h ****     uint8_t         mux_channels_;          /**< & */
  84:../../../../Desktop/DaisyExamples/libDaisy//src/per/adc.h ****     ConversionSpeed speed_;
  85:../../../../Desktop/DaisyExamples/libDaisy//src/per/adc.h **** };
  86:../../../../Desktop/DaisyExamples/libDaisy//src/per/adc.h **** 
  87:../../../../Desktop/DaisyExamples/libDaisy//src/per/adc.h **** /**
  88:../../../../Desktop/DaisyExamples/libDaisy//src/per/adc.h ****    @brief Handler for analog to digital conversion
  89:../../../../Desktop/DaisyExamples/libDaisy//src/per/adc.h **** */
  90:../../../../Desktop/DaisyExamples/libDaisy//src/per/adc.h **** class AdcHandle
  91:../../../../Desktop/DaisyExamples/libDaisy//src/per/adc.h **** {
  92:../../../../Desktop/DaisyExamples/libDaisy//src/per/adc.h ****   public:
  93:../../../../Desktop/DaisyExamples/libDaisy//src/per/adc.h ****     /** Supported oversampling amounts */
  94:../../../../Desktop/DaisyExamples/libDaisy//src/per/adc.h ****     enum OverSampling
  95:../../../../Desktop/DaisyExamples/libDaisy//src/per/adc.h ****     {
  96:../../../../Desktop/DaisyExamples/libDaisy//src/per/adc.h ****         OVS_NONE, /**< & */
  97:../../../../Desktop/DaisyExamples/libDaisy//src/per/adc.h ****         OVS_4,    /**< & */
  98:../../../../Desktop/DaisyExamples/libDaisy//src/per/adc.h ****         OVS_8,    /**< & */
  99:../../../../Desktop/DaisyExamples/libDaisy//src/per/adc.h ****         OVS_16,   /**< & */
 100:../../../../Desktop/DaisyExamples/libDaisy//src/per/adc.h ****         OVS_32,   /**< & */
 101:../../../../Desktop/DaisyExamples/libDaisy//src/per/adc.h ****         OVS_64,   /**< & */
 102:../../../../Desktop/DaisyExamples/libDaisy//src/per/adc.h ****         OVS_128,  /**< & */
 103:../../../../Desktop/DaisyExamples/libDaisy//src/per/adc.h ****         OVS_256,  /**< & */
 104:../../../../Desktop/DaisyExamples/libDaisy//src/per/adc.h ****         OVS_512,  /**< & */
 105:../../../../Desktop/DaisyExamples/libDaisy//src/per/adc.h ****         OVS_1024, /**< & */
 106:../../../../Desktop/DaisyExamples/libDaisy//src/per/adc.h ****         OVS_LAST, /**< & */
 107:../../../../Desktop/DaisyExamples/libDaisy//src/per/adc.h ****     };
 108:../../../../Desktop/DaisyExamples/libDaisy//src/per/adc.h **** 
 109:../../../../Desktop/DaisyExamples/libDaisy//src/per/adc.h ****     AdcHandle() {}
 110:../../../../Desktop/DaisyExamples/libDaisy//src/per/adc.h ****     ~AdcHandle() {}
  50              		.loc 4 110 5 is_stmt 1 view .LVU5
  51              		.loc 4 110 5 is_stmt 0 view .LVU6
  52              	.LBE226:
  53              	.LBB227:
  54              	.LBI227:
  55              		.file 5 "../../../../Desktop/DaisyExamples/libDaisy//src/hid/audio.h"
   1:../../../../Desktop/DaisyExamples/libDaisy//src/hid/audio.h **** #ifndef DSY_AUDIO_H
   2:../../../../Desktop/DaisyExamples/libDaisy//src/hid/audio.h **** #define DSY_AUDIO_H /**< & */
   3:../../../../Desktop/DaisyExamples/libDaisy//src/hid/audio.h **** 
   4:../../../../Desktop/DaisyExamples/libDaisy//src/hid/audio.h **** #include "per/sai.h"
   5:../../../../Desktop/DaisyExamples/libDaisy//src/hid/audio.h **** 
   6:../../../../Desktop/DaisyExamples/libDaisy//src/hid/audio.h **** namespace daisy
   7:../../../../Desktop/DaisyExamples/libDaisy//src/hid/audio.h **** {
   8:../../../../Desktop/DaisyExamples/libDaisy//src/hid/audio.h **** /** @brief Audio Engine Handle
   9:../../../../Desktop/DaisyExamples/libDaisy//src/hid/audio.h ****  *  @ingroup audio 
  10:../../../../Desktop/DaisyExamples/libDaisy//src/hid/audio.h ****  *  @details This class allows for higher level access to an audio engine.
  11:../../../../Desktop/DaisyExamples/libDaisy//src/hid/audio.h ****  *           If you're using a SOM like the DaisySeed or DaisyPatchSM (or any 
  12:../../../../Desktop/DaisyExamples/libDaisy//src/hid/audio.h ****  *            board that includes one of those objects) then the intialization
  13:../../../../Desktop/DaisyExamples/libDaisy//src/hid/audio.h ****  *            is already taken  care of.
  14:../../../../Desktop/DaisyExamples/libDaisy//src/hid/audio.h ****  *           If you're setting up your own custom hardware, or need to make changes
  15:../../../../Desktop/DaisyExamples/libDaisy//src/hid/audio.h ****  *           you will have to take the following steps:
  16:../../../../Desktop/DaisyExamples/libDaisy//src/hid/audio.h ****  *             1. Create and Initialize an SaiHandle or two depending on your requirements
  17:../../../../Desktop/DaisyExamples/libDaisy//src/hid/audio.h ****  *             2. Initialize the Audio Handle with the desired settings and the Initialized SaiHand
ARM GAS  C:\Users\pbant\AppData\Local\Temp\ccAmOMRv.s 			page 7


  18:../../../../Desktop/DaisyExamples/libDaisy//src/hid/audio.h ****  *             3. If the connected codec requires special configuration or initialization, do so
  19:../../../../Desktop/DaisyExamples/libDaisy//src/hid/audio.h ****  *             4. Write a callback method using either the AudioCallback or the InterleavingAudioCa
  20:../../../../Desktop/DaisyExamples/libDaisy//src/hid/audio.h ****  *             5. Start the Audio using one of the StartAudio function
  21:../../../../Desktop/DaisyExamples/libDaisy//src/hid/audio.h ****  */
  22:../../../../Desktop/DaisyExamples/libDaisy//src/hid/audio.h **** class AudioHandle
  23:../../../../Desktop/DaisyExamples/libDaisy//src/hid/audio.h **** {
  24:../../../../Desktop/DaisyExamples/libDaisy//src/hid/audio.h ****   public:
  25:../../../../Desktop/DaisyExamples/libDaisy//src/hid/audio.h ****     /** Manually configurable details about the Audio Engine */
  26:../../../../Desktop/DaisyExamples/libDaisy//src/hid/audio.h ****     /** TODO: Figure out how to get samplerate in here. */
  27:../../../../Desktop/DaisyExamples/libDaisy//src/hid/audio.h ****     struct Config
  28:../../../../Desktop/DaisyExamples/libDaisy//src/hid/audio.h ****     {
  29:../../../../Desktop/DaisyExamples/libDaisy//src/hid/audio.h ****         /** number of samples to process per callback */
  30:../../../../Desktop/DaisyExamples/libDaisy//src/hid/audio.h ****         size_t blocksize;
  31:../../../../Desktop/DaisyExamples/libDaisy//src/hid/audio.h **** 
  32:../../../../Desktop/DaisyExamples/libDaisy//src/hid/audio.h ****         /**< Sample rate of audio */
  33:../../../../Desktop/DaisyExamples/libDaisy//src/hid/audio.h ****         SaiHandle::Config::SampleRate samplerate;
  34:../../../../Desktop/DaisyExamples/libDaisy//src/hid/audio.h **** 
  35:../../../../Desktop/DaisyExamples/libDaisy//src/hid/audio.h ****         /** factor for adjustment before and after callback for hardware that may have extra headro
  36:../../../../Desktop/DaisyExamples/libDaisy//src/hid/audio.h ****         float postgain;
  37:../../../../Desktop/DaisyExamples/libDaisy//src/hid/audio.h **** 
  38:../../../../Desktop/DaisyExamples/libDaisy//src/hid/audio.h ****         /** factor for additional one-sided compensation to audio path for hardware that may
  39:../../../../Desktop/DaisyExamples/libDaisy//src/hid/audio.h ****          *  have unequal input/output ranges
  40:../../../../Desktop/DaisyExamples/libDaisy//src/hid/audio.h ****          */
  41:../../../../Desktop/DaisyExamples/libDaisy//src/hid/audio.h ****         float output_compensation;
  42:../../../../Desktop/DaisyExamples/libDaisy//src/hid/audio.h **** 
  43:../../../../Desktop/DaisyExamples/libDaisy//src/hid/audio.h ****         /** Sets default values for config struct */
  44:../../../../Desktop/DaisyExamples/libDaisy//src/hid/audio.h ****         Config()
  45:../../../../Desktop/DaisyExamples/libDaisy//src/hid/audio.h ****         : blocksize(48),
  46:../../../../Desktop/DaisyExamples/libDaisy//src/hid/audio.h ****           samplerate(SaiHandle::Config::SampleRate::SAI_48KHZ),
  47:../../../../Desktop/DaisyExamples/libDaisy//src/hid/audio.h ****           postgain(1.f),
  48:../../../../Desktop/DaisyExamples/libDaisy//src/hid/audio.h ****           output_compensation(1.f)
  49:../../../../Desktop/DaisyExamples/libDaisy//src/hid/audio.h ****         {
  50:../../../../Desktop/DaisyExamples/libDaisy//src/hid/audio.h ****         }
  51:../../../../Desktop/DaisyExamples/libDaisy//src/hid/audio.h ****     };
  52:../../../../Desktop/DaisyExamples/libDaisy//src/hid/audio.h **** 
  53:../../../../Desktop/DaisyExamples/libDaisy//src/hid/audio.h ****     enum class Result
  54:../../../../Desktop/DaisyExamples/libDaisy//src/hid/audio.h ****     {
  55:../../../../Desktop/DaisyExamples/libDaisy//src/hid/audio.h ****         OK,
  56:../../../../Desktop/DaisyExamples/libDaisy//src/hid/audio.h ****         ERR,
  57:../../../../Desktop/DaisyExamples/libDaisy//src/hid/audio.h ****     };
  58:../../../../Desktop/DaisyExamples/libDaisy//src/hid/audio.h **** 
  59:../../../../Desktop/DaisyExamples/libDaisy//src/hid/audio.h ****     /** Non-Interleaving input buffer
  60:../../../../Desktop/DaisyExamples/libDaisy//src/hid/audio.h ****      * Buffer arranged by float[chn][sample] 
  61:../../../../Desktop/DaisyExamples/libDaisy//src/hid/audio.h ****      * const so that the user can't modify the input
  62:../../../../Desktop/DaisyExamples/libDaisy//src/hid/audio.h ****      */
  63:../../../../Desktop/DaisyExamples/libDaisy//src/hid/audio.h ****     typedef const float* const* InputBuffer;
  64:../../../../Desktop/DaisyExamples/libDaisy//src/hid/audio.h **** 
  65:../../../../Desktop/DaisyExamples/libDaisy//src/hid/audio.h ****     /** Non-Interleaving output buffer
  66:../../../../Desktop/DaisyExamples/libDaisy//src/hid/audio.h ****      * Arranged by float[chn][sample] 
  67:../../../../Desktop/DaisyExamples/libDaisy//src/hid/audio.h ****      */
  68:../../../../Desktop/DaisyExamples/libDaisy//src/hid/audio.h ****     typedef float** OutputBuffer;
  69:../../../../Desktop/DaisyExamples/libDaisy//src/hid/audio.h **** 
  70:../../../../Desktop/DaisyExamples/libDaisy//src/hid/audio.h ****     /** Type for a Non-Interleaving audio callback 
  71:../../../../Desktop/DaisyExamples/libDaisy//src/hid/audio.h ****      * Non-Interleaving audio callbacks in daisy will be of this type
  72:../../../../Desktop/DaisyExamples/libDaisy//src/hid/audio.h ****      */
  73:../../../../Desktop/DaisyExamples/libDaisy//src/hid/audio.h ****     typedef void (*AudioCallback)(InputBuffer  in,
  74:../../../../Desktop/DaisyExamples/libDaisy//src/hid/audio.h ****                                   OutputBuffer out,
ARM GAS  C:\Users\pbant\AppData\Local\Temp\ccAmOMRv.s 			page 8


  75:../../../../Desktop/DaisyExamples/libDaisy//src/hid/audio.h ****                                   size_t       size);
  76:../../../../Desktop/DaisyExamples/libDaisy//src/hid/audio.h **** 
  77:../../../../Desktop/DaisyExamples/libDaisy//src/hid/audio.h ****     /** Interleaving Input buffer
  78:../../../../Desktop/DaisyExamples/libDaisy//src/hid/audio.h ****      ** audio is prepared as { L0, R0, L1, R1, . . . LN, RN }]
  79:../../../../Desktop/DaisyExamples/libDaisy//src/hid/audio.h ****      ** this is const, as the user shouldn't modify it
  80:../../../../Desktop/DaisyExamples/libDaisy//src/hid/audio.h ****     */
  81:../../../../Desktop/DaisyExamples/libDaisy//src/hid/audio.h ****     typedef const float* InterleavingInputBuffer;
  82:../../../../Desktop/DaisyExamples/libDaisy//src/hid/audio.h **** 
  83:../../../../Desktop/DaisyExamples/libDaisy//src/hid/audio.h ****     /** Interleaving Output buffer 
  84:../../../../Desktop/DaisyExamples/libDaisy//src/hid/audio.h ****      ** audio is prepared as { L0, R0, L1, R1, . . . LN, RN }
  85:../../../../Desktop/DaisyExamples/libDaisy//src/hid/audio.h ****     */
  86:../../../../Desktop/DaisyExamples/libDaisy//src/hid/audio.h ****     typedef float* InterleavingOutputBuffer;
  87:../../../../Desktop/DaisyExamples/libDaisy//src/hid/audio.h **** 
  88:../../../../Desktop/DaisyExamples/libDaisy//src/hid/audio.h ****     /** Interleaving Audio Callback 
  89:../../../../Desktop/DaisyExamples/libDaisy//src/hid/audio.h ****      * Interleaving audio callbacks in daisy must be of this type
  90:../../../../Desktop/DaisyExamples/libDaisy//src/hid/audio.h ****      */
  91:../../../../Desktop/DaisyExamples/libDaisy//src/hid/audio.h ****     typedef void (*InterleavingAudioCallback)(InterleavingInputBuffer  in,
  92:../../../../Desktop/DaisyExamples/libDaisy//src/hid/audio.h ****                                               InterleavingOutputBuffer out,
  93:../../../../Desktop/DaisyExamples/libDaisy//src/hid/audio.h ****                                               size_t                   size);
  94:../../../../Desktop/DaisyExamples/libDaisy//src/hid/audio.h **** 
  95:../../../../Desktop/DaisyExamples/libDaisy//src/hid/audio.h ****     AudioHandle() : pimpl_(nullptr) {}
  96:../../../../Desktop/DaisyExamples/libDaisy//src/hid/audio.h ****     ~AudioHandle() {}
  56              		.loc 5 96 5 is_stmt 1 view .LVU7
  57              		.loc 5 96 5 is_stmt 0 view .LVU8
  58              	.LBE227:
  59              		.loc 1 22 19 view .LVU9
  60 0000 7047     		bx	lr
  61              		.cfi_endproc
  62              	.LFE2555:
  64              		.weak	_ZN5daisy9DaisySeedD1Ev
  65              		.thumb_set _ZN5daisy9DaisySeedD1Ev,_ZN5daisy9DaisySeedD2Ev
  66 0002 00BF     		.section	.text._Z13AudioCallbackPKPKfPPfj,"ax",%progbits
  67              		.align	1
  68              		.p2align 2,,3
  69              		.global	_Z13AudioCallbackPKPKfPPfj
  70              		.syntax unified
  71              		.thumb
  72              		.thumb_func
  73              		.fpu fpv5-d16
  75              	_Z13AudioCallbackPKPKfPPfj:
  76              	.LVL1:
  77              	.LFB4752:
  78              		.file 6 "TestTFT.cpp"
   1:TestTFT.cpp   **** #include "Debug.h"
   2:TestTFT.cpp   **** #include "daisy_seed.h"
   3:TestTFT.cpp   **** #include "daisysp.h"
   4:TestTFT.cpp   **** #include "GFX.h"
   5:TestTFT.cpp   **** #include "Vanilla20pt.h"
   6:TestTFT.cpp   **** #include "Pap.h"
   7:TestTFT.cpp   **** 
   8:TestTFT.cpp   **** using namespace daisy;
   9:TestTFT.cpp   **** using namespace daisysp;
  10:TestTFT.cpp   **** 
  11:TestTFT.cpp   **** DaisySeed hw;
  12:TestTFT.cpp   **** 
  13:TestTFT.cpp   **** 
  14:TestTFT.cpp   **** FIFO_Data DMA_BUFFER_MEM_SECTION __Fifo;
ARM GAS  C:\Users\pbant\AppData\Local\Temp\ccAmOMRv.s 			page 9


  15:TestTFT.cpp   **** RGB DSY_SDRAM_BSS __FrameBuff[TFT_WIDTH*TFT_HEIGHT];
  16:TestTFT.cpp   **** cGFX __Display;
  17:TestTFT.cpp   **** cFont Vanilla20(&VanillaExtractRegular20pt7b);
  18:TestTFT.cpp   **** 
  19:TestTFT.cpp   **** void AudioCallback(AudioHandle::InputBuffer in, AudioHandle::OutputBuffer out, size_t size)
  20:TestTFT.cpp   **** {
  79              		.loc 6 20 1 is_stmt 1 view -0
  80              		.cfi_startproc
  81              		@ args = 0, pretend = 0, frame = 0
  82              		@ frame_needed = 0, uses_anonymous_args = 0
  83              		@ link register save eliminated.
  21:TestTFT.cpp   **** 	for (size_t i = 0; i < size; i++)
  84              		.loc 6 21 2 view .LVU11
  85              	.LBB228:
  86              		.loc 6 21 23 view .LVU12
  87 0000 9AB1     		cbz	r2, .L11
  88 0002 0368     		ldr	r3, [r0]
  89 0004 4068     		ldr	r0, [r0, #4]
  90              	.LVL2:
  91              		.loc 6 21 23 is_stmt 0 view .LVU13
  92 0006 03EB820C 		add	ip, r3, r2, lsl #2
  93              	.LBE228:
  20:TestTFT.cpp   **** 	for (size_t i = 0; i < size; i++)
  94              		.loc 6 20 1 view .LVU14
  95 000a 10B4     		push	{r4}
  96              		.cfi_def_cfa_offset 4
  97              		.cfi_offset 4, -4
  98 000c 0C68     		ldr	r4, [r1]
  99 000e 4968     		ldr	r1, [r1, #4]
 100              	.LVL3:
 101              	.L5:
 102              	.LBB229:
  22:TestTFT.cpp   **** 	{
  23:TestTFT.cpp   **** 		out[0][i] = in[0][i];
 103              		.loc 6 23 3 is_stmt 1 discriminator 2 view .LVU15
 104              		.loc 6 23 22 is_stmt 0 discriminator 2 view .LVU16
 105 0010 53F8042B 		ldr	r2, [r3], #4	@ float
 106              		.loc 6 23 13 discriminator 2 view .LVU17
 107 0014 44F8042B 		str	r2, [r4], #4	@ float
  24:TestTFT.cpp   **** 		out[1][i] = in[1][i];
 108              		.loc 6 24 3 is_stmt 1 discriminator 2 view .LVU18
  21:TestTFT.cpp   **** 	{
 109              		.loc 6 21 23 is_stmt 0 discriminator 2 view .LVU19
 110 0018 6345     		cmp	r3, ip
 111              		.loc 6 24 22 discriminator 2 view .LVU20
 112 001a 50F8042B 		ldr	r2, [r0], #4	@ float
 113              		.loc 6 24 13 discriminator 2 view .LVU21
 114 001e 41F8042B 		str	r2, [r1], #4	@ float
  21:TestTFT.cpp   **** 	{
 115              		.loc 6 21 2 is_stmt 1 discriminator 2 view .LVU22
  21:TestTFT.cpp   **** 	{
 116              		.loc 6 21 23 discriminator 2 view .LVU23
 117 0022 F5D1     		bne	.L5
 118              	.LBE229:
  25:TestTFT.cpp   **** 	}
  26:TestTFT.cpp   **** }
 119              		.loc 6 26 1 is_stmt 0 view .LVU24
ARM GAS  C:\Users\pbant\AppData\Local\Temp\ccAmOMRv.s 			page 10


 120 0024 5DF8044B 		ldr	r4, [sp], #4
 121              		.cfi_restore 4
 122              		.cfi_def_cfa_offset 0
 123 0028 7047     		bx	lr
 124              	.LVL4:
 125              	.L11:
 126              		.loc 6 26 1 view .LVU25
 127 002a 7047     		bx	lr
 128              		.cfi_endproc
 129              	.LFE4752:
 131              		.section	.rodata.main.str1.4,"aMS",%progbits,1
 132              		.align	2
 133              	.LC0:
 134 0000 426F6E6A 		.ascii	"Bonjour !\000"
 134      6F757220 
 134      2100
 135 000a 0000     		.align	2
 136              	.LC1:
 137 000c 25303264 		.ascii	"%02d\000"
 137      00
 138              		.section	.text.startup.main,"ax",%progbits
 139              		.align	1
 140              		.p2align 2,,3
 141              		.global	main
 142              		.syntax unified
 143              		.thumb
 144              		.thumb_func
 145              		.fpu fpv5-d16
 147              	main:
 148              	.LFB4753:
  27:TestTFT.cpp   **** 
  28:TestTFT.cpp   **** int main(void)
  29:TestTFT.cpp   **** {
 149              		.loc 6 29 1 is_stmt 1 view -0
 150              		.cfi_startproc
 151              		@ args = 0, pretend = 0, frame = 80
 152              		@ frame_needed = 0, uses_anonymous_args = 0
  30:TestTFT.cpp   **** 	hw.Init();
 153              		.loc 6 30 2 view .LVU27
  29:TestTFT.cpp   **** 	hw.Init();
 154              		.loc 6 29 1 is_stmt 0 view .LVU28
 155 0000 2DE9F04F 		push	{r4, r5, r6, r7, r8, r9, r10, fp, lr}
 156              		.cfi_def_cfa_offset 36
 157              		.cfi_offset 4, -36
 158              		.cfi_offset 5, -32
 159              		.cfi_offset 6, -28
 160              		.cfi_offset 7, -24
 161              		.cfi_offset 8, -20
 162              		.cfi_offset 9, -16
 163              		.cfi_offset 10, -12
 164              		.cfi_offset 11, -8
 165              		.cfi_offset 14, -4
 166              		.loc 6 30 9 view .LVU29
 167 0004 0021     		movs	r1, #0
  29:TestTFT.cpp   **** 	hw.Init();
 168              		.loc 6 29 1 view .LVU30
 169 0006 97B0     		sub	sp, sp, #92
ARM GAS  C:\Users\pbant\AppData\Local\Temp\ccAmOMRv.s 			page 11


 170              		.cfi_def_cfa_offset 128
 171              		.loc 6 30 9 view .LVU31
 172 0008 6D48     		ldr	r0, .L26
 173              	.LBB309:
 174              	.LBB310:
 175              	.LBB311:
 176              		.file 7 "Frame.h"
   1:Frame.h       **** //------------------------------------------------------------------------
   2:Frame.h       **** // Copyright(c) 2024 Dad Desing.
   3:Frame.h       **** //      Gestion d'une frame de pixel
   4:Frame.h       **** //      Les pixels sont organisés en bloc de transmission
   5:Frame.h       **** //      pour une mise à jour optimisé de l'écran
   6:Frame.h       **** //------------------------------------------------------------------------
   7:Frame.h       **** #pragma once
   8:Frame.h       **** #include <stdint.h>
   9:Frame.h       **** #include "TFT_SPI.h"
  10:Frame.h       **** #include "Debug.h"
  11:Frame.h       **** 
  12:Frame.h       **** #define NB_BLOC (FRAME_GRILLE*FRAME_GRILLE)
  13:Frame.h       **** #if TFT_COLOR == 16
  14:Frame.h       ****     #define TAILLE_BLOC (TFT_WIDTH * TFT_HEIGHT * 2) / NB_BLOC
  15:Frame.h       **** #else
  16:Frame.h       ****     #define TAILLE_BLOC (TFT_WIDTH * TFT_HEIGHT * 3) / NB_BLOC
  17:Frame.h       **** #endif
  18:Frame.h       **** 
  19:Frame.h       **** //***********************************************************************************
  20:Frame.h       **** // Cmd_CASET
  21:Frame.h       **** //   Commande SPI de séléction des colones  
  22:Frame.h       **** //*********************************************************************************** 
  23:Frame.h       **** class Cmd_CASET {
  24:Frame.h       ****     public :
  25:Frame.h       ****     friend class cRBG_Frame;
  26:Frame.h       ****     // --------------------------------------------------------------------------
  27:Frame.h       ****     // Constructeur
  28:Frame.h       ****     Cmd_CASET(){
  29:Frame.h       ****         m_Commande = TFT_CASET;
  30:Frame.h       ****     }
  31:Frame.h       **** 
  32:Frame.h       ****     // --------------------------------------------------------------------------
  33:Frame.h       ****     // Définition de l'abcisse de la fenetre
  34:Frame.h       ****     void setData(uint16_t x, uint16_t dx){
  35:Frame.h       ****         m_Data[0] = x >> 8;
  36:Frame.h       ****         m_Data[1] = x & 0xFF;
  37:Frame.h       ****         m_Data[2] = dx >> 8;
  38:Frame.h       ****         m_Data[3] = dx & 0xFF;
  39:Frame.h       ****     }
  40:Frame.h       ****     
  41:Frame.h       ****     // --------------------------------------------------------------------------
  42:Frame.h       ****     // Données de la classe
  43:Frame.h       ****     protected :
  44:Frame.h       ****     uint8_t m_Commande;
  45:Frame.h       ****     uint8_t m_Data[4];
  46:Frame.h       **** };
  47:Frame.h       **** 
  48:Frame.h       **** //***********************************************************************************
  49:Frame.h       **** // Cmd_RASET
  50:Frame.h       **** //   Commande SPI de selection des rangées  
ARM GAS  C:\Users\pbant\AppData\Local\Temp\ccAmOMRv.s 			page 12


  51:Frame.h       **** //*********************************************************************************** 
  52:Frame.h       **** class Cmd_RASET {
  53:Frame.h       ****     public :
  54:Frame.h       ****     friend class cRBG_Frame;
  55:Frame.h       **** 
  56:Frame.h       ****     // --------------------------------------------------------------------------
  57:Frame.h       ****     // Constructeur
  58:Frame.h       ****     Cmd_RASET(){
  59:Frame.h       ****         m_Commande = TFT_RASET;
  60:Frame.h       ****     }
  61:Frame.h       ****     
  62:Frame.h       ****     // --------------------------------------------------------------------------
  63:Frame.h       ****     // Définition de l'ordonnée de la fenètre
  64:Frame.h       ****     void setData(uint16_t y, uint16_t dy){
  65:Frame.h       ****         m_Data[0] = y >> 8;
  66:Frame.h       ****         m_Data[1] = y & 0xFF;
  67:Frame.h       ****         m_Data[2] = dy >> 8;
  68:Frame.h       ****         m_Data[3] = dy & 0xFF;
  69:Frame.h       ****     }
  70:Frame.h       **** 
  71:Frame.h       ****     // --------------------------------------------------------------------------
  72:Frame.h       ****     // Données de la classe
  73:Frame.h       ****     protected :
  74:Frame.h       ****     uint8_t m_Commande;
  75:Frame.h       ****     uint8_t m_Data[4];
  76:Frame.h       **** };
  77:Frame.h       **** 
  78:Frame.h       **** //***********************************************************************************
  79:Frame.h       **** // Cmd_RAMWR
  80:Frame.h       **** //   Commande SPI d'ecriture des pixels 
  81:Frame.h       **** //***********************************************************************************
  82:Frame.h       **** class cRBG_Frame;
  83:Frame.h       **** class Cmd_RAMWR {
  84:Frame.h       ****     public :
  85:Frame.h       ****     friend class cRBG_Frame;
  86:Frame.h       **** 
  87:Frame.h       ****     // --------------------------------------------------------------------------
  88:Frame.h       ****     // Constructeur
  89:Frame.h       ****     Cmd_RAMWR(){
  90:Frame.h       ****         m_Commande = TFT_RAMWR;
  91:Frame.h       ****     }
  92:Frame.h       **** 
  93:Frame.h       ****     // --------------------------------------------------------------------------
  94:Frame.h       ****     // Définition des pixels de la frame à transférer
  95:Frame.h       ****     void setData(uint16_t x, uint16_t y, uint16_t dx, uint16_t dy, cRBG_Frame *pFrame);
  96:Frame.h       **** 
  97:Frame.h       ****     // --------------------------------------------------------------------------
  98:Frame.h       ****     // Données de la classe
  99:Frame.h       ****     protected :
 100:Frame.h       ****     uint8_t m_Commande;
 101:Frame.h       ****     uint8_t m_Data[TAILLE_BLOC];
 102:Frame.h       **** };
 103:Frame.h       **** 
 104:Frame.h       **** //***********************************************************************************
 105:Frame.h       **** // cColor 
 106:Frame.h       **** //*********************************************************************************** 
 107:Frame.h       **** struct cColor { 
ARM GAS  C:\Users\pbant\AppData\Local\Temp\ccAmOMRv.s 			page 13


 108:Frame.h       ****     // Constructeur
 109:Frame.h       ****     cColor(uint8_t R, uint8_t G, uint8_t B, uint8_t Trans=255){
 110:Frame.h       ****         m_R = R;
 111:Frame.h       ****         m_G = G;
 177              		.loc 7 111 13 view .LVU32
 178 000a FF24     		movs	r4, #255
 179              	.LBE311:
 180              	.LBE310:
 181              	.LBE309:
 182              		.loc 6 30 9 view .LVU33
 183 000c FFF7FEFF 		bl	_ZN5daisy9DaisySeed4InitEb
 184              	.LVL5:
  31:TestTFT.cpp   **** 	hw.SetAudioBlockSize(4); // number of samples handled per callback
 185              		.loc 6 31 2 is_stmt 1 view .LVU34
 186              		.loc 6 31 22 is_stmt 0 view .LVU35
 187 0010 0421     		movs	r1, #4
 188 0012 6B48     		ldr	r0, .L26
 189              	.LBB318:
 190              	.LBB315:
 191              	.LBB312:
 110:Frame.h       ****         m_G = G;
 192              		.loc 7 110 13 view .LVU36
 193 0014 4FF0000A 		mov	r10, #0
 194              	.LBE312:
 195              	.LBE315:
 196              	.LBE318:
 197              		.loc 6 31 22 view .LVU37
 198 0018 FFF7FEFF 		bl	_ZN5daisy9DaisySeed17SetAudioBlockSizeEj
 199              	.LVL6:
  32:TestTFT.cpp   **** 	hw.SetAudioSampleRate(SaiHandle::Config::SampleRate::SAI_48KHZ);
 200              		.loc 6 32 2 is_stmt 1 view .LVU38
 201              		.loc 6 32 23 is_stmt 0 view .LVU39
 202 001c 0321     		movs	r1, #3
 203 001e 6848     		ldr	r0, .L26
 204              	.LBB319:
 205              	.LBB320:
 206              	.LBB321:
 110:Frame.h       ****         m_G = G;
 207              		.loc 7 110 13 view .LVU40
 208 0020 E826     		movs	r6, #232
 209              	.LBE321:
 210              	.LBE320:
 211              	.LBE319:
 212              		.loc 6 32 23 view .LVU41
 213 0022 FFF7FEFF 		bl	_ZN5daisy9DaisySeed18SetAudioSampleRateENS_9SaiHandle6Config10SampleRateE
 214              	.LVL7:
  33:TestTFT.cpp   **** 	hw.StartAudio(AudioCallback);
 215              		.loc 6 33 2 is_stmt 1 view .LVU42
 216              		.loc 6 33 15 is_stmt 0 view .LVU43
 217 0026 6749     		ldr	r1, .L26+4
 218 0028 6548     		ldr	r0, .L26
 219              	.LBB330:
 220              	.LBB331:
 221              	.LBB332:
 110:Frame.h       ****         m_G = G;
 222              		.loc 7 110 13 view .LVU44
 223 002a D925     		movs	r5, #217
ARM GAS  C:\Users\pbant\AppData\Local\Temp\ccAmOMRv.s 			page 14


 224              	.LBE332:
 225              	.LBE331:
 226              	.LBE330:
 227              		.loc 6 33 15 view .LVU45
 228 002c FFF7FEFF 		bl	_ZN5daisy9DaisySeed10StartAudioEPFvPKPKfPPfjE
 229              	.LVL8:
  34:TestTFT.cpp   **** 	hw.StartLog(false);
 230              		.loc 6 34 2 is_stmt 1 view .LVU46
 231              	.LBB341:
 232              	.LBI341:
  23:../../../../Desktop/DaisyExamples/libDaisy//src/daisy_seed.h **** 
  24:../../../../Desktop/DaisyExamples/libDaisy//src/daisy_seed.h ****     /** This function used to provide a pre-initialization configuraiton 
  25:../../../../Desktop/DaisyExamples/libDaisy//src/daisy_seed.h ****      *  it has since been deprecated, and does nothing.
  26:../../../../Desktop/DaisyExamples/libDaisy//src/daisy_seed.h ****      */
  27:../../../../Desktop/DaisyExamples/libDaisy//src/daisy_seed.h ****     void Configure();
  28:../../../../Desktop/DaisyExamples/libDaisy//src/daisy_seed.h **** 
  29:../../../../Desktop/DaisyExamples/libDaisy//src/daisy_seed.h ****     /** 
  30:../../../../Desktop/DaisyExamples/libDaisy//src/daisy_seed.h ****     Initializes the Daisy Seed and the following peripherals:
  31:../../../../Desktop/DaisyExamples/libDaisy//src/daisy_seed.h ****     SDRAM, QSPI, 24-bit 48kHz Audio via AK4556, Internal USB,
  32:../../../../Desktop/DaisyExamples/libDaisy//src/daisy_seed.h ****     as well as the built-in LED and Testpoint.
  33:../../../../Desktop/DaisyExamples/libDaisy//src/daisy_seed.h **** 
  34:../../../../Desktop/DaisyExamples/libDaisy//src/daisy_seed.h ****     ADCs, DACs, and other special peripherals (such as I2C, SPI, etc.)
  35:../../../../Desktop/DaisyExamples/libDaisy//src/daisy_seed.h ****     can be initialized using their specific initializers within libdaisy
  36:../../../../Desktop/DaisyExamples/libDaisy//src/daisy_seed.h ****     for a specific application.
  37:../../../../Desktop/DaisyExamples/libDaisy//src/daisy_seed.h ****     */
  38:../../../../Desktop/DaisyExamples/libDaisy//src/daisy_seed.h ****     void Init(bool boost = false);
  39:../../../../Desktop/DaisyExamples/libDaisy//src/daisy_seed.h **** 
  40:../../../../Desktop/DaisyExamples/libDaisy//src/daisy_seed.h ****     /** 
  41:../../../../Desktop/DaisyExamples/libDaisy//src/daisy_seed.h ****     Deinitializes all peripherals automatically handled by `Init`.
  42:../../../../Desktop/DaisyExamples/libDaisy//src/daisy_seed.h ****     */
  43:../../../../Desktop/DaisyExamples/libDaisy//src/daisy_seed.h ****     void DeInit();
  44:../../../../Desktop/DaisyExamples/libDaisy//src/daisy_seed.h **** 
  45:../../../../Desktop/DaisyExamples/libDaisy//src/daisy_seed.h ****     /** 
  46:../../../../Desktop/DaisyExamples/libDaisy//src/daisy_seed.h ****     Wait some ms before going on.
  47:../../../../Desktop/DaisyExamples/libDaisy//src/daisy_seed.h ****     \param del Delay time in ms.
  48:../../../../Desktop/DaisyExamples/libDaisy//src/daisy_seed.h ****     */
  49:../../../../Desktop/DaisyExamples/libDaisy//src/daisy_seed.h ****     void DelayMs(size_t del);
  50:../../../../Desktop/DaisyExamples/libDaisy//src/daisy_seed.h **** 
  51:../../../../Desktop/DaisyExamples/libDaisy//src/daisy_seed.h ****     /** 
  52:../../../../Desktop/DaisyExamples/libDaisy//src/daisy_seed.h ****     Returns the gpio_pin corresponding to the index 0-31.
  53:../../../../Desktop/DaisyExamples/libDaisy//src/daisy_seed.h ****     For the given GPIO on the Daisy Seed (labeled 1-32 in docs).
  54:../../../../Desktop/DaisyExamples/libDaisy//src/daisy_seed.h ****     */
  55:../../../../Desktop/DaisyExamples/libDaisy//src/daisy_seed.h ****     static dsy_gpio_pin GetPin(uint8_t pin_idx);
  56:../../../../Desktop/DaisyExamples/libDaisy//src/daisy_seed.h **** 
  57:../../../../Desktop/DaisyExamples/libDaisy//src/daisy_seed.h ****     /** Begins the audio for the seeds builtin audio.
  58:../../../../Desktop/DaisyExamples/libDaisy//src/daisy_seed.h ****     the specified callback will get called whenever
  59:../../../../Desktop/DaisyExamples/libDaisy//src/daisy_seed.h ****     new data is ready to be prepared.
  60:../../../../Desktop/DaisyExamples/libDaisy//src/daisy_seed.h ****     */
  61:../../../../Desktop/DaisyExamples/libDaisy//src/daisy_seed.h ****     void StartAudio(AudioHandle::InterleavingAudioCallback cb);
  62:../../../../Desktop/DaisyExamples/libDaisy//src/daisy_seed.h **** 
  63:../../../../Desktop/DaisyExamples/libDaisy//src/daisy_seed.h ****     /** Begins the audio for the seeds builtin audio.
  64:../../../../Desktop/DaisyExamples/libDaisy//src/daisy_seed.h ****     the specified callback will get called whenever
  65:../../../../Desktop/DaisyExamples/libDaisy//src/daisy_seed.h ****     new data is ready to be prepared.
  66:../../../../Desktop/DaisyExamples/libDaisy//src/daisy_seed.h ****     This will use the newer non-interleaved callback.
  67:../../../../Desktop/DaisyExamples/libDaisy//src/daisy_seed.h ****     */
  68:../../../../Desktop/DaisyExamples/libDaisy//src/daisy_seed.h ****     void StartAudio(AudioHandle::AudioCallback cb);
  69:../../../../Desktop/DaisyExamples/libDaisy//src/daisy_seed.h **** 
ARM GAS  C:\Users\pbant\AppData\Local\Temp\ccAmOMRv.s 			page 15


  70:../../../../Desktop/DaisyExamples/libDaisy//src/daisy_seed.h ****     /** Changes to a new interleaved callback
  71:../../../../Desktop/DaisyExamples/libDaisy//src/daisy_seed.h ****      */
  72:../../../../Desktop/DaisyExamples/libDaisy//src/daisy_seed.h ****     void ChangeAudioCallback(AudioHandle::InterleavingAudioCallback cb);
  73:../../../../Desktop/DaisyExamples/libDaisy//src/daisy_seed.h **** 
  74:../../../../Desktop/DaisyExamples/libDaisy//src/daisy_seed.h ****     /** Changes to a new multichannel callback
  75:../../../../Desktop/DaisyExamples/libDaisy//src/daisy_seed.h ****      */
  76:../../../../Desktop/DaisyExamples/libDaisy//src/daisy_seed.h ****     void ChangeAudioCallback(AudioHandle::AudioCallback cb);
  77:../../../../Desktop/DaisyExamples/libDaisy//src/daisy_seed.h **** 
  78:../../../../Desktop/DaisyExamples/libDaisy//src/daisy_seed.h ****     /** Stops the audio if it is running. */
  79:../../../../Desktop/DaisyExamples/libDaisy//src/daisy_seed.h ****     void StopAudio();
  80:../../../../Desktop/DaisyExamples/libDaisy//src/daisy_seed.h **** 
  81:../../../../Desktop/DaisyExamples/libDaisy//src/daisy_seed.h ****     /** Updates the Audio Sample Rate, and reinitializes.
  82:../../../../Desktop/DaisyExamples/libDaisy//src/daisy_seed.h ****      ** Audio must be stopped for this to work.
  83:../../../../Desktop/DaisyExamples/libDaisy//src/daisy_seed.h ****      */
  84:../../../../Desktop/DaisyExamples/libDaisy//src/daisy_seed.h ****     void SetAudioSampleRate(SaiHandle::Config::SampleRate samplerate);
  85:../../../../Desktop/DaisyExamples/libDaisy//src/daisy_seed.h **** 
  86:../../../../Desktop/DaisyExamples/libDaisy//src/daisy_seed.h ****     /** Returns the audio sample rate in Hz as a floating point number.
  87:../../../../Desktop/DaisyExamples/libDaisy//src/daisy_seed.h ****      */
  88:../../../../Desktop/DaisyExamples/libDaisy//src/daisy_seed.h ****     float AudioSampleRate();
  89:../../../../Desktop/DaisyExamples/libDaisy//src/daisy_seed.h **** 
  90:../../../../Desktop/DaisyExamples/libDaisy//src/daisy_seed.h ****     /** Sets the number of samples processed per channel by the audio callback.
  91:../../../../Desktop/DaisyExamples/libDaisy//src/daisy_seed.h ****      */
  92:../../../../Desktop/DaisyExamples/libDaisy//src/daisy_seed.h ****     void SetAudioBlockSize(size_t blocksize);
  93:../../../../Desktop/DaisyExamples/libDaisy//src/daisy_seed.h **** 
  94:../../../../Desktop/DaisyExamples/libDaisy//src/daisy_seed.h ****     /** Returns the number of samples per channel in a block of audio. */
  95:../../../../Desktop/DaisyExamples/libDaisy//src/daisy_seed.h ****     size_t AudioBlockSize();
  96:../../../../Desktop/DaisyExamples/libDaisy//src/daisy_seed.h **** 
  97:../../../../Desktop/DaisyExamples/libDaisy//src/daisy_seed.h ****     /** Returns the rate in Hz that the Audio callback is called */
  98:../../../../Desktop/DaisyExamples/libDaisy//src/daisy_seed.h ****     float AudioCallbackRate() const;
  99:../../../../Desktop/DaisyExamples/libDaisy//src/daisy_seed.h **** 
 100:../../../../Desktop/DaisyExamples/libDaisy//src/daisy_seed.h ****     /** Returns the SAI Handle for the Daisy Seed 
 101:../../../../Desktop/DaisyExamples/libDaisy//src/daisy_seed.h ****      *  This can be useful when adding a secondary codec,
 102:../../../../Desktop/DaisyExamples/libDaisy//src/daisy_seed.h ****      *  the result of this function can be passed to the audio reinit 
 103:../../../../Desktop/DaisyExamples/libDaisy//src/daisy_seed.h ****      *  with an SAI2 configuration
 104:../../../../Desktop/DaisyExamples/libDaisy//src/daisy_seed.h ****      */
 105:../../../../Desktop/DaisyExamples/libDaisy//src/daisy_seed.h ****     const SaiHandle& AudioSaiHandle() const;
 106:../../../../Desktop/DaisyExamples/libDaisy//src/daisy_seed.h **** 
 107:../../../../Desktop/DaisyExamples/libDaisy//src/daisy_seed.h ****     /** Sets the state of the built in LED
 108:../../../../Desktop/DaisyExamples/libDaisy//src/daisy_seed.h ****      */
 109:../../../../Desktop/DaisyExamples/libDaisy//src/daisy_seed.h ****     void SetLed(bool state);
 110:../../../../Desktop/DaisyExamples/libDaisy//src/daisy_seed.h **** 
 111:../../../../Desktop/DaisyExamples/libDaisy//src/daisy_seed.h ****     /** Sets the state of the test point near pin 10
 112:../../../../Desktop/DaisyExamples/libDaisy//src/daisy_seed.h ****      */
 113:../../../../Desktop/DaisyExamples/libDaisy//src/daisy_seed.h ****     void SetTestPoint(bool state);
 114:../../../../Desktop/DaisyExamples/libDaisy//src/daisy_seed.h **** 
 115:../../../../Desktop/DaisyExamples/libDaisy//src/daisy_seed.h ****     /** Print formatted debug log message
 116:../../../../Desktop/DaisyExamples/libDaisy//src/daisy_seed.h ****      */
 117:../../../../Desktop/DaisyExamples/libDaisy//src/daisy_seed.h ****     template <typename... VA>
 118:../../../../Desktop/DaisyExamples/libDaisy//src/daisy_seed.h ****     static void Print(const char* format, VA... va)
 119:../../../../Desktop/DaisyExamples/libDaisy//src/daisy_seed.h ****     {
 120:../../../../Desktop/DaisyExamples/libDaisy//src/daisy_seed.h ****         Log::Print(format, va...);
 121:../../../../Desktop/DaisyExamples/libDaisy//src/daisy_seed.h ****     }
 122:../../../../Desktop/DaisyExamples/libDaisy//src/daisy_seed.h **** 
 123:../../../../Desktop/DaisyExamples/libDaisy//src/daisy_seed.h ****     /** Print formatted debug log message with automatic line termination
 124:../../../../Desktop/DaisyExamples/libDaisy//src/daisy_seed.h ****     */
 125:../../../../Desktop/DaisyExamples/libDaisy//src/daisy_seed.h ****     template <typename... VA>
 126:../../../../Desktop/DaisyExamples/libDaisy//src/daisy_seed.h ****     static void PrintLine(const char* format, VA... va)
ARM GAS  C:\Users\pbant\AppData\Local\Temp\ccAmOMRv.s 			page 16


 127:../../../../Desktop/DaisyExamples/libDaisy//src/daisy_seed.h ****     {
 128:../../../../Desktop/DaisyExamples/libDaisy//src/daisy_seed.h ****         Log::PrintLine(format, va...);
 129:../../../../Desktop/DaisyExamples/libDaisy//src/daisy_seed.h ****     }
 130:../../../../Desktop/DaisyExamples/libDaisy//src/daisy_seed.h **** 
 131:../../../../Desktop/DaisyExamples/libDaisy//src/daisy_seed.h ****     /** Start the logging session. Optionally wait for terminal connection before proceeding.
 132:../../../../Desktop/DaisyExamples/libDaisy//src/daisy_seed.h ****     */
 133:../../../../Desktop/DaisyExamples/libDaisy//src/daisy_seed.h ****     static void StartLog(bool wait_for_pc = false)
 233              		.loc 1 133 17 view .LVU47
 234              	.LBB342:
 134:../../../../Desktop/DaisyExamples/libDaisy//src/daisy_seed.h ****     {
 135:../../../../Desktop/DaisyExamples/libDaisy//src/daisy_seed.h ****         Log::StartLog(wait_for_pc);
 235              		.loc 1 135 9 view .LVU48
 236              		.loc 1 135 22 is_stmt 0 view .LVU49
 237 0030 0020     		movs	r0, #0
 238 0032 FFF7FEFF 		bl	_ZN5daisy6LoggerILNS_17LoggerDestinationE1EE8StartLogEb
 239              	.LVL9:
 240              		.loc 1 135 22 view .LVU50
 241              	.LBE342:
 242              	.LBE341:
  35:TestTFT.cpp   **** 	D_PRINT("Debut ----------\r\n");
 243              		.loc 6 35 33 is_stmt 1 view .LVU51
  36:TestTFT.cpp   **** 	__Display.Init(__FrameBuff, &__Fifo, TFT_WIDTH, TFT_HEIGHT);
 244              		.loc 6 36 2 view .LVU52
 245              	.LBB343:
 246              	.LBI343:
 247              		.file 8 "GFX.h"
   1:GFX.h         **** //------------------------------------------------------------------------
   2:GFX.h         **** // Copyright(c) 2024 Dad Desing.
   3:GFX.h         **** //      Bibliothèque graphique
   4:GFX.h         **** //
   5:GFX.h         **** // Inspiré largement de :
   6:GFX.h         **** //    Adafruit-GFX-Library : https://github.com/adafruit/Adafruit-GFX-Library
   7:GFX.h         **** //    eSPI : https://github.com/Bodmer/TFT_eSPI
   8:GFX.h         **** //------------------------------------------------------------------------
   9:GFX.h         **** #pragma once
  10:GFX.h         **** #include "Frame.h"
  11:GFX.h         **** #define PROGMEM
  12:GFX.h         **** 
  13:GFX.h         **** //***********************************************************************************
  14:GFX.h         **** // CFont
  15:GFX.h         **** // Gestion des polices de caratères
  16:GFX.h         **** // Utilisation de la structuration des fonts de Adafruit-GFX-Library
  17:GFX.h         **** // Ce qui permet de profiter des outils de conversion (ex: https://rop.nl/truetype2gfx/)
  18:GFX.h         **** 
  19:GFX.h         **** // Table ds descripteurs de caratères
  20:GFX.h         **** typedef struct
  21:GFX.h         **** {
  22:GFX.h         ****     uint16_t bitmapOffset; ///< Pointer into GFXfont->bitmap
  23:GFX.h         ****     uint8_t width;         ///< Bitmap dimensions in pixels
  24:GFX.h         ****     uint8_t height;        ///< Bitmap dimensions in pixels
  25:GFX.h         ****     uint8_t xAdvance;      ///< Distance to advance cursor (x axis)
  26:GFX.h         ****     int8_t xOffset;        ///< X dist from cursor pos to UL corner
  27:GFX.h         ****     int8_t yOffset;         ///< Y dist from cursor pos to UL corner
  28:GFX.h         **** } GFXglyph;
  29:GFX.h         **** 
  30:GFX.h         **** // Descripteur de la Font
  31:GFX.h         **** typedef struct
ARM GAS  C:\Users\pbant\AppData\Local\Temp\ccAmOMRv.s 			page 17


  32:GFX.h         **** {
  33:GFX.h         ****     uint8_t *bitmap;  ///< Glyph bitmaps, concatenated
  34:GFX.h         ****     GFXglyph *glyph;  ///< Glyph array
  35:GFX.h         ****     uint16_t first;   ///< ASCII extents (first char)
  36:GFX.h         ****     uint16_t last;    ///< ASCII extents (last char)
  37:GFX.h         ****     uint8_t yAdvance; ///< Newline distance (y axis)
  38:GFX.h         **** } GFXfont;
  39:GFX.h         **** 
  40:GFX.h         **** // cFont
  41:GFX.h         **** class cFont
  42:GFX.h         **** {
  43:GFX.h         **** public:
  44:GFX.h         ****     // --------------------------------------------------------------------------
  45:GFX.h         ****     // Constructeur
  46:GFX.h         ****     cFont(const GFXfont *pFont);
  47:GFX.h         **** 
  48:GFX.h         ****     // --------------------------------------------------------------------------
  49:GFX.h         ****     // Lecture le la largueur du caratère c
  50:GFX.h         ****     uint8_t getCharWidth(char c)
  51:GFX.h         ****     {
  52:GFX.h         ****         return ((m_pFont->glyph) + (c - m_pFont->first))->xAdvance;
  53:GFX.h         ****     }
  54:GFX.h         **** 
  55:GFX.h         ****     // --------------------------------------------------------------------------
  56:GFX.h         ****     // Lecture le la largueur de la chaine de caratère.
  57:GFX.h         ****     uint16_t getTextWidth(const char *Text)
  58:GFX.h         ****     {
  59:GFX.h         ****         const char *pText = Text;
  60:GFX.h         ****         uint16_t result = 0;
  61:GFX.h         ****         while (*pText != '\0')
  62:GFX.h         ****         {
  63:GFX.h         ****             result += getCharWidth(*pText++);
  64:GFX.h         ****         }
  65:GFX.h         ****         return result;
  66:GFX.h         ****     }
  67:GFX.h         **** 
  68:GFX.h         ****     // --------------------------------------------------------------------------
  69:GFX.h         ****     // Lecture de la hauteur max de la font
  70:GFX.h         ****     inline uint8_t getHeight()
  71:GFX.h         ****     {
  72:GFX.h         ****         return m_NegHeight - m_PosHeight;
  73:GFX.h         ****     }
  74:GFX.h         **** 
  75:GFX.h         ****     // --------------------------------------------------------------------------
  76:GFX.h         ****     // Lecture de la hauteur max de la font au dessus la ligne du curseur
  77:GFX.h         ****     inline uint8_t getPosHeight()
  78:GFX.h         ****     {
  79:GFX.h         ****         return -m_PosHeight;
  80:GFX.h         ****     }
  81:GFX.h         **** 
  82:GFX.h         ****     // --------------------------------------------------------------------------
  83:GFX.h         ****     // Lecture de la hauteur max de la font sous la ligne du curseur
  84:GFX.h         ****     inline uint8_t getNegHeight()
  85:GFX.h         ****     {
  86:GFX.h         ****         return m_NegHeight;
  87:GFX.h         ****     }
  88:GFX.h         **** 
ARM GAS  C:\Users\pbant\AppData\Local\Temp\ccAmOMRv.s 			page 18


  89:GFX.h         ****     // --------------------------------------------------------------------------
  90:GFX.h         ****     // Lecture de l'adresse du descripteur de font
  91:GFX.h         ****     inline const GFXfont *getGFXfont() { return m_pFont; }
  92:GFX.h         **** 
  93:GFX.h         ****     // --------------------------------------------------------------------------
  94:GFX.h         ****     // Lecture de l'adresse de la table des decripteurs de caratères
  95:GFX.h         ****     inline const GFXglyph *getGFXglyph() { return m_pTable; }
  96:GFX.h         **** 
  97:GFX.h         ****     // --------------------------------------------------------------------------
  98:GFX.h         ****     // Lecture de l'adresse du descripteur du caratère c
  99:GFX.h         ****     inline const GFXglyph *getGFXglyph(char c)
 100:GFX.h         ****     {
 101:GFX.h         ****         return m_pTable + (c - m_pFont->first);
 102:GFX.h         ****     }
 103:GFX.h         **** 
 104:GFX.h         ****     // --------------------------------------------------------------------------
 105:GFX.h         ****     // Lecteur de l'adresse du bitmap représentant c
 106:GFX.h         ****     inline const uint8_t *getBitmap(char c)
 107:GFX.h         ****     {
 108:GFX.h         ****         return &m_pFont->bitmap[m_pTable[c - m_pFont->first].bitmapOffset];
 109:GFX.h         ****     }
 110:GFX.h         **** 
 111:GFX.h         ****     // --------------------------------------------------------------------------
 112:GFX.h         ****     // Données de la classe
 113:GFX.h         **** protected:
 114:GFX.h         ****     const GFXfont *m_pFont; // Descripteur de la font
 115:GFX.h         ****     GFXglyph *m_pTable;     // Table des descripteurs de caratères
 116:GFX.h         **** 
 117:GFX.h         ****     int8_t m_PosHeight; // Hauteur au dessus de la ligne du curseur
 118:GFX.h         ****     int8_t m_NegHeight; // Hauteur sous la ligne du curseur
 119:GFX.h         **** };
 120:GFX.h         **** 
 121:GFX.h         **** //***********************************************************************************
 122:GFX.h         **** // cGFX
 123:GFX.h         **** //   Bibliothèque Graphique
 124:GFX.h         **** class cGFX : protected cRBG_Frame
 125:GFX.h         **** {
 126:GFX.h         **** public:
 127:GFX.h         ****     // --------------------------------------------------------------------------
 128:GFX.h         ****     // Constructeur
 129:GFX.h         ****     cGFX() {}
 130:GFX.h         **** 
 131:GFX.h         ****     // --------------------------------------------------------------------------
 132:GFX.h         ****     // Initialisation de la classe
 133:GFX.h         ****     // Doit être appelée avant toute utilisation (aucune vérification réalisée) 
 134:GFX.h         ****     //   pFrameBuff pointe sur la mémoire de frame à instancier de préférence dans la SDRAM  
 135:GFX.h         ****     //   pFIFO_Data pointe sur la mémoire du FIFO DMA utilisé pour les transfers SPI 
 136:GFX.h         ****     //              doit etre obligatoirement instancié dans la SDRAM D1 (DMA_BUFFER_MEM_SECTION)
 137:GFX.h         ****     //   Width, Height taille de l'écran
 138:GFX.h         ****     //
 139:GFX.h         ****     void Init(RGB *pFrameBuff, FIFO_Data *pFIFO_Data, uint16_t Width, uint16_t Height)
 248              		.loc 8 139 10 view .LVU53
 249              	.LBB344:
 140:GFX.h         ****     {
 141:GFX.h         ****         setFrame(pFrameBuff, pFIFO_Data, Width, Height);
 250              		.loc 8 141 9 view .LVU54
 251              		.loc 8 141 17 is_stmt 0 view .LVU55
ARM GAS  C:\Users\pbant\AppData\Local\Temp\ccAmOMRv.s 			page 19


 252 0036 4FF4A070 		mov	r0, #320
 253 003a F023     		movs	r3, #240
 254 003c 624A     		ldr	r2, .L26+8
 255 003e 6349     		ldr	r1, .L26+12
 256              	.LBE344:
 257              	.LBE343:
  37:TestTFT.cpp   **** 	__Display.setRotation(Rotation::Degre_90);
  38:TestTFT.cpp   **** 
  39:TestTFT.cpp   **** 	uint8_t TabColorMax = 12;
  40:TestTFT.cpp   **** 	cColor TabColor[] = {
  41:TestTFT.cpp   **** 		cColor(255, 0, 0),
  42:TestTFT.cpp   **** 		cColor(0, 255, 0),
  43:TestTFT.cpp   **** 		cColor(0, 0, 255),
  44:TestTFT.cpp   **** 		cColor(52, 225, 235),
  45:TestTFT.cpp   **** 		cColor(52, 235, 171),
  46:TestTFT.cpp   **** 		cColor(95, 235, 52),
  47:TestTFT.cpp   **** 		cColor(232, 235, 52),
  48:TestTFT.cpp   **** 		cColor(235, 171, 52),
  49:TestTFT.cpp   **** 		cColor(235, 89, 52),
  50:TestTFT.cpp   **** 		cColor(235, 52, 95),
  51:TestTFT.cpp   **** 		cColor(217, 52, 235),
  52:TestTFT.cpp   **** 		cColor(52, 52, 235),
  53:TestTFT.cpp   **** 	};
  54:TestTFT.cpp   **** 
  55:TestTFT.cpp   **** 	uint16_t x = 110;
  56:TestTFT.cpp   **** 	uint16_t y = 140;
  57:TestTFT.cpp   **** 	__Display.drawR8G8B8Image(x, y, 100, 100, Pap_map);
 258              		.loc 6 57 27 view .LVU56
 259 0040 A046     		mov	r8, r4
 260              	.LBB347:
 261              	.LBB345:
 262              		.loc 8 141 17 view .LVU57
 263 0042 0090     		str	r0, [sp]
 264              	.LBE345:
 265              	.LBE347:
  58:TestTFT.cpp   **** 
  59:TestTFT.cpp   **** 	cColor Color(0,0,0);
  60:TestTFT.cpp   **** 	uint8_t CtColor = 0;
 266              		.loc 6 60 10 view .LVU58
 267 0044 5746     		mov	r7, r10
 268              	.LBB348:
 269              	.LBB346:
 270              		.loc 8 141 17 view .LVU59
 271 0046 6248     		ldr	r0, .L26+16
 272 0048 FFF7FEFF 		bl	_ZN10cRBG_Frame8setFrameEP3RGBP9FIFO_Datatt
 273              	.LVL10:
 274              		.loc 8 141 17 view .LVU60
 275              	.LBE346:
 276              	.LBE348:
  37:TestTFT.cpp   **** 	__Display.setRotation(Rotation::Degre_90);
 277              		.loc 6 37 2 is_stmt 1 view .LVU61
 278              	.LBB349:
 279              	.LBI349:
 142:GFX.h         ****     }
 143:GFX.h         ****     
 144:GFX.h         ****     // --------------------------------------------------------------------------
 145:GFX.h         ****     // Changer l'orientation de l'écran
ARM GAS  C:\Users\pbant\AppData\Local\Temp\ccAmOMRv.s 			page 20


 146:GFX.h         ****     void setRotation(Rotation r)
 280              		.loc 8 146 10 view .LVU62
 281              	.LBB350:
 147:GFX.h         ****     {
 148:GFX.h         ****         setFrameRotation(r);
 282              		.loc 8 148 9 view .LVU63
 283              		.loc 8 148 25 is_stmt 0 view .LVU64
 284 004c 0121     		movs	r1, #1
 285 004e 6048     		ldr	r0, .L26+16
 286 0050 FFF7FEFF 		bl	_ZN10cRBG_Frame16setFrameRotationE8Rotation
 287              	.LVL11:
 288              		.loc 8 148 25 view .LVU65
 289              	.LBE350:
 290              	.LBE349:
  39:TestTFT.cpp   **** 	cColor TabColor[] = {
 291              		.loc 6 39 2 is_stmt 1 view .LVU66
  40:TestTFT.cpp   **** 		cColor(255, 0, 0),
 292              		.loc 6 40 2 view .LVU67
 293              	.LBB351:
 294              	.LBI351:
 109:Frame.h       ****         m_R = R;
 295              		.loc 7 109 5 view .LVU68
 296              	.LBE351:
 110:Frame.h       ****         m_G = G;
 297              		.loc 7 110 9 view .LVU69
 298              		.loc 7 111 9 view .LVU70
 112:Frame.h       ****         m_B = B;
 299              		.loc 7 112 9 view .LVU71
 113:Frame.h       ****         m_Trans = Trans;
 300              		.loc 7 113 9 view .LVU72
 301              	.LBB352:
 302              	.LBI309:
 109:Frame.h       ****         m_R = R;
 303              		.loc 7 109 5 view .LVU73
 304              	.LBB316:
 305              	.LBB313:
 110:Frame.h       ****         m_G = G;
 306              		.loc 7 110 9 view .LVU74
 307              	.LBE313:
 308              	.LBE316:
 309              	.LBE352:
 310              	.LBB353:
 311              	.LBB354:
 312              	.LBB355:
 112:Frame.h       ****         m_Trans = Trans;
 313              		.loc 7 112 13 is_stmt 0 view .LVU75
 314 0054 AB23     		movs	r3, #171
 315              	.LBE355:
 316              	.LBE354:
 317              	.LBE353:
 318              	.LBB362:
 319              	.LBB363:
 320              	.LBB364:
 111:Frame.h       ****         m_B = B;
 321              		.loc 7 111 13 view .LVU76
 322 0056 E120     		movs	r0, #225
 110:Frame.h       ****         m_G = G;
ARM GAS  C:\Users\pbant\AppData\Local\Temp\ccAmOMRv.s 			page 21


 323              		.loc 7 110 13 view .LVU77
 324 0058 3422     		movs	r2, #52
 112:Frame.h       ****         m_Trans = Trans;
 325              		.loc 7 112 13 view .LVU78
 326 005a EB21     		movs	r1, #235
 327              	.LBE364:
 328              	.LBE363:
 329              	.LBE362:
 330              	.LBB371:
 331              	.LBB359:
 332              	.LBB356:
 333 005c 8DF83A30 		strb	r3, [sp, #58]
 334              	.LBE356:
 335              	.LBE359:
 336              	.LBE371:
 337              	.LBB372:
 338              	.LBB368:
 339              	.LBB365:
 111:Frame.h       ****         m_B = B;
 340              		.loc 7 111 13 view .LVU79
 341 0060 8DF83500 		strb	r0, [sp, #53]
 342              	.LBE365:
 343              	.LBE368:
 344              	.LBE372:
 345              	.LBB373:
 346              	.LBB374:
 347              	.LBB375:
 110:Frame.h       ****         m_G = G;
 348              		.loc 7 110 13 view .LVU80
 349 0064 5F20     		movs	r0, #95
 350              	.LBE375:
 351              	.LBE374:
 352              	.LBE373:
 353              	.LBB384:
 354              	.LBB385:
 355              	.LBB386:
 111:Frame.h       ****         m_B = B;
 356              		.loc 7 111 13 view .LVU81
 357 0066 8DF84530 		strb	r3, [sp, #69]
 358              	.LBE386:
 359              	.LBE385:
 360              	.LBE384:
 361              	.LBB393:
 362              	.LBB394:
 363              	.LBB395:
 364 006a 5923     		movs	r3, #89
 365              	.LBE395:
 366              	.LBE394:
 367              	.LBE393:
 368              	.LBB404:
 369              	.LBB369:
 370              	.LBB366:
 110:Frame.h       ****         m_G = G;
 371              		.loc 7 110 13 view .LVU82
 372 006c 8DF83420 		strb	r2, [sp, #52]
 112:Frame.h       ****         m_Trans = Trans;
 373              		.loc 7 112 13 view .LVU83
ARM GAS  C:\Users\pbant\AppData\Local\Temp\ccAmOMRv.s 			page 22


 374 0070 8DF83610 		strb	r1, [sp, #54]
 375              	.LBE366:
 376              	.LBE369:
 377              	.LBE404:
 378              	.LBB405:
 379              	.LBB360:
 380              	.LBB357:
 110:Frame.h       ****         m_G = G;
 381              		.loc 7 110 13 view .LVU84
 382 0074 8DF83820 		strb	r2, [sp, #56]
 111:Frame.h       ****         m_B = B;
 383              		.loc 7 111 13 view .LVU85
 384 0078 8DF83910 		strb	r1, [sp, #57]
 385              	.LBE357:
 386              	.LBE360:
 387              	.LBE405:
 388              	.LBB406:
 389              	.LBB380:
 390              	.LBB376:
 391 007c 8DF83D10 		strb	r1, [sp, #61]
 112:Frame.h       ****         m_Trans = Trans;
 392              		.loc 7 112 13 view .LVU86
 393 0080 8DF83E20 		strb	r2, [sp, #62]
 394              	.LBE376:
 395              	.LBE380:
 396              	.LBE406:
 397              	.LBB407:
 398              	.LBB326:
 399              	.LBB322:
 111:Frame.h       ****         m_B = B;
 400              		.loc 7 111 13 view .LVU87
 401 0084 8DF84110 		strb	r1, [sp, #65]
 112:Frame.h       ****         m_Trans = Trans;
 402              		.loc 7 112 13 view .LVU88
 403 0088 8DF84220 		strb	r2, [sp, #66]
 404              	.LBE322:
 405              	.LBE326:
 406              	.LBE407:
 407              	.LBB408:
 408              	.LBB390:
 409              	.LBB387:
 110:Frame.h       ****         m_G = G;
 410              		.loc 7 110 13 view .LVU89
 411 008c 8DF84410 		strb	r1, [sp, #68]
 112:Frame.h       ****         m_Trans = Trans;
 412              		.loc 7 112 13 view .LVU90
 413 0090 8DF84620 		strb	r2, [sp, #70]
 414              	.LBE387:
 415              	.LBE390:
 416              	.LBE408:
 417              	.LBB409:
 418              	.LBB400:
 419              	.LBB396:
 110:Frame.h       ****         m_G = G;
 420              		.loc 7 110 13 view .LVU91
 421 0094 8DF84810 		strb	r1, [sp, #72]
 111:Frame.h       ****         m_B = B;
ARM GAS  C:\Users\pbant\AppData\Local\Temp\ccAmOMRv.s 			page 23


 422              		.loc 7 111 13 view .LVU92
 423 0098 8DF84930 		strb	r3, [sp, #73]
 424              	.LBE396:
 425              	.LBE400:
 426              	.LBE409:
  57:TestTFT.cpp   **** 
 427              		.loc 6 57 27 view .LVU93
 428 009c 6423     		movs	r3, #100
 429              	.LBB410:
 430              	.LBB401:
 431              	.LBB397:
 112:Frame.h       ****         m_Trans = Trans;
 432              		.loc 7 112 13 view .LVU94
 433 009e 8DF84A20 		strb	r2, [sp, #74]
 434              	.LBE397:
 435              	.LBE401:
 436              	.LBE410:
 437              	.LBB411:
 438              	.LBB381:
 439              	.LBB377:
 110:Frame.h       ****         m_G = G;
 440              		.loc 7 110 13 view .LVU95
 441 00a2 8DF83C00 		strb	r0, [sp, #60]
 442 00a6 DFF82891 		ldr	r9, .L26+16
 443              	.LBE377:
 444              	.LBE381:
 445              	.LBE411:
 446              	.LBB412:
 447              	.LBB317:
 448              	.LBB314:
 449 00aa 8DF82CA0 		strb	r10, [sp, #44]
 111:Frame.h       ****         m_B = B;
 450              		.loc 7 111 9 is_stmt 1 view .LVU96
 111:Frame.h       ****         m_B = B;
 451              		.loc 7 111 13 is_stmt 0 view .LVU97
 452 00ae 8DF82D40 		strb	r4, [sp, #45]
 112:Frame.h       ****         m_Trans = Trans;
 453              		.loc 7 112 9 is_stmt 1 view .LVU98
 112:Frame.h       ****         m_Trans = Trans;
 454              		.loc 7 112 13 is_stmt 0 view .LVU99
 455 00b2 8DF82EA0 		strb	r10, [sp, #46]
 456              		.loc 7 113 9 is_stmt 1 view .LVU100
 457              		.loc 7 113 17 is_stmt 0 view .LVU101
 458 00b6 8DF82F40 		strb	r4, [sp, #47]
 459              	.LVL12:
 460              		.loc 7 113 17 view .LVU102
 461              	.LBE314:
 462              	.LBE317:
 463              	.LBE412:
 464              	.LBB413:
 465              	.LBI413:
 109:Frame.h       ****         m_R = R;
 466              		.loc 7 109 5 is_stmt 1 view .LVU103
 467              	.LBB414:
 468              	.LBB415:
 110:Frame.h       ****         m_G = G;
 469              		.loc 7 110 9 view .LVU104
ARM GAS  C:\Users\pbant\AppData\Local\Temp\ccAmOMRv.s 			page 24


 110:Frame.h       ****         m_G = G;
 470              		.loc 7 110 13 is_stmt 0 view .LVU105
 471 00ba 8DF830A0 		strb	r10, [sp, #48]
 111:Frame.h       ****         m_B = B;
 472              		.loc 7 111 9 is_stmt 1 view .LVU106
 111:Frame.h       ****         m_B = B;
 473              		.loc 7 111 13 is_stmt 0 view .LVU107
 474 00be 8DF831A0 		strb	r10, [sp, #49]
 112:Frame.h       ****         m_Trans = Trans;
 475              		.loc 7 112 9 is_stmt 1 view .LVU108
 112:Frame.h       ****         m_Trans = Trans;
 476              		.loc 7 112 13 is_stmt 0 view .LVU109
 477 00c2 8DF83240 		strb	r4, [sp, #50]
 478              		.loc 7 113 9 is_stmt 1 view .LVU110
 479              		.loc 7 113 17 is_stmt 0 view .LVU111
 480 00c6 8DF83340 		strb	r4, [sp, #51]
 481              	.LVL13:
 482              		.loc 7 113 17 view .LVU112
 483              	.LBE415:
 484              	.LBE414:
 485              	.LBE413:
 486              	.LBB416:
 487              	.LBI362:
 109:Frame.h       ****         m_R = R;
 488              		.loc 7 109 5 is_stmt 1 view .LVU113
 489              	.LBB370:
 490              	.LBB367:
 110:Frame.h       ****         m_G = G;
 491              		.loc 7 110 9 view .LVU114
 111:Frame.h       ****         m_B = B;
 492              		.loc 7 111 9 view .LVU115
 112:Frame.h       ****         m_Trans = Trans;
 493              		.loc 7 112 9 view .LVU116
 494              		.loc 7 113 9 view .LVU117
 495              		.loc 7 113 17 is_stmt 0 view .LVU118
 496 00ca 8DF83740 		strb	r4, [sp, #55]
 497              	.LVL14:
 498              		.loc 7 113 17 view .LVU119
 499              	.LBE367:
 500              	.LBE370:
 501              	.LBE416:
 502              	.LBB417:
 503              	.LBI353:
 109:Frame.h       ****         m_R = R;
 504              		.loc 7 109 5 is_stmt 1 view .LVU120
 505              	.LBB361:
 506              	.LBB358:
 110:Frame.h       ****         m_G = G;
 507              		.loc 7 110 9 view .LVU121
 111:Frame.h       ****         m_B = B;
 508              		.loc 7 111 9 view .LVU122
 112:Frame.h       ****         m_Trans = Trans;
 509              		.loc 7 112 9 view .LVU123
 510              		.loc 7 113 9 view .LVU124
 511              		.loc 7 113 17 is_stmt 0 view .LVU125
 512 00ce 8DF83B40 		strb	r4, [sp, #59]
 513              	.LVL15:
ARM GAS  C:\Users\pbant\AppData\Local\Temp\ccAmOMRv.s 			page 25


 514              		.loc 7 113 17 view .LVU126
 515              	.LBE358:
 516              	.LBE361:
 517              	.LBE417:
 518              	.LBB418:
 519              	.LBI373:
 109:Frame.h       ****         m_R = R;
 520              		.loc 7 109 5 is_stmt 1 view .LVU127
 521              	.LBB382:
 522              	.LBB378:
 110:Frame.h       ****         m_G = G;
 523              		.loc 7 110 9 view .LVU128
 111:Frame.h       ****         m_B = B;
 524              		.loc 7 111 9 view .LVU129
 112:Frame.h       ****         m_Trans = Trans;
 525              		.loc 7 112 9 view .LVU130
 526              		.loc 7 113 9 view .LVU131
 527              		.loc 7 113 9 is_stmt 0 view .LVU132
 528              	.LBE378:
 529              	.LBE382:
 530              	.LBE418:
 531              	.LBB419:
 532              	.LBI319:
 109:Frame.h       ****         m_R = R;
 533              		.loc 7 109 5 is_stmt 1 view .LVU133
 534              	.LBB327:
 535              	.LBB323:
 110:Frame.h       ****         m_G = G;
 536              		.loc 7 110 9 view .LVU134
 537              	.LBE323:
 538              	.LBE327:
 539              	.LBE419:
 540              	.LBB420:
 541              	.LBB383:
 542              	.LBB379:
 543              		.loc 7 113 17 is_stmt 0 view .LVU135
 544 00d2 8DF83F40 		strb	r4, [sp, #63]
 545              	.LBE379:
 546              	.LBE383:
 547              	.LBE420:
 548              	.LBB421:
 549              	.LBB328:
 550              	.LBB324:
 551 00d6 8DF84340 		strb	r4, [sp, #67]
 552              	.LBE324:
 553              	.LBE328:
 554              	.LBE421:
 555              	.LBB422:
 556              	.LBB391:
 557              	.LBB388:
 558 00da 8DF84740 		strb	r4, [sp, #71]
 559              	.LBE388:
 560              	.LBE391:
 561              	.LBE422:
 562              	.LBB423:
 563              	.LBB402:
 564              	.LBB398:
ARM GAS  C:\Users\pbant\AppData\Local\Temp\ccAmOMRv.s 			page 26


 565 00de 8DF84B40 		strb	r4, [sp, #75]
 566              	.LBE398:
 567              	.LBE402:
 568              	.LBE423:
 569              	.LBB424:
 570              	.LBB329:
 571              	.LBB325:
 110:Frame.h       ****         m_G = G;
 572              		.loc 7 110 13 view .LVU136
 573 00e2 8DF84060 		strb	r6, [sp, #64]
 111:Frame.h       ****         m_B = B;
 574              		.loc 7 111 9 is_stmt 1 view .LVU137
 112:Frame.h       ****         m_Trans = Trans;
 575              		.loc 7 112 9 view .LVU138
 576              		.loc 7 113 9 view .LVU139
 577              	.LVL16:
 578              		.loc 7 113 9 is_stmt 0 view .LVU140
 579              	.LBE325:
 580              	.LBE329:
 581              	.LBE424:
 582              	.LBB425:
 583              	.LBI384:
 109:Frame.h       ****         m_R = R;
 584              		.loc 7 109 5 is_stmt 1 view .LVU141
 585              	.LBB392:
 586              	.LBB389:
 110:Frame.h       ****         m_G = G;
 587              		.loc 7 110 9 view .LVU142
 111:Frame.h       ****         m_B = B;
 588              		.loc 7 111 9 view .LVU143
 112:Frame.h       ****         m_Trans = Trans;
 589              		.loc 7 112 9 view .LVU144
 590              		.loc 7 113 9 view .LVU145
 591              		.loc 7 113 9 is_stmt 0 view .LVU146
 592              	.LBE389:
 593              	.LBE392:
 594              	.LBE425:
 595              	.LBB426:
 596              	.LBI393:
 109:Frame.h       ****         m_R = R;
 597              		.loc 7 109 5 is_stmt 1 view .LVU147
 598              	.LBB403:
 599              	.LBB399:
 110:Frame.h       ****         m_G = G;
 600              		.loc 7 110 9 view .LVU148
 111:Frame.h       ****         m_B = B;
 601              		.loc 7 111 9 view .LVU149
 112:Frame.h       ****         m_Trans = Trans;
 602              		.loc 7 112 9 view .LVU150
 603              		.loc 7 113 9 view .LVU151
 604              		.loc 7 113 9 is_stmt 0 view .LVU152
 605              	.LBE399:
 606              	.LBE403:
 607              	.LBE426:
 608              	.LBB427:
 609              	.LBI427:
 109:Frame.h       ****         m_R = R;
ARM GAS  C:\Users\pbant\AppData\Local\Temp\ccAmOMRv.s 			page 27


 610              		.loc 7 109 5 is_stmt 1 view .LVU153
 611              	.LBB428:
 612              	.LBB429:
 110:Frame.h       ****         m_G = G;
 613              		.loc 7 110 9 view .LVU154
 110:Frame.h       ****         m_G = G;
 614              		.loc 7 110 13 is_stmt 0 view .LVU155
 615 00e6 8DF84C10 		strb	r1, [sp, #76]
 111:Frame.h       ****         m_B = B;
 616              		.loc 7 111 9 is_stmt 1 view .LVU156
 111:Frame.h       ****         m_B = B;
 617              		.loc 7 111 13 is_stmt 0 view .LVU157
 618 00ea 8DF84D20 		strb	r2, [sp, #77]
 112:Frame.h       ****         m_Trans = Trans;
 619              		.loc 7 112 9 is_stmt 1 view .LVU158
 620              		.loc 7 113 9 view .LVU159
 621              	.LBE429:
 622              	.LBE428:
 623              	.LBE427:
 624              	.LBB434:
 625              	.LBB337:
 626              	.LBB333:
 111:Frame.h       ****         m_B = B;
 627              		.loc 7 111 13 is_stmt 0 view .LVU160
 628 00ee 8DF85120 		strb	r2, [sp, #81]
 629              	.LBE333:
 630              	.LBE337:
 631              	.LBE434:
 632              	.LBB435:
 633              	.LBB436:
 634              	.LBB437:
 110:Frame.h       ****         m_G = G;
 635              		.loc 7 110 13 view .LVU161
 636 00f2 8DF85420 		strb	r2, [sp, #84]
 111:Frame.h       ****         m_B = B;
 637              		.loc 7 111 13 view .LVU162
 638 00f6 8DF85520 		strb	r2, [sp, #85]
 639              	.LBE437:
 640              	.LBE436:
 641              	.LBE435:
  57:TestTFT.cpp   **** 
 642              		.loc 6 57 27 view .LVU163
 643 00fa 364A     		ldr	r2, .L26+20
 644              	.LBB442:
 645              	.LBB432:
 646              	.LBB430:
 112:Frame.h       ****         m_Trans = Trans;
 647              		.loc 7 112 13 view .LVU164
 648 00fc 8DF84E00 		strb	r0, [sp, #78]
 649              	.LBE430:
 650              	.LBE432:
 651              	.LBE442:
  57:TestTFT.cpp   **** 
 652              		.loc 6 57 27 view .LVU165
 653 0100 4846     		mov	r0, r9
 654              	.LBB443:
 655              	.LBB338:
ARM GAS  C:\Users\pbant\AppData\Local\Temp\ccAmOMRv.s 			page 28


 656              	.LBB334:
 112:Frame.h       ****         m_Trans = Trans;
 657              		.loc 7 112 13 view .LVU166
 658 0102 8DF85210 		strb	r1, [sp, #82]
 659              	.LBE334:
 660              	.LBE338:
 661              	.LBE443:
 662              	.LBB444:
 663              	.LBB440:
 664              	.LBB438:
 665 0106 8DF85610 		strb	r1, [sp, #86]
 666              	.LBE438:
 667              	.LBE440:
 668              	.LBE444:
  57:TestTFT.cpp   **** 
 669              		.loc 6 57 27 view .LVU167
 670 010a 6E21     		movs	r1, #110
 671 010c 0192     		str	r2, [sp, #4]
 672 010e 8C22     		movs	r2, #140
 673 0110 0093     		str	r3, [sp]
 674 0112 DFF8CCB0 		ldr	fp, .L26+32
 675              	.LBB445:
 676              	.LBB339:
 677              	.LBB335:
 110:Frame.h       ****         m_G = G;
 678              		.loc 7 110 13 view .LVU168
 679 0116 8DF85050 		strb	r5, [sp, #80]
 680              	.LBE335:
 681              	.LBE339:
 682              	.LBE445:
 683              	.LBB446:
 684              	.LBB433:
 685              	.LBB431:
 686              		.loc 7 113 17 view .LVU169
 687 011a 8DF84F40 		strb	r4, [sp, #79]
 688              	.LVL17:
 689              		.loc 7 113 17 view .LVU170
 690              	.LBE431:
 691              	.LBE433:
 692              	.LBE446:
 693              	.LBB447:
 694              	.LBI330:
 109:Frame.h       ****         m_R = R;
 695              		.loc 7 109 5 is_stmt 1 view .LVU171
 696              	.LBB340:
 697              	.LBB336:
 110:Frame.h       ****         m_G = G;
 698              		.loc 7 110 9 view .LVU172
 111:Frame.h       ****         m_B = B;
 699              		.loc 7 111 9 view .LVU173
 112:Frame.h       ****         m_Trans = Trans;
 700              		.loc 7 112 9 view .LVU174
 701              		.loc 7 113 9 view .LVU175
 702              		.loc 7 113 17 is_stmt 0 view .LVU176
 703 011e 8DF85340 		strb	r4, [sp, #83]
 704              	.LVL18:
 705              		.loc 7 113 17 view .LVU177
ARM GAS  C:\Users\pbant\AppData\Local\Temp\ccAmOMRv.s 			page 29


 706              	.LBE336:
 707              	.LBE340:
 708              	.LBE447:
 709              	.LBB448:
 710              	.LBI435:
 109:Frame.h       ****         m_R = R;
 711              		.loc 7 109 5 is_stmt 1 view .LVU178
 712              	.LBB441:
 713              	.LBB439:
 110:Frame.h       ****         m_G = G;
 714              		.loc 7 110 9 view .LVU179
 111:Frame.h       ****         m_B = B;
 715              		.loc 7 111 9 view .LVU180
 112:Frame.h       ****         m_Trans = Trans;
 716              		.loc 7 112 9 view .LVU181
 717              		.loc 7 113 9 view .LVU182
 718              		.loc 7 113 17 is_stmt 0 view .LVU183
 719 0122 8DF85740 		strb	r4, [sp, #87]
 720              	.LVL19:
 721              		.loc 7 113 17 view .LVU184
 722              	.LBE439:
 723              	.LBE441:
 724              	.LBE448:
  55:TestTFT.cpp   **** 	uint16_t y = 140;
 725              		.loc 6 55 2 is_stmt 1 view .LVU185
  56:TestTFT.cpp   **** 	__Display.drawR8G8B8Image(x, y, 100, 100, Pap_map);
 726              		.loc 6 56 2 view .LVU186
  57:TestTFT.cpp   **** 
 727              		.loc 6 57 2 view .LVU187
  57:TestTFT.cpp   **** 
 728              		.loc 6 57 27 is_stmt 0 view .LVU188
 729 0126 CDE9024A 		strd	r4, r10, [sp, #8]
 730 012a FFF7FEFF 		bl	_ZN4cGFX15drawR8G8B8ImageEttttPKh
 731              	.LVL20:
  59:TestTFT.cpp   **** 	uint8_t CtColor = 0;
 732              		.loc 6 59 2 is_stmt 1 view .LVU189
 733              	.LBB449:
 734              	.LBI449:
 109:Frame.h       ****         m_R = R;
 735              		.loc 7 109 5 view .LVU190
 736              	.LBE449:
 110:Frame.h       ****         m_G = G;
 737              		.loc 7 110 9 view .LVU191
 111:Frame.h       ****         m_B = B;
 738              		.loc 7 111 9 view .LVU192
 112:Frame.h       ****         m_Trans = Trans;
 739              		.loc 7 112 9 view .LVU193
 740              		.loc 7 113 9 view .LVU194
 741              		.loc 6 60 2 view .LVU195
 742              	.L20:
  61:TestTFT.cpp   **** 	
  62:TestTFT.cpp   **** 	while(1) {
 743              		.loc 6 62 2 view .LVU196
 744              	.LBB450:
  63:TestTFT.cpp   **** 		x = 30;
 745              		.loc 6 63 3 view .LVU197
  64:TestTFT.cpp   **** 		y = 50;
ARM GAS  C:\Users\pbant\AppData\Local\Temp\ccAmOMRv.s 			page 30


 746              		.loc 6 64 3 view .LVU198
  65:TestTFT.cpp   **** 
  66:TestTFT.cpp   **** 		Color = TabColor[CtColor];
 747              		.loc 6 66 3 view .LVU199
  67:TestTFT.cpp   **** 		__Display.setCursor(x, y);
 748              		.loc 6 67 3 view .LVU200
 749              	.LBB451:
 750              	.LBI451:
 149:GFX.h         ****     }
 150:GFX.h         ****     
 151:GFX.h         ****     // --------------------------------------------------------------------------
 152:GFX.h         ****     // Transmette les modifications de la frame à l'écran
 153:GFX.h         ****     inline void FlushFrame() { cRBG_Frame::FlushFrame();}
 154:GFX.h         **** 
 155:GFX.h         ****     // ==========================================================================
 156:GFX.h         ****     // Dessiner des formes
 157:GFX.h         ****     // ==========================================================================
 158:GFX.h         ****     // Tracer un rectange vide 
 159:GFX.h         ****     void drawRect(uint16_t x, uint16_t y, int16_t dx, int16_t dy, cColor Color);
 160:GFX.h         ****     // Tracer un rectangle plein
 161:GFX.h         ****     void drawFillRect(uint16_t x, uint16_t y, int16_t dx, int16_t dy, cColor Color);
 162:GFX.h         ****     // Trace une ligne
 163:GFX.h         ****     void drawLine(uint16_t x, uint16_t y, uint16_t dx, uint16_t dy, cColor Color);
 164:GFX.h         ****     // Tracer un cercle vide
 165:GFX.h         ****     void drawCircle(uint16_t centerX, uint16_t centerY, uint16_t radius, cColor Color);
 166:GFX.h         ****     // Tracer un cercle plein
 167:GFX.h         ****     void drawFillCircle(uint16_t centerX, uint16_t centerY, uint16_t radius, cColor Color);
 168:GFX.h         ****     // Tracer une image 8bits par couleurs
 169:GFX.h         ****     void drawR8G8B8Image(uint16_t x, uint16_t y, uint16_t dx, uint16_t dy, const uint8_t *pImg);
 170:GFX.h         **** 
 171:GFX.h         ****     // ==========================================================================
 172:GFX.h         ****     // Dessiner du texte
 173:GFX.h         ****     // ==========================================================================
 174:GFX.h         ****     // Positionnement du cuseur
 175:GFX.h         ****     inline void setCursor(uint16_t x, uint16_t y){
 751              		.loc 8 175 17 view .LVU201
 752              	.LBB452:
 176:GFX.h         ****         m_xCursor = x;
 753              		.loc 8 176 9 view .LVU202
 177:GFX.h         ****         m_yCursor = y;
 754              		.loc 8 177 9 view .LVU203
 176:GFX.h         ****         m_xCursor = x;
 755              		.loc 8 176 19 is_stmt 0 view .LVU204
 756 012e 2A4C     		ldr	r4, .L26+24
 757              	.LBE452:
 758              	.LBE451:
 759              	.LBB453:
 760              	.LBB454:
 178:GFX.h         ****     };
 179:GFX.h         ****     
 180:GFX.h         ****     // Configuration de la fonte
 181:GFX.h         ****     inline void setFont(cFont *pFont){ m_pFont = pFont; };
 182:GFX.h         **** 
 183:GFX.h         ****     // Configuration de la couleur du texte
 184:GFX.h         ****     inline void setTextFrontColor(cColor Color) { m_TextFrontColor = Color;}
 185:GFX.h         ****     
 186:GFX.h         ****     // Configuration de la couleur de l'arrière plan du texte
ARM GAS  C:\Users\pbant\AppData\Local\Temp\ccAmOMRv.s 			page 31


 187:GFX.h         ****     inline void setTextBackColor(cColor Color) { m_TextBackColor = Color; }
 761              		.loc 8 187 66 view .LVU205
 762 0130 4FF07F43 		mov	r3, #-16777216
 763              	.LBE454:
 764              	.LBE453:
  68:TestTFT.cpp   **** 		__Display.setFont(&Vanilla20);
  69:TestTFT.cpp   **** 
  70:TestTFT.cpp   **** 		__Display.setTextFrontColor(Color);
  71:TestTFT.cpp   **** 		__Display.setTextBackColor(cColor(0,0,0));
  72:TestTFT.cpp   **** 		__Display.drawTransText("Bonjour !");
 765              		.loc 6 72 26 view .LVU206
 766 0134 2949     		ldr	r1, .L26+28
 767 0136 0022     		movs	r2, #0
 768 0138 2548     		ldr	r0, .L26+16
 769 013a 4E1C     		adds	r6, r1, #1
 770              	.LBB457:
 771              	.LBB455:
 772              		.loc 8 187 66 view .LVU207
 773 013c C9F8E430 		str	r3, [r9, #228]
 774              	.LBE455:
 775              	.LBE457:
 776              	.LBB458:
 777              	.LBB459:
 184:GFX.h         ****     
 778              		.loc 8 184 68 view .LVU208
 779 0140 89F8E2A0 		strb	r10, [r9, #226]
 780 0144 89F8E380 		strb	r8, [r9, #227]
 781              	.LBE459:
 782              	.LBE458:
 783              	.LBB462:
 784              	.LBB463:
 181:GFX.h         **** 
 785              		.loc 8 181 48 view .LVU209
 786 0148 C9E9364B 		strd	r4, fp, [r9, #216]
 787              	.LBE463:
 788              	.LBE462:
  70:TestTFT.cpp   **** 		__Display.setTextBackColor(cColor(0,0,0));
 789              		.loc 6 70 3 is_stmt 1 view .LVU210
 790              	.LVL21:
 791              	.LBB464:
 792              	.LBI458:
 184:GFX.h         ****     
 793              		.loc 8 184 17 view .LVU211
 794              	.LBB460:
 184:GFX.h         ****     
 795              		.loc 8 184 51 view .LVU212
 184:GFX.h         ****     
 796              		.loc 8 184 51 is_stmt 0 view .LVU213
 797              	.LBE460:
 798              	.LBE464:
  71:TestTFT.cpp   **** 		__Display.drawTransText("Bonjour !");
 799              		.loc 6 71 3 is_stmt 1 view .LVU214
 800              	.LBB465:
 801              	.LBI465:
 109:Frame.h       ****         m_R = R;
 802              		.loc 7 109 5 view .LVU215
 803              	.LBE465:
ARM GAS  C:\Users\pbant\AppData\Local\Temp\ccAmOMRv.s 			page 32


 804              	.LBE450:
 110:Frame.h       ****         m_G = G;
 805              		.loc 7 110 9 view .LVU216
 111:Frame.h       ****         m_B = B;
 806              		.loc 7 111 9 view .LVU217
 112:Frame.h       ****         m_Trans = Trans;
 807              		.loc 7 112 9 view .LVU218
 808              		.loc 7 113 9 view .LVU219
 809              	.LBB537:
 810              	.LBB466:
 811              	.LBI453:
 812              		.loc 8 187 17 view .LVU220
 813              	.LBB456:
 814              		.loc 8 187 50 view .LVU221
 815              		.loc 8 187 50 is_stmt 0 view .LVU222
 816              	.LBE456:
 817              	.LBE466:
 818              		.loc 6 72 3 is_stmt 1 view .LVU223
 819              	.LBB467:
 820              	.LBB461:
 184:GFX.h         ****     
 821              		.loc 8 184 68 is_stmt 0 view .LVU224
 822 014c 029C     		ldr	r4, [sp, #8]
 823 014e 89F8E040 		strb	r4, [r9, #224]
 824 0152 039C     		ldr	r4, [sp, #12]
 825 0154 89F8E140 		strb	r4, [r9, #225]
 826              	.LBE461:
 827              	.LBE467:
 828              		.loc 6 72 26 view .LVU225
 829 0158 FFF7FEFF 		bl	_ZN4cGFX13drawTransTextEPKcb
 830              	.LVL22:
  73:TestTFT.cpp   **** 		__Display.drawLine(x,y+1, x+Vanilla20.getTextWidth("Bonjour !"), y+1, Color);	
 831              		.loc 6 73 3 is_stmt 1 view .LVU226
 832              	.LBB468:
 833              	.LBI468:
  57:GFX.h         ****     {
 834              		.loc 8 57 14 view .LVU227
 835              	.LBB469:
  59:GFX.h         ****         uint16_t result = 0;
 836              		.loc 8 59 9 view .LVU228
  60:GFX.h         ****         while (*pText != '\0')
 837              		.loc 8 60 9 view .LVU229
  61:GFX.h         ****         {
 838              		.loc 8 61 9 view .LVU230
  61:GFX.h         ****         {
 839              		.loc 8 61 23 view .LVU231
 840              	.LBB470:
 841              	.LBB471:
  52:GFX.h         ****     }
 842              		.loc 8 52 18 is_stmt 0 view .LVU232
 843 015c DBF80030 		ldr	r3, [fp]
  52:GFX.h         ****     }
 844              		.loc 8 52 50 view .LVU233
 845 0160 3146     		mov	r1, r6
 846 0162 6F24     		movs	r4, #111
 847              	.LBE471:
 848              	.LBE470:
ARM GAS  C:\Users\pbant\AppData\Local\Temp\ccAmOMRv.s 			page 33


  61:GFX.h         ****         {
 849              		.loc 8 61 16 view .LVU234
 850 0164 4222     		movs	r2, #66
 851              	.LBB475:
 852              	.LBB472:
  52:GFX.h         ****     }
 853              		.loc 8 52 27 view .LVU235
 854 0166 5D68     		ldr	r5, [r3, #4]
  52:GFX.h         ****     }
 855              		.loc 8 52 50 view .LVU236
 856 0168 1889     		ldrh	r0, [r3, #8]
 857              	.LBE472:
 858              	.LBE475:
  60:GFX.h         ****         while (*pText != '\0')
 859              		.loc 8 60 18 view .LVU237
 860 016a 0023     		movs	r3, #0
 861 016c 01E0     		b	.L16
 862              	.LVL23:
 863              	.L23:
  61:GFX.h         ****         {
 864              		.loc 8 61 16 view .LVU238
 865 016e 11F8014F 		ldrb	r4, [r1, #1]!	@ zero_extendqisi2
 866              	.LVL24:
 867              	.L16:
  63:GFX.h         ****         }
 868              		.loc 8 63 13 is_stmt 1 view .LVU239
 869              	.LBB476:
 870              	.LBI470:
  50:GFX.h         ****     {
 871              		.loc 8 50 13 view .LVU240
 872              	.LBB473:
  52:GFX.h         ****     }
 873              		.loc 8 52 9 view .LVU241
  52:GFX.h         ****     }
 874              		.loc 8 52 39 is_stmt 0 view .LVU242
 875 0172 A2EB000C 		sub	ip, r2, r0
 876              	.LBE473:
 877              	.LBE476:
  61:GFX.h         ****         {
 878              		.loc 8 61 16 view .LVU243
 879 0176 2246     		mov	r2, r4
 880              	.LBB477:
 881              	.LBB474:
  52:GFX.h         ****     }
 882              		.loc 8 52 59 view .LVU244
 883 0178 05EBCC0C 		add	ip, r5, ip, lsl #3
 884              	.LBE474:
 885              	.LBE477:
  63:GFX.h         ****         }
 886              		.loc 8 63 20 view .LVU245
 887 017c 9CF804C0 		ldrb	ip, [ip, #4]	@ zero_extendqisi2
 888 0180 6344     		add	r3, r3, ip
 889              	.LVL25:
  63:GFX.h         ****         }
 890              		.loc 8 63 20 view .LVU246
 891 0182 9BB2     		uxth	r3, r3
 892              	.LVL26:
ARM GAS  C:\Users\pbant\AppData\Local\Temp\ccAmOMRv.s 			page 34


  61:GFX.h         ****         {
 893              		.loc 8 61 9 is_stmt 1 view .LVU247
  61:GFX.h         ****         {
 894              		.loc 8 61 23 view .LVU248
  61:GFX.h         ****         {
 895              		.loc 8 61 23 is_stmt 0 view .LVU249
 896 0184 002C     		cmp	r4, #0
 897 0186 F2D1     		bne	.L23
  65:GFX.h         ****     }
 898              		.loc 8 65 9 is_stmt 1 view .LVU250
 899              	.LVL27:
  65:GFX.h         ****     }
 900              		.loc 8 65 9 is_stmt 0 view .LVU251
 901              	.LBE469:
 902              	.LBE468:
 903              		.loc 6 73 21 view .LVU252
 904 0188 029A     		ldr	r2, [sp, #8]
 905 018a 1E33     		adds	r3, r3, #30
 906 018c 8DF812A0 		strb	r10, [sp, #18]
 907 0190 1E21     		movs	r1, #30
 908 0192 8DF81020 		strb	r2, [sp, #16]
 909 0196 9BB2     		uxth	r3, r3
 910 0198 039A     		ldr	r2, [sp, #12]
 911 019a 8DF81380 		strb	r8, [sp, #19]
 912 019e 8DF81120 		strb	r2, [sp, #17]
 913 01a2 3322     		movs	r2, #51
 914 01a4 049D     		ldr	r5, [sp, #16]
 915 01a6 0A48     		ldr	r0, .L26+16
 916 01a8 CDE90025 		strd	r2, r5, [sp]
 917              	.LVL28:
 918              		.loc 6 73 21 view .LVU253
 919 01ac FFF7FEFF 		bl	_ZN4cGFX8drawLineEtttt6cColor
 920              	.LVL29:
  74:TestTFT.cpp   **** 		__Display.drawLine(x,y+2, x+Vanilla20.getTextWidth("Bonjour !"), y+2, Color);	
 921              		.loc 6 74 3 is_stmt 1 view .LVU254
 922              	.LBB478:
 923              	.LBI478:
  57:GFX.h         ****     {
 924              		.loc 8 57 14 view .LVU255
 925              	.LBB479:
  61:GFX.h         ****         {
 926              		.loc 8 61 9 view .LVU256
  61:GFX.h         ****         {
 927              		.loc 8 61 23 view .LVU257
 928              	.LBB480:
 929              	.LBB481:
  52:GFX.h         ****     }
 930              		.loc 8 52 18 is_stmt 0 view .LVU258
 931 01b0 DBF80030 		ldr	r3, [fp]
  52:GFX.h         ****     }
 932              		.loc 8 52 50 view .LVU259
 933 01b4 6F25     		movs	r5, #111
 934              	.LBE481:
 935              	.LBE480:
  61:GFX.h         ****         {
 936              		.loc 8 61 16 view .LVU260
 937 01b6 4222     		movs	r2, #66
ARM GAS  C:\Users\pbant\AppData\Local\Temp\ccAmOMRv.s 			page 35


 938              	.LBB485:
 939              	.LBB482:
  52:GFX.h         ****     }
 940              		.loc 8 52 27 view .LVU261
 941 01b8 5868     		ldr	r0, [r3, #4]
  52:GFX.h         ****     }
 942              		.loc 8 52 50 view .LVU262
 943 01ba 1989     		ldrh	r1, [r3, #8]
 944 01bc 14E0     		b	.L18
 945              	.L27:
 946 01be 00BF     		.align	2
 947              	.L26:
 948 01c0 00000000 		.word	.LANCHOR0
 949 01c4 00000000 		.word	_Z13AudioCallbackPKPKfPPfj
 950 01c8 00000000 		.word	__Fifo
 951 01cc 00000000 		.word	__FrameBuff
 952 01d0 00000000 		.word	.LANCHOR1
 953 01d4 00000000 		.word	_ZL7Pap_map
 954 01d8 1E003200 		.word	3276830
 955 01dc 00000000 		.word	.LC0
 956 01e0 00000000 		.word	.LANCHOR2
 957              	.LVL30:
 958              	.L24:
  52:GFX.h         ****     }
 959              		.loc 8 52 50 view .LVU263
 960              	.LBE482:
 961              	.LBE485:
  61:GFX.h         ****         {
 962              		.loc 8 61 16 view .LVU264
 963 01e4 16F8015F 		ldrb	r5, [r6, #1]!	@ zero_extendqisi2
 964              	.LVL31:
 965              	.L18:
  63:GFX.h         ****         }
 966              		.loc 8 63 13 is_stmt 1 view .LVU265
 967              	.LBB486:
 968              	.LBI480:
  50:GFX.h         ****     {
 969              		.loc 8 50 13 view .LVU266
 970              	.LBB483:
  52:GFX.h         ****     }
 971              		.loc 8 52 9 view .LVU267
  52:GFX.h         ****     }
 972              		.loc 8 52 39 is_stmt 0 view .LVU268
 973 01e8 531A     		subs	r3, r2, r1
 974              	.LBE483:
 975              	.LBE486:
  61:GFX.h         ****         {
 976              		.loc 8 61 16 view .LVU269
 977 01ea 2A46     		mov	r2, r5
 978              	.LBB487:
 979              	.LBB484:
  52:GFX.h         ****     }
 980              		.loc 8 52 59 view .LVU270
 981 01ec 00EBC303 		add	r3, r0, r3, lsl #3
 982              	.LBE484:
 983              	.LBE487:
  63:GFX.h         ****         }
ARM GAS  C:\Users\pbant\AppData\Local\Temp\ccAmOMRv.s 			page 36


 984              		.loc 8 63 20 view .LVU271
 985 01f0 1B79     		ldrb	r3, [r3, #4]	@ zero_extendqisi2
 986 01f2 1C44     		add	r4, r4, r3
 987              	.LVL32:
  63:GFX.h         ****         }
 988              		.loc 8 63 20 view .LVU272
 989 01f4 A4B2     		uxth	r4, r4
 990              	.LVL33:
  61:GFX.h         ****         {
 991              		.loc 8 61 9 is_stmt 1 view .LVU273
  61:GFX.h         ****         {
 992              		.loc 8 61 23 view .LVU274
  61:GFX.h         ****         {
 993              		.loc 8 61 23 is_stmt 0 view .LVU275
 994 01f6 002D     		cmp	r5, #0
 995 01f8 F4D1     		bne	.L24
  65:GFX.h         ****     }
 996              		.loc 8 65 9 is_stmt 1 view .LVU276
 997              	.LVL34:
  65:GFX.h         ****     }
 998              		.loc 8 65 9 is_stmt 0 view .LVU277
 999              	.LBE479:
 1000              	.LBE478:
 1001              		.loc 6 74 21 view .LVU278
 1002 01fa 049E     		ldr	r6, [sp, #16]
 1003 01fc 3422     		movs	r2, #52
 1004 01fe 1E34     		adds	r4, r4, #30
 1005 0200 1E21     		movs	r1, #30
 1006 0202 6B48     		ldr	r0, .L28
  75:TestTFT.cpp   **** 		
  76:TestTFT.cpp   **** 		y = y + 20;
  77:TestTFT.cpp   **** 		uint16_t dx = 50;
  78:TestTFT.cpp   **** 		uint16_t dy = 60;
  79:TestTFT.cpp   **** 
  80:TestTFT.cpp   **** 		__Display.drawRect(x, y, dx, dy, Color);
 1007              		.loc 6 80 21 view .LVU279
 1008 0204 4FF03C0A 		mov	r10, #60
  74:TestTFT.cpp   **** 		
 1009              		.loc 6 74 21 view .LVU280
 1010 0208 A3B2     		uxth	r3, r4
 1011 020a CDE90026 		strd	r2, r6, [sp]
 1012 020e FFF7FEFF 		bl	_ZN4cGFX8drawLineEtttt6cColor
 1013              	.LVL35:
  76:TestTFT.cpp   **** 		uint16_t dx = 50;
 1014              		.loc 6 76 3 is_stmt 1 view .LVU281
  77:TestTFT.cpp   **** 		uint16_t dy = 60;
 1015              		.loc 6 77 3 view .LVU282
  78:TestTFT.cpp   **** 
 1016              		.loc 6 78 3 view .LVU283
 1017              		.loc 6 80 3 view .LVU284
 1018              		.loc 6 80 21 is_stmt 0 view .LVU285
 1019 0212 049C     		ldr	r4, [sp, #16]
 1020 0214 3223     		movs	r3, #50
 1021 0216 4622     		movs	r2, #70
 1022 0218 1E21     		movs	r1, #30
 1023 021a 6548     		ldr	r0, .L28
 1024 021c CDE900A4 		strd	r10, r4, [sp]
ARM GAS  C:\Users\pbant\AppData\Local\Temp\ccAmOMRv.s 			page 37


 1025 0220 FFF7FEFF 		bl	_ZN4cGFX8drawRectEttss6cColor
 1026              	.LVL36:
  81:TestTFT.cpp   **** 		__Display.drawLine(x, y, x+dx, y+dy, Color);
 1027              		.loc 6 81 3 is_stmt 1 view .LVU286
 1028              		.loc 6 81 21 is_stmt 0 view .LVU287
 1029 0224 8224     		movs	r4, #130
 1030 0226 049E     		ldr	r6, [sp, #16]
 1031 0228 4622     		movs	r2, #70
 1032 022a 5023     		movs	r3, #80
 1033 022c 1E21     		movs	r1, #30
 1034 022e 6048     		ldr	r0, .L28
  82:TestTFT.cpp   **** 		__Display.drawLine(x, y+dy, x+dx, y, Color);
 1035              		.loc 6 82 21 view .LVU288
 1036 0230 9046     		mov	r8, r2
  81:TestTFT.cpp   **** 		__Display.drawLine(x, y, x+dx, y+dy, Color);
 1037              		.loc 6 81 21 view .LVU289
 1038 0232 CDE90046 		strd	r4, r6, [sp]
 1039 0236 FFF7FEFF 		bl	_ZN4cGFX8drawLineEtttt6cColor
 1040              	.LVL37:
 1041              		.loc 6 82 3 is_stmt 1 view .LVU290
 1042              		.loc 6 82 21 is_stmt 0 view .LVU291
 1043 023a 049E     		ldr	r6, [sp, #16]
 1044 023c 2246     		mov	r2, r4
 1045 023e 5023     		movs	r3, #80
 1046 0240 1E21     		movs	r1, #30
 1047 0242 5B48     		ldr	r0, .L28
 1048 0244 CDE90086 		strd	r8, r6, [sp]
 1049 0248 FFF7FEFF 		bl	_ZN4cGFX8drawLineEtttt6cColor
 1050              	.LVL38:
  83:TestTFT.cpp   **** 
  84:TestTFT.cpp   **** 		x = x + 50 + 20;
 1051              		.loc 6 84 3 is_stmt 1 view .LVU292
  85:TestTFT.cpp   **** 
  86:TestTFT.cpp   **** 		__Display.drawFillRect(x, y, dx, dy, Color);
 1052              		.loc 6 86 3 view .LVU293
 1053              		.loc 6 86 25 is_stmt 0 view .LVU294
 1054 024c 0498     		ldr	r0, [sp, #16]
 1055              	.LBB488:
 1056              	.LBB489:
 1057              	.LBB490:
 1058              		.loc 7 113 17 view .LVU295
 1059 024e FF26     		movs	r6, #255
 1060              	.LBE490:
 1061              	.LBE489:
 1062              	.LBE488:
 1063              		.loc 6 86 25 view .LVU296
 1064 0250 3223     		movs	r3, #50
 1065 0252 4246     		mov	r2, r8
 1066 0254 6421     		movs	r1, #100
 1067 0256 CDE900A0 		strd	r10, r0, [sp]
 1068 025a 5548     		ldr	r0, .L28
  87:TestTFT.cpp   **** 		__Display.drawLine(x, y, x+dx, y+dy, cColor(0,0,0));
  88:TestTFT.cpp   **** 		__Display.drawLine(x, y+dy, x+dx, y, cColor(0,0,0));
  89:TestTFT.cpp   **** 
  90:TestTFT.cpp   **** 		x = x + 50 + 45;
  91:TestTFT.cpp   **** 		y = y + 25;
  92:TestTFT.cpp   **** 		dx = 25;
ARM GAS  C:\Users\pbant\AppData\Local\Temp\ccAmOMRv.s 			page 38


  93:TestTFT.cpp   **** 
  94:TestTFT.cpp   **** 		__Display.drawCircle(x, y, dx, Color);
  95:TestTFT.cpp   **** 		__Display.drawLine(x-dx, y, x+dx, y, Color);
 1069              		.loc 6 95 21 view .LVU297
 1070 025c 4FF05F0A 		mov	r10, #95
  86:TestTFT.cpp   **** 		__Display.drawLine(x, y, x+dx, y+dy, cColor(0,0,0));
 1071              		.loc 6 86 25 view .LVU298
 1072 0260 FFF7FEFF 		bl	_ZN4cGFX12drawFillRectEttss6cColor
 1073              	.LVL39:
  87:TestTFT.cpp   **** 		__Display.drawLine(x, y, x+dx, y+dy, cColor(0,0,0));
 1074              		.loc 6 87 3 is_stmt 1 view .LVU299
 1075              	.LBB497:
 1076              	.LBI488:
 109:Frame.h       ****         m_R = R;
 1077              		.loc 7 109 5 view .LVU300
 1078              	.LBB494:
 1079              	.LBB491:
 110:Frame.h       ****         m_G = G;
 1080              		.loc 7 110 9 view .LVU301
 110:Frame.h       ****         m_G = G;
 1081              		.loc 7 110 13 is_stmt 0 view .LVU302
 1082 0264 8DF81450 		strb	r5, [sp, #20]
 111:Frame.h       ****         m_B = B;
 1083              		.loc 7 111 9 is_stmt 1 view .LVU303
 111:Frame.h       ****         m_B = B;
 1084              		.loc 7 111 13 is_stmt 0 view .LVU304
 1085 0268 8DF81550 		strb	r5, [sp, #21]
 112:Frame.h       ****         m_Trans = Trans;
 1086              		.loc 7 112 9 is_stmt 1 view .LVU305
 1087              	.LBE491:
 1088              	.LBE494:
 1089              	.LBE497:
  87:TestTFT.cpp   **** 		__Display.drawLine(x, y+dy, x+dx, y, cColor(0,0,0));
 1090              		.loc 6 87 21 is_stmt 0 view .LVU306
 1091 026c 9623     		movs	r3, #150
 1092              	.LBB498:
 1093              	.LBB495:
 1094              	.LBB492:
 112:Frame.h       ****         m_Trans = Trans;
 1095              		.loc 7 112 13 view .LVU307
 1096 026e 8DF81650 		strb	r5, [sp, #22]
 1097              		.loc 7 113 9 is_stmt 1 view .LVU308
 1098              	.LBE492:
 1099              	.LBE495:
 1100              	.LBE498:
  87:TestTFT.cpp   **** 		__Display.drawLine(x, y+dy, x+dx, y, cColor(0,0,0));
 1101              		.loc 6 87 21 is_stmt 0 view .LVU309
 1102 0272 4246     		mov	r2, r8
 1103              	.LBB499:
 1104              	.LBB496:
 1105              	.LBB493:
 1106              		.loc 7 113 17 view .LVU310
 1107 0274 8DF81760 		strb	r6, [sp, #23]
 1108              	.LVL40:
 1109              		.loc 7 113 17 view .LVU311
 1110              	.LBE493:
 1111              	.LBE496:
ARM GAS  C:\Users\pbant\AppData\Local\Temp\ccAmOMRv.s 			page 39


 1112              	.LBE499:
  87:TestTFT.cpp   **** 		__Display.drawLine(x, y+dy, x+dx, y, cColor(0,0,0));
 1113              		.loc 6 87 21 view .LVU312
 1114 0278 6421     		movs	r1, #100
 1115 027a 0598     		ldr	r0, [sp, #20]
 1116 027c CDE90040 		strd	r4, r0, [sp]
 1117 0280 4B48     		ldr	r0, .L28
 1118 0282 FFF7FEFF 		bl	_ZN4cGFX8drawLineEtttt6cColor
 1119              	.LVL41:
  88:TestTFT.cpp   **** 
 1120              		.loc 6 88 3 is_stmt 1 view .LVU313
 1121              	.LBB500:
 1122              	.LBI500:
 109:Frame.h       ****         m_R = R;
 1123              		.loc 7 109 5 view .LVU314
 1124              	.LBB501:
 1125              	.LBB502:
 110:Frame.h       ****         m_G = G;
 1126              		.loc 7 110 9 view .LVU315
 110:Frame.h       ****         m_G = G;
 1127              		.loc 7 110 13 is_stmt 0 view .LVU316
 1128 0286 8DF81450 		strb	r5, [sp, #20]
 111:Frame.h       ****         m_B = B;
 1129              		.loc 7 111 9 is_stmt 1 view .LVU317
 111:Frame.h       ****         m_B = B;
 1130              		.loc 7 111 13 is_stmt 0 view .LVU318
 1131 028a 8DF81550 		strb	r5, [sp, #21]
 112:Frame.h       ****         m_Trans = Trans;
 1132              		.loc 7 112 9 is_stmt 1 view .LVU319
 1133              	.LBE502:
 1134              	.LBE501:
 1135              	.LBE500:
  88:TestTFT.cpp   **** 
 1136              		.loc 6 88 21 is_stmt 0 view .LVU320
 1137 028e 2246     		mov	r2, r4
 1138              	.LBB507:
 1139              	.LBB505:
 1140              	.LBB503:
 112:Frame.h       ****         m_Trans = Trans;
 1141              		.loc 7 112 13 view .LVU321
 1142 0290 8DF81650 		strb	r5, [sp, #22]
 1143              		.loc 7 113 9 is_stmt 1 view .LVU322
 1144              	.LBE503:
 1145              	.LBE505:
 1146              	.LBE507:
  88:TestTFT.cpp   **** 
 1147              		.loc 6 88 21 is_stmt 0 view .LVU323
 1148 0294 9623     		movs	r3, #150
 1149              	.LBB508:
 1150              	.LBB506:
 1151              	.LBB504:
 1152              		.loc 7 113 17 view .LVU324
 1153 0296 8DF81760 		strb	r6, [sp, #23]
 1154              	.LVL42:
 1155              		.loc 7 113 17 view .LVU325
 1156              	.LBE504:
 1157              	.LBE506:
ARM GAS  C:\Users\pbant\AppData\Local\Temp\ccAmOMRv.s 			page 40


 1158              	.LBE508:
  88:TestTFT.cpp   **** 
 1159              		.loc 6 88 21 view .LVU326
 1160 029a 6421     		movs	r1, #100
 1161 029c 059C     		ldr	r4, [sp, #20]
 1162 029e 4448     		ldr	r0, .L28
 1163 02a0 CDE90084 		strd	r8, r4, [sp]
 1164 02a4 FFF7FEFF 		bl	_ZN4cGFX8drawLineEtttt6cColor
 1165              	.LVL43:
  90:TestTFT.cpp   **** 		y = y + 25;
 1166              		.loc 6 90 3 is_stmt 1 view .LVU327
  91:TestTFT.cpp   **** 		dx = 25;
 1167              		.loc 6 91 3 view .LVU328
  92:TestTFT.cpp   **** 
 1168              		.loc 6 92 3 view .LVU329
  94:TestTFT.cpp   **** 		__Display.drawLine(x-dx, y, x+dx, y, Color);
 1169              		.loc 6 94 3 view .LVU330
  94:TestTFT.cpp   **** 		__Display.drawLine(x-dx, y, x+dx, y, Color);
 1170              		.loc 6 94 23 is_stmt 0 view .LVU331
 1171 02a8 049C     		ldr	r4, [sp, #16]
 1172 02aa 1923     		movs	r3, #25
 1173 02ac 5246     		mov	r2, r10
 1174 02ae C321     		movs	r1, #195
 1175 02b0 3F48     		ldr	r0, .L28
 1176 02b2 0094     		str	r4, [sp]
 1177 02b4 FFF7FEFF 		bl	_ZN4cGFX10drawCircleEttt6cColor
 1178              	.LVL44:
 1179              		.loc 6 95 3 is_stmt 1 view .LVU332
 1180              		.loc 6 95 21 is_stmt 0 view .LVU333
 1181 02b8 049C     		ldr	r4, [sp, #16]
 1182 02ba DC23     		movs	r3, #220
 1183 02bc 5246     		mov	r2, r10
 1184 02be AA21     		movs	r1, #170
 1185 02c0 3B48     		ldr	r0, .L28
 1186 02c2 CDE900A4 		strd	r10, r4, [sp]
 1187 02c6 FFF7FEFF 		bl	_ZN4cGFX8drawLineEtttt6cColor
 1188              	.LVL45:
  96:TestTFT.cpp   **** 		__Display.drawLine(x, y-dx, x, y+dx, Color);
 1189              		.loc 6 96 3 is_stmt 1 view .LVU334
 1190              		.loc 6 96 21 is_stmt 0 view .LVU335
 1191 02ca C323     		movs	r3, #195
 1192 02cc 0498     		ldr	r0, [sp, #16]
 1193 02ce 7821     		movs	r1, #120
 1194 02d0 4246     		mov	r2, r8
 1195 02d2 0091     		str	r1, [sp]
 1196 02d4 1946     		mov	r1, r3
 1197 02d6 0190     		str	r0, [sp, #4]
 1198 02d8 3548     		ldr	r0, .L28
 1199 02da FFF7FEFF 		bl	_ZN4cGFX8drawLineEtttt6cColor
 1200              	.LVL46:
  97:TestTFT.cpp   **** 
  98:TestTFT.cpp   **** 		x = x + 20 + 50;
 1201              		.loc 6 98 3 is_stmt 1 view .LVU336
  99:TestTFT.cpp   **** 
 100:TestTFT.cpp   **** 		__Display.drawFillCircle(x, y, dx, Color);
 1202              		.loc 6 100 3 view .LVU337
 1203              		.loc 6 100 27 is_stmt 0 view .LVU338
ARM GAS  C:\Users\pbant\AppData\Local\Temp\ccAmOMRv.s 			page 41


 1204 02de 0498     		ldr	r0, [sp, #16]
 1205 02e0 1923     		movs	r3, #25
 1206 02e2 5246     		mov	r2, r10
 1207 02e4 40F20911 		movw	r1, #265
 1208 02e8 0090     		str	r0, [sp]
 1209 02ea 3148     		ldr	r0, .L28
 1210 02ec FFF7FEFF 		bl	_ZN4cGFX14drawFillCircleEttt6cColor
 1211              	.LVL47:
 101:TestTFT.cpp   **** 		__Display.drawLine(x-dx, y, x+dx, y, cColor(0,0,0));
 1212              		.loc 6 101 3 is_stmt 1 view .LVU339
 1213              	.LBB509:
 1214              	.LBI509:
 109:Frame.h       ****         m_R = R;
 1215              		.loc 7 109 5 view .LVU340
 1216              	.LBB510:
 1217              	.LBB511:
 110:Frame.h       ****         m_G = G;
 1218              		.loc 7 110 9 view .LVU341
 110:Frame.h       ****         m_G = G;
 1219              		.loc 7 110 13 is_stmt 0 view .LVU342
 1220 02f0 8DF81450 		strb	r5, [sp, #20]
 111:Frame.h       ****         m_B = B;
 1221              		.loc 7 111 9 is_stmt 1 view .LVU343
 111:Frame.h       ****         m_B = B;
 1222              		.loc 7 111 13 is_stmt 0 view .LVU344
 1223 02f4 8DF81550 		strb	r5, [sp, #21]
 112:Frame.h       ****         m_Trans = Trans;
 1224              		.loc 7 112 9 is_stmt 1 view .LVU345
 1225              	.LBE511:
 1226              	.LBE510:
 1227              	.LBE509:
 1228              		.loc 6 101 21 is_stmt 0 view .LVU346
 1229 02f8 4FF49173 		mov	r3, #290
 1230              	.LBB516:
 1231              	.LBB514:
 1232              	.LBB512:
 112:Frame.h       ****         m_Trans = Trans;
 1233              		.loc 7 112 13 view .LVU347
 1234 02fc 8DF81650 		strb	r5, [sp, #22]
 1235              		.loc 7 113 9 is_stmt 1 view .LVU348
 1236              	.LBE512:
 1237              	.LBE514:
 1238              	.LBE516:
 1239              		.loc 6 101 21 is_stmt 0 view .LVU349
 1240 0300 5246     		mov	r2, r10
 1241              	.LBB517:
 1242              	.LBB515:
 1243              	.LBB513:
 1244              		.loc 7 113 17 view .LVU350
 1245 0302 8DF81760 		strb	r6, [sp, #23]
 1246              	.LVL48:
 1247              		.loc 7 113 17 view .LVU351
 1248              	.LBE513:
 1249              	.LBE515:
 1250              	.LBE517:
 1251              		.loc 6 101 21 view .LVU352
 1252 0306 F021     		movs	r1, #240
ARM GAS  C:\Users\pbant\AppData\Local\Temp\ccAmOMRv.s 			page 42


 1253 0308 0598     		ldr	r0, [sp, #20]
 1254 030a CDE900A0 		strd	r10, r0, [sp]
 1255 030e 2848     		ldr	r0, .L28
 1256 0310 FFF7FEFF 		bl	_ZN4cGFX8drawLineEtttt6cColor
 1257              	.LVL49:
 102:TestTFT.cpp   **** 		__Display.drawLine(x, y-dx, x, y+dx, cColor(0,0,0));
 1258              		.loc 6 102 3 is_stmt 1 view .LVU353
 1259              	.LBB518:
 1260              	.LBI518:
 109:Frame.h       ****         m_R = R;
 1261              		.loc 7 109 5 view .LVU354
 1262              	.LBB519:
 1263              	.LBB520:
 110:Frame.h       ****         m_G = G;
 1264              		.loc 7 110 9 view .LVU355
 110:Frame.h       ****         m_G = G;
 1265              		.loc 7 110 13 is_stmt 0 view .LVU356
 1266 0314 8DF81450 		strb	r5, [sp, #20]
 111:Frame.h       ****         m_B = B;
 1267              		.loc 7 111 9 is_stmt 1 view .LVU357
 111:Frame.h       ****         m_B = B;
 1268              		.loc 7 111 13 is_stmt 0 view .LVU358
 1269 0318 8DF81550 		strb	r5, [sp, #21]
 112:Frame.h       ****         m_Trans = Trans;
 1270              		.loc 7 112 9 is_stmt 1 view .LVU359
 1271              	.LBE520:
 1272              	.LBE519:
 1273              	.LBE518:
 1274              		.loc 6 102 21 is_stmt 0 view .LVU360
 1275 031c 40F20913 		movw	r3, #265
 1276              	.LBB525:
 1277              	.LBB523:
 1278              	.LBB521:
 112:Frame.h       ****         m_Trans = Trans;
 1279              		.loc 7 112 13 view .LVU361
 1280 0320 8DF81650 		strb	r5, [sp, #22]
 1281              		.loc 7 113 9 is_stmt 1 view .LVU362
 1282              	.LBE521:
 1283              	.LBE523:
 1284              	.LBE525:
 1285              		.loc 6 102 21 is_stmt 0 view .LVU363
 1286 0324 4246     		mov	r2, r8
 1287              	.LBB526:
 1288              	.LBB524:
 1289              	.LBB522:
 1290              		.loc 7 113 17 view .LVU364
 1291 0326 8DF81760 		strb	r6, [sp, #23]
 1292              	.LVL50:
 1293              		.loc 7 113 17 view .LVU365
 1294              	.LBE522:
 1295              	.LBE524:
 1296              	.LBE526:
 1297              		.loc 6 102 21 view .LVU366
 1298 032a 1946     		mov	r1, r3
 1299 032c 059C     		ldr	r4, [sp, #20]
 1300 032e 2048     		ldr	r0, .L28
 1301 0330 0194     		str	r4, [sp, #4]
ARM GAS  C:\Users\pbant\AppData\Local\Temp\ccAmOMRv.s 			page 43


 1302 0332 7824     		movs	r4, #120
 1303 0334 0094     		str	r4, [sp]
 1304 0336 FFF7FEFF 		bl	_ZN4cGFX8drawLineEtttt6cColor
 1305              	.LVL51:
 103:TestTFT.cpp   **** 
 104:TestTFT.cpp   **** 		char Buff[20];
 1306              		.loc 6 104 3 is_stmt 1 view .LVU367
 105:TestTFT.cpp   **** 		
 106:TestTFT.cpp   **** 		__Display.setCursor(30, 200);
 1307              		.loc 6 106 3 view .LVU368
 1308              	.LBB527:
 1309              	.LBI527:
 175:GFX.h         ****         m_xCursor = x;
 1310              		.loc 8 175 17 view .LVU369
 1311              	.LBB528:
 176:GFX.h         ****         m_yCursor = y;
 1312              		.loc 8 176 9 view .LVU370
 177:GFX.h         ****     };
 1313              		.loc 8 177 9 view .LVU371
 176:GFX.h         ****         m_yCursor = y;
 1314              		.loc 8 176 19 is_stmt 0 view .LVU372
 1315 033a 1E4B     		ldr	r3, .L28+4
 1316              	.LBE528:
 1317              	.LBE527:
 107:TestTFT.cpp   **** 		sprintf(Buff, "%02d", CtColor);
 1318              		.loc 6 107 10 view .LVU373
 1319 033c 3A46     		mov	r2, r7
 1320 033e 1E49     		ldr	r1, .L28+8
 1321 0340 05A8     		add	r0, sp, #20
 1322              	.LBB530:
 1323              	.LBB529:
 176:GFX.h         ****         m_yCursor = y;
 1324              		.loc 8 176 19 view .LVU374
 1325 0342 C9F8D830 		str	r3, [r9, #216]
 1326              	.LVL52:
 176:GFX.h         ****         m_yCursor = y;
 1327              		.loc 8 176 19 view .LVU375
 1328              	.LBE529:
 1329              	.LBE530:
 1330              		.loc 6 107 3 is_stmt 1 view .LVU376
 1331              		.loc 6 107 10 is_stmt 0 view .LVU377
 1332 0346 FFF7FEFF 		bl	sprintf
 1333              	.LVL53:
 108:TestTFT.cpp   **** 		__Display.drawText(Buff,true);
 1334              		.loc 6 108 3 is_stmt 1 view .LVU378
 1335              		.loc 6 108 21 is_stmt 0 view .LVU379
 1336 034a 0122     		movs	r2, #1
 1337 034c 05A9     		add	r1, sp, #20
 1338 034e 1848     		ldr	r0, .L28
 1339 0350 FFF7FEFF 		bl	_ZN4cGFX8drawTextEPKcb
 1340              	.LVL54:
 109:TestTFT.cpp   **** 		
 110:TestTFT.cpp   **** 		CtColor += 1;
 1341              		.loc 6 110 3 is_stmt 1 view .LVU380
 1342              		.loc 6 110 11 is_stmt 0 view .LVU381
 1343 0354 7A1C     		adds	r2, r7, #1
 1344 0356 D2B2     		uxtb	r2, r2
ARM GAS  C:\Users\pbant\AppData\Local\Temp\ccAmOMRv.s 			page 44


 1345              	.LVL55:
 111:TestTFT.cpp   **** 		if(CtColor >= TabColorMax) CtColor = 0;
 1346              		.loc 6 111 3 is_stmt 1 view .LVU382
 1347 0358 0B2A     		cmp	r2, #11
 1348 035a 19D9     		bls	.L25
 1349 035c B046     		mov	r8, r6
 1350 035e AA46     		mov	r10, r5
 1351 0360 2A46     		mov	r2, r5
 1352              	.LVL56:
 1353              		.loc 6 111 3 is_stmt 0 view .LVU383
 1354 0362 0395     		str	r5, [sp, #12]
 1355 0364 0296     		str	r6, [sp, #8]
 1356              	.L19:
 1357              	.LVL57:
 112:TestTFT.cpp   **** 		
 113:TestTFT.cpp   **** 		__Display.setCursor(30, 200);
 1358              		.loc 6 113 3 is_stmt 1 view .LVU384
 1359              	.LBB531:
 1360              	.LBI531:
 175:GFX.h         ****         m_xCursor = x;
 1361              		.loc 8 175 17 view .LVU385
 1362              	.LBB532:
 176:GFX.h         ****         m_yCursor = y;
 1363              		.loc 8 176 9 view .LVU386
 177:GFX.h         ****     };
 1364              		.loc 8 177 9 view .LVU387
 176:GFX.h         ****         m_yCursor = y;
 1365              		.loc 8 176 19 is_stmt 0 view .LVU388
 1366 0366 134B     		ldr	r3, .L28+4
 1367              	.LBE532:
 1368              	.LBE531:
 114:TestTFT.cpp   **** 		sprintf(Buff, "%02d", CtColor);
 1369              		.loc 6 114 10 view .LVU389
 1370 0368 05A8     		add	r0, sp, #20
 1371 036a 1349     		ldr	r1, .L28+8
 1372              	.LBE537:
 115:TestTFT.cpp   **** 		__Display.drawText(Buff);
 116:TestTFT.cpp   **** 
 117:TestTFT.cpp   **** 		__Display.FlushFrame();
 118:TestTFT.cpp   **** 
 119:TestTFT.cpp   **** 		System::Delay(1500);
 120:TestTFT.cpp   **** 	}
 1373              		.loc 6 120 2 view .LVU390
 1374 036c 2F46     		mov	r7, r5
 1375              	.LBB538:
 1376              	.LBB534:
 1377              	.LBB533:
 176:GFX.h         ****         m_yCursor = y;
 1378              		.loc 8 176 19 view .LVU391
 1379 036e C9F8D830 		str	r3, [r9, #216]
 1380              	.LVL58:
 176:GFX.h         ****         m_yCursor = y;
 1381              		.loc 8 176 19 view .LVU392
 1382              	.LBE533:
 1383              	.LBE534:
 114:TestTFT.cpp   **** 		sprintf(Buff, "%02d", CtColor);
 1384              		.loc 6 114 3 is_stmt 1 view .LVU393
ARM GAS  C:\Users\pbant\AppData\Local\Temp\ccAmOMRv.s 			page 45


 114:TestTFT.cpp   **** 		sprintf(Buff, "%02d", CtColor);
 1385              		.loc 6 114 10 is_stmt 0 view .LVU394
 1386 0372 FFF7FEFF 		bl	sprintf
 1387              	.LVL59:
 115:TestTFT.cpp   **** 		__Display.drawText(Buff);
 1388              		.loc 6 115 3 is_stmt 1 view .LVU395
 115:TestTFT.cpp   **** 		__Display.drawText(Buff);
 1389              		.loc 6 115 21 is_stmt 0 view .LVU396
 1390 0376 0022     		movs	r2, #0
 1391 0378 05A9     		add	r1, sp, #20
 1392 037a 0D48     		ldr	r0, .L28
 1393 037c FFF7FEFF 		bl	_ZN4cGFX8drawTextEPKcb
 1394              	.LVL60:
 117:TestTFT.cpp   **** 
 1395              		.loc 6 117 3 is_stmt 1 view .LVU397
 1396              	.LBB535:
 1397              	.LBI535:
 153:GFX.h         **** 
 1398              		.loc 8 153 17 view .LVU398
 1399              	.LBB536:
 153:GFX.h         **** 
 1400              		.loc 8 153 32 view .LVU399
 153:GFX.h         **** 
 1401              		.loc 8 153 54 is_stmt 0 view .LVU400
 1402 0380 0B48     		ldr	r0, .L28
 1403 0382 FFF7FEFF 		bl	_ZN10cRBG_Frame10FlushFrameEv
 1404              	.LVL61:
 153:GFX.h         **** 
 1405              		.loc 8 153 54 view .LVU401
 1406              	.LBE536:
 1407              	.LBE535:
 119:TestTFT.cpp   **** 	}
 1408              		.loc 6 119 3 is_stmt 1 view .LVU402
 119:TestTFT.cpp   **** 	}
 1409              		.loc 6 119 16 is_stmt 0 view .LVU403
 1410 0386 40F2DC50 		movw	r0, #1500
 1411 038a FFF7FEFF 		bl	_ZN5daisy6System5DelayEm
 1412              	.LVL62:
 1413              	.LBE538:
  62:TestTFT.cpp   **** 		x = 30;
 1414              		.loc 6 62 2 is_stmt 1 view .LVU404
 1415              		.loc 6 120 2 is_stmt 0 view .LVU405
 1416 038e CEE6     		b	.L20
 1417              	.LVL63:
 1418              	.L25:
 1419              	.LBB539:
  66:TestTFT.cpp   **** 		__Display.setCursor(x, y);
 1420              		.loc 6 66 9 view .LVU406
 1421 0390 16AB     		add	r3, sp, #88
 1422 0392 1546     		mov	r5, r2
 1423 0394 03EB8203 		add	r3, r3, r2, lsl #2
 1424 0398 13F8301C 		ldrb	r1, [r3, #-48]	@ zero_extendqisi2
 1425 039c 13F82EAC 		ldrb	r10, [r3, #-46]	@ zero_extendqisi2
 1426 03a0 0291     		str	r1, [sp, #8]
 1427 03a2 13F82F1C 		ldrb	r1, [r3, #-47]	@ zero_extendqisi2
 1428 03a6 13F82D8C 		ldrb	r8, [r3, #-45]	@ zero_extendqisi2
 1429 03aa 0391     		str	r1, [sp, #12]
ARM GAS  C:\Users\pbant\AppData\Local\Temp\ccAmOMRv.s 			page 46


 1430 03ac DBE7     		b	.L19
 1431              	.L29:
 1432 03ae 00BF     		.align	2
 1433              	.L28:
 1434 03b0 00000000 		.word	.LANCHOR1
 1435 03b4 1E00C800 		.word	13107230
 1436 03b8 0C000000 		.word	.LC1
 1437              	.LBE539:
 1438              		.cfi_endproc
 1439              	.LFE4753:
 1441              		.section	.text.startup._GLOBAL__sub_I_hw,"ax",%progbits
 1442              		.align	1
 1443              		.p2align 2,,3
 1444              		.syntax unified
 1445              		.thumb
 1446              		.thumb_func
 1447              		.fpu fpv5-d16
 1449              	_GLOBAL__sub_I_hw:
 1450              	.LFB5316:
 121:TestTFT.cpp   **** }
 1451              		.loc 6 121 1 is_stmt 1 view -0
 1452              		.cfi_startproc
 1453              		@ args = 0, pretend = 0, frame = 0
 1454              		@ frame_needed = 0, uses_anonymous_args = 0
 1455              	.LBB608:
 1456              	.LBI608:
 1457              		.loc 6 121 1 view .LVU408
 1458              	.LVL64:
 1459              	.LBB609:
 1460              	.LBB610:
 1461              	.LBI610:
  21:../../../../Desktop/DaisyExamples/libDaisy//src/daisy_seed.h ****     ~DaisySeed() {}
 1462              		.loc 1 21 5 view .LVU409
 1463              	.LBB611:
 1464              	.LBB612:
 1465              	.LBI612:
 1466              		.file 9 "../../../../Desktop/DaisyExamples/libDaisy//src/per/qspi.h"
   1:../../../../Desktop/DaisyExamples/libDaisy//src/per/qspi.h **** #ifndef DSY_QSPI
   2:../../../../Desktop/DaisyExamples/libDaisy//src/per/qspi.h **** #define DSY_QSPI /**< Macro */
   3:../../../../Desktop/DaisyExamples/libDaisy//src/per/qspi.h **** 
   4:../../../../Desktop/DaisyExamples/libDaisy//src/per/qspi.h **** #ifndef UNIT_TEST // for unit tests, a dummy implementation
   5:../../../../Desktop/DaisyExamples/libDaisy//src/per/qspi.h **** 
   6:../../../../Desktop/DaisyExamples/libDaisy//src/per/qspi.h **** #include <cstdint>
   7:../../../../Desktop/DaisyExamples/libDaisy//src/per/qspi.h **** #include "daisy_core.h" // Added for dsy_gpio_pin typedef
   8:../../../../Desktop/DaisyExamples/libDaisy//src/per/qspi.h **** 
   9:../../../../Desktop/DaisyExamples/libDaisy//src/per/qspi.h **** #define DSY_QSPI_TEXT       \
  10:../../../../Desktop/DaisyExamples/libDaisy//src/per/qspi.h ****     __attribute__((section( \
  11:../../../../Desktop/DaisyExamples/libDaisy//src/per/qspi.h ****         ".qspiflash_text"))) /**< used for reading memory in memory_mapped mode. */
  12:../../../../Desktop/DaisyExamples/libDaisy//src/per/qspi.h **** #define DSY_QSPI_DATA       \
  13:../../../../Desktop/DaisyExamples/libDaisy//src/per/qspi.h ****     __attribute__((section( \
  14:../../../../Desktop/DaisyExamples/libDaisy//src/per/qspi.h ****         ".qspiflash_data"))) /**< used for reading memory in memory_mapped mode. */
  15:../../../../Desktop/DaisyExamples/libDaisy//src/per/qspi.h **** #define DSY_QSPI_BSS        \
  16:../../../../Desktop/DaisyExamples/libDaisy//src/per/qspi.h ****     __attribute__((section( \
  17:../../../../Desktop/DaisyExamples/libDaisy//src/per/qspi.h ****         ".qspiflash_bss"))) /**< used for reading memory in memory_mapped mode. */
  18:../../../../Desktop/DaisyExamples/libDaisy//src/per/qspi.h **** 
  19:../../../../Desktop/DaisyExamples/libDaisy//src/per/qspi.h **** namespace daisy
  20:../../../../Desktop/DaisyExamples/libDaisy//src/per/qspi.h **** {
ARM GAS  C:\Users\pbant\AppData\Local\Temp\ccAmOMRv.s 			page 47


  21:../../../../Desktop/DaisyExamples/libDaisy//src/per/qspi.h **** /** @addtogroup serial
  22:../../../../Desktop/DaisyExamples/libDaisy//src/per/qspi.h **** @{
  23:../../../../Desktop/DaisyExamples/libDaisy//src/per/qspi.h **** */
  24:../../../../Desktop/DaisyExamples/libDaisy//src/per/qspi.h **** 
  25:../../../../Desktop/DaisyExamples/libDaisy//src/per/qspi.h **** /** 
  26:../../../../Desktop/DaisyExamples/libDaisy//src/per/qspi.h ****  Driver for QSPI peripheral to interface with external flash memory. \n 
  27:../../../../Desktop/DaisyExamples/libDaisy//src/per/qspi.h ****     Currently supported QSPI Devices: \n 
  28:../../../../Desktop/DaisyExamples/libDaisy//src/per/qspi.h ****     * IS25LP080D
  29:../../../../Desktop/DaisyExamples/libDaisy//src/per/qspi.h **** */
  30:../../../../Desktop/DaisyExamples/libDaisy//src/per/qspi.h **** class QSPIHandle
  31:../../../../Desktop/DaisyExamples/libDaisy//src/per/qspi.h **** {
  32:../../../../Desktop/DaisyExamples/libDaisy//src/per/qspi.h ****   public:
  33:../../../../Desktop/DaisyExamples/libDaisy//src/per/qspi.h ****     enum Result
  34:../../../../Desktop/DaisyExamples/libDaisy//src/per/qspi.h ****     {
  35:../../../../Desktop/DaisyExamples/libDaisy//src/per/qspi.h ****         OK = 0,
  36:../../../../Desktop/DaisyExamples/libDaisy//src/per/qspi.h ****         ERR
  37:../../../../Desktop/DaisyExamples/libDaisy//src/per/qspi.h ****     };
  38:../../../../Desktop/DaisyExamples/libDaisy//src/per/qspi.h **** 
  39:../../../../Desktop/DaisyExamples/libDaisy//src/per/qspi.h ****     /** Indicates the current status of the module. 
  40:../../../../Desktop/DaisyExamples/libDaisy//src/per/qspi.h ****          *  Warnings are indicated by a leading W.
  41:../../../../Desktop/DaisyExamples/libDaisy//src/per/qspi.h ****          *  Errors are indicated by a leading E and cause an immediate exit.
  42:../../../../Desktop/DaisyExamples/libDaisy//src/per/qspi.h ****          * 
  43:../../../../Desktop/DaisyExamples/libDaisy//src/per/qspi.h ****          *  \param GOOD - No errors have been reported.
  44:../../../../Desktop/DaisyExamples/libDaisy//src/per/qspi.h ****          *  \param E_HAL_ERROR - HAL code did not return HAL_OK.
  45:../../../../Desktop/DaisyExamples/libDaisy//src/per/qspi.h ****          *  \param E_SWITCHING_MODES - An error was encountered while switching QSPI peripheral mod
  46:../../../../Desktop/DaisyExamples/libDaisy//src/per/qspi.h ****          *  \param E_INVALID_MODE - QSPI should not be written to while the program is executing fr
  47:../../../../Desktop/DaisyExamples/libDaisy//src/per/qspi.h ****          */
  48:../../../../Desktop/DaisyExamples/libDaisy//src/per/qspi.h ****     enum Status
  49:../../../../Desktop/DaisyExamples/libDaisy//src/per/qspi.h ****     {
  50:../../../../Desktop/DaisyExamples/libDaisy//src/per/qspi.h ****         GOOD = 0,
  51:../../../../Desktop/DaisyExamples/libDaisy//src/per/qspi.h ****         E_HAL_ERROR,
  52:../../../../Desktop/DaisyExamples/libDaisy//src/per/qspi.h ****         E_SWITCHING_MODES,
  53:../../../../Desktop/DaisyExamples/libDaisy//src/per/qspi.h ****         E_INVALID_MODE,
  54:../../../../Desktop/DaisyExamples/libDaisy//src/per/qspi.h ****     };
  55:../../../../Desktop/DaisyExamples/libDaisy//src/per/qspi.h **** 
  56:../../../../Desktop/DaisyExamples/libDaisy//src/per/qspi.h ****     /** Configuration structure for interfacing with QSPI Driver */
  57:../../../../Desktop/DaisyExamples/libDaisy//src/per/qspi.h ****     struct Config
  58:../../../../Desktop/DaisyExamples/libDaisy//src/per/qspi.h ****     {
  59:../../../../Desktop/DaisyExamples/libDaisy//src/per/qspi.h ****         /** Flash Devices supported. (Both of these are more-or-less the same, just different sizes
  60:../../../../Desktop/DaisyExamples/libDaisy//src/per/qspi.h ****         enum Device
  61:../../../../Desktop/DaisyExamples/libDaisy//src/per/qspi.h ****         {
  62:../../../../Desktop/DaisyExamples/libDaisy//src/per/qspi.h ****             IS25LP080D,  /**< & */
  63:../../../../Desktop/DaisyExamples/libDaisy//src/per/qspi.h ****             IS25LP064A,  /**< & */
  64:../../../../Desktop/DaisyExamples/libDaisy//src/per/qspi.h ****             DEVICE_LAST, /**< & */
  65:../../../../Desktop/DaisyExamples/libDaisy//src/per/qspi.h ****         };
  66:../../../../Desktop/DaisyExamples/libDaisy//src/per/qspi.h **** 
  67:../../../../Desktop/DaisyExamples/libDaisy//src/per/qspi.h ****         /** 
  68:../../../../Desktop/DaisyExamples/libDaisy//src/per/qspi.h ****         Modes of operation.
  69:../../../../Desktop/DaisyExamples/libDaisy//src/per/qspi.h ****         Memory Mapped mode: QSPI configured so that the QSPI can be
  70:../../../../Desktop/DaisyExamples/libDaisy//src/per/qspi.h ****         read from starting address 0x90000000. Writing is not
  71:../../../../Desktop/DaisyExamples/libDaisy//src/per/qspi.h ****         possible in this mode. \n 
  72:../../../../Desktop/DaisyExamples/libDaisy//src/per/qspi.h ****         Indirect Polling mode: Device driver enabled. 
  73:../../../../Desktop/DaisyExamples/libDaisy//src/per/qspi.h ****         */
  74:../../../../Desktop/DaisyExamples/libDaisy//src/per/qspi.h ****         enum Mode
  75:../../../../Desktop/DaisyExamples/libDaisy//src/per/qspi.h ****         {
  76:../../../../Desktop/DaisyExamples/libDaisy//src/per/qspi.h ****             MEMORY_MAPPED,    /**< & */
  77:../../../../Desktop/DaisyExamples/libDaisy//src/per/qspi.h ****             INDIRECT_POLLING, /**< & */
ARM GAS  C:\Users\pbant\AppData\Local\Temp\ccAmOMRv.s 			page 48


  78:../../../../Desktop/DaisyExamples/libDaisy//src/per/qspi.h ****             MODE_LAST,
  79:../../../../Desktop/DaisyExamples/libDaisy//src/per/qspi.h ****         };
  80:../../../../Desktop/DaisyExamples/libDaisy//src/per/qspi.h **** 
  81:../../../../Desktop/DaisyExamples/libDaisy//src/per/qspi.h ****         //SCK,  CE# (active low)
  82:../../../../Desktop/DaisyExamples/libDaisy//src/per/qspi.h ****         struct
  83:../../../../Desktop/DaisyExamples/libDaisy//src/per/qspi.h ****         {
  84:../../../../Desktop/DaisyExamples/libDaisy//src/per/qspi.h ****             dsy_gpio_pin io0; /**< & */
  85:../../../../Desktop/DaisyExamples/libDaisy//src/per/qspi.h ****             dsy_gpio_pin io1; /**< & */
  86:../../../../Desktop/DaisyExamples/libDaisy//src/per/qspi.h ****             dsy_gpio_pin io2; /**< & */
  87:../../../../Desktop/DaisyExamples/libDaisy//src/per/qspi.h ****             dsy_gpio_pin io3; /**< & */
  88:../../../../Desktop/DaisyExamples/libDaisy//src/per/qspi.h ****             dsy_gpio_pin clk; /**< & */
  89:../../../../Desktop/DaisyExamples/libDaisy//src/per/qspi.h ****             dsy_gpio_pin ncs; /**< & */
  90:../../../../Desktop/DaisyExamples/libDaisy//src/per/qspi.h ****         } pin_config;
  91:../../../../Desktop/DaisyExamples/libDaisy//src/per/qspi.h **** 
  92:../../../../Desktop/DaisyExamples/libDaisy//src/per/qspi.h ****         Device device;
  93:../../../../Desktop/DaisyExamples/libDaisy//src/per/qspi.h ****         Mode   mode;
  94:../../../../Desktop/DaisyExamples/libDaisy//src/per/qspi.h ****     };
  95:../../../../Desktop/DaisyExamples/libDaisy//src/per/qspi.h **** 
  96:../../../../Desktop/DaisyExamples/libDaisy//src/per/qspi.h ****     /** 
  97:../../../../Desktop/DaisyExamples/libDaisy//src/per/qspi.h ****         Initializes QSPI peripheral, and Resets, and prepares memory for access.
  98:../../../../Desktop/DaisyExamples/libDaisy//src/per/qspi.h ****         \param config should be populated with the mode, device and pin_config before calling this 
  99:../../../../Desktop/DaisyExamples/libDaisy//src/per/qspi.h ****         \return Result::OK or Result::ERR
 100:../../../../Desktop/DaisyExamples/libDaisy//src/per/qspi.h ****         */
 101:../../../../Desktop/DaisyExamples/libDaisy//src/per/qspi.h ****     Result Init(const Config& config);
 102:../../../../Desktop/DaisyExamples/libDaisy//src/per/qspi.h **** 
 103:../../../../Desktop/DaisyExamples/libDaisy//src/per/qspi.h ****     /** Returns the current config. */
 104:../../../../Desktop/DaisyExamples/libDaisy//src/per/qspi.h ****     const Config& GetConfig() const;
 105:../../../../Desktop/DaisyExamples/libDaisy//src/per/qspi.h **** 
 106:../../../../Desktop/DaisyExamples/libDaisy//src/per/qspi.h ****     // Couldn't this just be called before anything else in init? That
 107:../../../../Desktop/DaisyExamples/libDaisy//src/per/qspi.h ****     // would make manually calling it unnecessary.
 108:../../../../Desktop/DaisyExamples/libDaisy//src/per/qspi.h ****     /** 
 109:../../../../Desktop/DaisyExamples/libDaisy//src/per/qspi.h ****         Deinitializes the peripheral
 110:../../../../Desktop/DaisyExamples/libDaisy//src/per/qspi.h ****         This should be called before reinitializing QSPI in a different mode.
 111:../../../../Desktop/DaisyExamples/libDaisy//src/per/qspi.h ****         \return Result::OK or Result::ERR
 112:../../../../Desktop/DaisyExamples/libDaisy//src/per/qspi.h ****         */
 113:../../../../Desktop/DaisyExamples/libDaisy//src/per/qspi.h ****     Result DeInit();
 114:../../../../Desktop/DaisyExamples/libDaisy//src/per/qspi.h **** 
 115:../../../../Desktop/DaisyExamples/libDaisy//src/per/qspi.h ****     /** 
 116:../../../../Desktop/DaisyExamples/libDaisy//src/per/qspi.h ****         Writes a single page to to the specified address on the QSPI chip.
 117:../../../../Desktop/DaisyExamples/libDaisy//src/per/qspi.h ****         For IS25LP*, page size is 256 bytes.
 118:../../../../Desktop/DaisyExamples/libDaisy//src/per/qspi.h ****         \param address Address to write to
 119:../../../../Desktop/DaisyExamples/libDaisy//src/per/qspi.h ****         \param size Buffer size
 120:../../../../Desktop/DaisyExamples/libDaisy//src/per/qspi.h ****         \param buffer Buffer to write
 121:../../../../Desktop/DaisyExamples/libDaisy//src/per/qspi.h ****         \return Result::OK or Result::ERR
 122:../../../../Desktop/DaisyExamples/libDaisy//src/per/qspi.h ****         */
 123:../../../../Desktop/DaisyExamples/libDaisy//src/per/qspi.h ****     Result WritePage(uint32_t address, uint32_t size, uint8_t* buffer);
 124:../../../../Desktop/DaisyExamples/libDaisy//src/per/qspi.h **** 
 125:../../../../Desktop/DaisyExamples/libDaisy//src/per/qspi.h ****     /** 
 126:../../../../Desktop/DaisyExamples/libDaisy//src/per/qspi.h ****         Writes data in buffer to to the QSPI. Starting at address to address+size 
 127:../../../../Desktop/DaisyExamples/libDaisy//src/per/qspi.h ****         \param address Address to write to
 128:../../../../Desktop/DaisyExamples/libDaisy//src/per/qspi.h ****         \param size Buffer size
 129:../../../../Desktop/DaisyExamples/libDaisy//src/per/qspi.h ****         \param buffer Buffer to write
 130:../../../../Desktop/DaisyExamples/libDaisy//src/per/qspi.h ****         \return Result::OK or Result::ERR
 131:../../../../Desktop/DaisyExamples/libDaisy//src/per/qspi.h ****         */
 132:../../../../Desktop/DaisyExamples/libDaisy//src/per/qspi.h ****     Result Write(uint32_t address, uint32_t size, uint8_t* buffer);
 133:../../../../Desktop/DaisyExamples/libDaisy//src/per/qspi.h **** 
 134:../../../../Desktop/DaisyExamples/libDaisy//src/per/qspi.h ****     /** 
ARM GAS  C:\Users\pbant\AppData\Local\Temp\ccAmOMRv.s 			page 49


 135:../../../../Desktop/DaisyExamples/libDaisy//src/per/qspi.h ****         Erases the area specified on the chip.
 136:../../../../Desktop/DaisyExamples/libDaisy//src/per/qspi.h ****         Erasures will happen by 4K, 32K or 64K increments.
 137:../../../../Desktop/DaisyExamples/libDaisy//src/per/qspi.h ****         Smallest erase possible is 4kB at a time. (on IS25LP*)
 138:../../../../Desktop/DaisyExamples/libDaisy//src/per/qspi.h ****         \param start_addr Address to begin erasing from
 139:../../../../Desktop/DaisyExamples/libDaisy//src/per/qspi.h ****         \param end_addr  Address to stop erasing at
 140:../../../../Desktop/DaisyExamples/libDaisy//src/per/qspi.h ****         \return Result::OK or Result::ERR
 141:../../../../Desktop/DaisyExamples/libDaisy//src/per/qspi.h ****         */
 142:../../../../Desktop/DaisyExamples/libDaisy//src/per/qspi.h ****     Result Erase(uint32_t start_addr, uint32_t end_addr);
 143:../../../../Desktop/DaisyExamples/libDaisy//src/per/qspi.h **** 
 144:../../../../Desktop/DaisyExamples/libDaisy//src/per/qspi.h ****     /**  
 145:../../../../Desktop/DaisyExamples/libDaisy//src/per/qspi.h ****          Erases a single sector of the chip.  
 146:../../../../Desktop/DaisyExamples/libDaisy//src/per/qspi.h ****         TODO: Document the size of this function. 
 147:../../../../Desktop/DaisyExamples/libDaisy//src/per/qspi.h ****         \param address Address of sector to erase
 148:../../../../Desktop/DaisyExamples/libDaisy//src/per/qspi.h ****         \return Result::OK or Result::ERR
 149:../../../../Desktop/DaisyExamples/libDaisy//src/per/qspi.h ****         */
 150:../../../../Desktop/DaisyExamples/libDaisy//src/per/qspi.h ****     Result EraseSector(uint32_t address);
 151:../../../../Desktop/DaisyExamples/libDaisy//src/per/qspi.h **** 
 152:../../../../Desktop/DaisyExamples/libDaisy//src/per/qspi.h ****     /** Returns the current class status. Useful for debugging.
 153:../../../../Desktop/DaisyExamples/libDaisy//src/per/qspi.h ****      *  \returns Status
 154:../../../../Desktop/DaisyExamples/libDaisy//src/per/qspi.h ****      */
 155:../../../../Desktop/DaisyExamples/libDaisy//src/per/qspi.h ****     Status GetStatus();
 156:../../../../Desktop/DaisyExamples/libDaisy//src/per/qspi.h **** 
 157:../../../../Desktop/DaisyExamples/libDaisy//src/per/qspi.h ****     /** Returns a pointer to the actual memory used 
 158:../../../../Desktop/DaisyExamples/libDaisy//src/per/qspi.h ****      *  The memory at this address is read-only
 159:../../../../Desktop/DaisyExamples/libDaisy//src/per/qspi.h ****      *  to write to it use the Write function.
 160:../../../../Desktop/DaisyExamples/libDaisy//src/per/qspi.h ****      * 
 161:../../../../Desktop/DaisyExamples/libDaisy//src/per/qspi.h ****      *  \param offset returns the pointer starting this 
 162:../../../../Desktop/DaisyExamples/libDaisy//src/per/qspi.h ****      *                many bytes into the memory
 163:../../../../Desktop/DaisyExamples/libDaisy//src/per/qspi.h ****     */
 164:../../../../Desktop/DaisyExamples/libDaisy//src/per/qspi.h ****     void* GetData(uint32_t offset = 0);
 165:../../../../Desktop/DaisyExamples/libDaisy//src/per/qspi.h **** 
 166:../../../../Desktop/DaisyExamples/libDaisy//src/per/qspi.h ****     QSPIHandle() : pimpl_(nullptr) {}
 1467              		.loc 9 166 5 view .LVU410
 1468              	.LBE612:
 1469              	.LBE611:
 1470              	.LBE610:
 1471              	.LBE609:
 1472              	.LBE608:
 1473              		.loc 6 121 1 is_stmt 0 view .LVU411
 1474 0000 38B5     		push	{r3, r4, r5, lr}
 1475              		.cfi_def_cfa_offset 16
 1476              		.cfi_offset 3, -16
 1477              		.cfi_offset 4, -12
 1478              		.cfi_offset 5, -8
 1479              		.cfi_offset 14, -4
 1480              	.LBB749:
 1481              	.LBB745:
 1482              	.LBB633:
 1483              	.LBB631:
 1484              	.LBB617:
 1485              	.LBB613:
 1486              	.LBB614:
 1487              		.loc 9 166 34 view .LVU412
 1488 0002 2648     		ldr	r0, .L38
 1489 0004 0023     		movs	r3, #0
 1490              	.LBE614:
 1491              	.LBE613:
ARM GAS  C:\Users\pbant\AppData\Local\Temp\ccAmOMRv.s 			page 50


 1492              	.LBE617:
 1493              	.LBE631:
 1494              	.LBE633:
  11:TestTFT.cpp   **** 
 1495              		.loc 6 11 11 view .LVU413
 1496 0006 264A     		ldr	r2, .L38+4
 1497 0008 2649     		ldr	r1, .L38+8
 1498              	.LBB634:
 1499              	.LBB632:
 1500              	.LBB618:
 1501              	.LBB616:
 1502              	.LBB615:
 1503              		.loc 9 166 34 view .LVU414
 1504 000a 0360     		str	r3, [r0]
 1505              	.LVL65:
 1506              		.loc 9 166 34 view .LVU415
 1507              	.LBE615:
 1508              	.LBE616:
 1509              	.LBE618:
 1510              	.LBB619:
 1511              	.LBI619:
  95:../../../../Desktop/DaisyExamples/libDaisy//src/hid/audio.h ****     ~AudioHandle() {}
 1512              		.loc 5 95 5 is_stmt 1 view .LVU416
 1513              	.LBB620:
 1514              	.LBB621:
  95:../../../../Desktop/DaisyExamples/libDaisy//src/hid/audio.h ****     ~AudioHandle() {}
 1515              		.loc 5 95 35 is_stmt 0 view .LVU417
 1516 000c 4361     		str	r3, [r0, #20]
 1517              	.LVL66:
  95:../../../../Desktop/DaisyExamples/libDaisy//src/hid/audio.h ****     ~AudioHandle() {}
 1518              		.loc 5 95 35 view .LVU418
 1519              	.LBE621:
 1520              	.LBE620:
 1521              	.LBE619:
 1522              	.LBB622:
 1523              	.LBI622:
 109:../../../../Desktop/DaisyExamples/libDaisy//src/per/adc.h ****     ~AdcHandle() {}
 1524              		.loc 4 109 5 is_stmt 1 view .LVU419
 109:../../../../Desktop/DaisyExamples/libDaisy//src/per/adc.h ****     ~AdcHandle() {}
 1525              		.loc 4 109 5 is_stmt 0 view .LVU420
 1526              	.LBE622:
 1527              	.LBB623:
 1528              	.LBI623:
 1529              		.file 10 "../../../../Desktop/DaisyExamples/libDaisy//src/per/dac.h"
   1:../../../../Desktop/DaisyExamples/libDaisy//src/per/dac.h **** #pragma once
   2:../../../../Desktop/DaisyExamples/libDaisy//src/per/dac.h **** #ifndef DSY_DAC_H
   3:../../../../Desktop/DaisyExamples/libDaisy//src/per/dac.h **** #define DSY_DAC_H
   4:../../../../Desktop/DaisyExamples/libDaisy//src/per/dac.h **** 
   5:../../../../Desktop/DaisyExamples/libDaisy//src/per/dac.h **** #include "daisy_core.h"
   6:../../../../Desktop/DaisyExamples/libDaisy//src/per/dac.h **** 
   7:../../../../Desktop/DaisyExamples/libDaisy//src/per/dac.h **** namespace daisy
   8:../../../../Desktop/DaisyExamples/libDaisy//src/per/dac.h **** {
   9:../../../../Desktop/DaisyExamples/libDaisy//src/per/dac.h **** /** @brief DAC handle for Built-in DAC Peripheral 
  10:../../../../Desktop/DaisyExamples/libDaisy//src/per/dac.h ****  *  @ingroup per_analog
  11:../../../../Desktop/DaisyExamples/libDaisy//src/per/dac.h ****  ** 
  12:../../../../Desktop/DaisyExamples/libDaisy//src/per/dac.h ****  ** For now only Normal Mode is supported,
  13:../../../../Desktop/DaisyExamples/libDaisy//src/per/dac.h ****  ** Sample and hold mode provides reduced power consumption, but requires a bit more setup.
ARM GAS  C:\Users\pbant\AppData\Local\Temp\ccAmOMRv.s 			page 51


  14:../../../../Desktop/DaisyExamples/libDaisy//src/per/dac.h ****  **
  15:../../../../Desktop/DaisyExamples/libDaisy//src/per/dac.h ****  ** For now connecting the DAC through other internal peripherals is also not supported.
  16:../../../../Desktop/DaisyExamples/libDaisy//src/per/dac.h ****  **
  17:../../../../Desktop/DaisyExamples/libDaisy//src/per/dac.h ****  ** Since the DAC channels have dedicated pins we don't need to pass in a pin config like with
  18:../../../../Desktop/DaisyExamples/libDaisy//src/per/dac.h ****  ** other modules. However, it is still important to not try to use the DAC pins for anything else.
  19:../../../../Desktop/DaisyExamples/libDaisy//src/per/dac.h ****  ** DAC Channel 1 is on PA4, and DAC Channel 2 is on PA5
  20:../../../../Desktop/DaisyExamples/libDaisy//src/per/dac.h ****  ***/
  21:../../../../Desktop/DaisyExamples/libDaisy//src/per/dac.h **** class DacHandle
  22:../../../../Desktop/DaisyExamples/libDaisy//src/per/dac.h **** {
  23:../../../../Desktop/DaisyExamples/libDaisy//src/per/dac.h ****   public:
  24:../../../../Desktop/DaisyExamples/libDaisy//src/per/dac.h ****     /** Return Values for the DacHandle class */
  25:../../../../Desktop/DaisyExamples/libDaisy//src/per/dac.h ****     enum class Result
  26:../../../../Desktop/DaisyExamples/libDaisy//src/per/dac.h ****     {
  27:../../../../Desktop/DaisyExamples/libDaisy//src/per/dac.h ****         OK,
  28:../../../../Desktop/DaisyExamples/libDaisy//src/per/dac.h ****         ERR,
  29:../../../../Desktop/DaisyExamples/libDaisy//src/per/dac.h ****     };
  30:../../../../Desktop/DaisyExamples/libDaisy//src/per/dac.h **** 
  31:../../../../Desktop/DaisyExamples/libDaisy//src/per/dac.h ****     /** Selects which channel(s) will be configured for use. */
  32:../../../../Desktop/DaisyExamples/libDaisy//src/per/dac.h ****     enum class Channel
  33:../../../../Desktop/DaisyExamples/libDaisy//src/per/dac.h ****     {
  34:../../../../Desktop/DaisyExamples/libDaisy//src/per/dac.h ****         ONE,
  35:../../../../Desktop/DaisyExamples/libDaisy//src/per/dac.h ****         TWO,
  36:../../../../Desktop/DaisyExamples/libDaisy//src/per/dac.h ****         BOTH,
  37:../../../../Desktop/DaisyExamples/libDaisy//src/per/dac.h ****     };
  38:../../../../Desktop/DaisyExamples/libDaisy//src/per/dac.h **** 
  39:../../../../Desktop/DaisyExamples/libDaisy//src/per/dac.h ****     /** Sets the Mode for the DAC channels.
  40:../../../../Desktop/DaisyExamples/libDaisy//src/per/dac.h ****      **
  41:../../../../Desktop/DaisyExamples/libDaisy//src/per/dac.h ****      ** Polling mode uses the blocking mode to transmit a single value at a time.
  42:../../../../Desktop/DaisyExamples/libDaisy//src/per/dac.h ****      **
  43:../../../../Desktop/DaisyExamples/libDaisy//src/per/dac.h ****      ** DMA mode uses a buffer, and periodically transmits it triggering a 
  44:../../../../Desktop/DaisyExamples/libDaisy//src/per/dac.h ****      ** callback to fill the buffer when it is ready for more samples.
  45:../../../../Desktop/DaisyExamples/libDaisy//src/per/dac.h ****      ***/
  46:../../../../Desktop/DaisyExamples/libDaisy//src/per/dac.h ****     enum class Mode
  47:../../../../Desktop/DaisyExamples/libDaisy//src/per/dac.h ****     {
  48:../../../../Desktop/DaisyExamples/libDaisy//src/per/dac.h ****         POLLING,
  49:../../../../Desktop/DaisyExamples/libDaisy//src/per/dac.h ****         DMA,
  50:../../../../Desktop/DaisyExamples/libDaisy//src/per/dac.h ****     };
  51:../../../../Desktop/DaisyExamples/libDaisy//src/per/dac.h **** 
  52:../../../../Desktop/DaisyExamples/libDaisy//src/per/dac.h ****     /** Sets the number of bits per sample transmitted out of the DAC.
  53:../../../../Desktop/DaisyExamples/libDaisy//src/per/dac.h ****      ** The output range will be: 0V - VDDA
  54:../../../../Desktop/DaisyExamples/libDaisy//src/per/dac.h ****      ** The resolution will be roughly: bitdepth / (VDDA - 0V) 
  55:../../../../Desktop/DaisyExamples/libDaisy//src/per/dac.h ****      ***/
  56:../../../../Desktop/DaisyExamples/libDaisy//src/per/dac.h ****     enum class BitDepth
  57:../../../../Desktop/DaisyExamples/libDaisy//src/per/dac.h ****     {
  58:../../../../Desktop/DaisyExamples/libDaisy//src/per/dac.h ****         BITS_8,
  59:../../../../Desktop/DaisyExamples/libDaisy//src/per/dac.h ****         BITS_12
  60:../../../../Desktop/DaisyExamples/libDaisy//src/per/dac.h ****     };
  61:../../../../Desktop/DaisyExamples/libDaisy//src/per/dac.h **** 
  62:../../../../Desktop/DaisyExamples/libDaisy//src/per/dac.h ****     /** Sets whether the DAC output is buffered for higher drive ability. */
  63:../../../../Desktop/DaisyExamples/libDaisy//src/per/dac.h ****     enum class BufferState
  64:../../../../Desktop/DaisyExamples/libDaisy//src/per/dac.h ****     {
  65:../../../../Desktop/DaisyExamples/libDaisy//src/per/dac.h ****         ENABLED,
  66:../../../../Desktop/DaisyExamples/libDaisy//src/per/dac.h ****         DISABLED,
  67:../../../../Desktop/DaisyExamples/libDaisy//src/per/dac.h ****     };
  68:../../../../Desktop/DaisyExamples/libDaisy//src/per/dac.h **** 
  69:../../../../Desktop/DaisyExamples/libDaisy//src/per/dac.h ****     /** Configuration structure for initializing the DAC structure. */
  70:../../../../Desktop/DaisyExamples/libDaisy//src/per/dac.h ****     struct Config
ARM GAS  C:\Users\pbant\AppData\Local\Temp\ccAmOMRv.s 			page 52


  71:../../../../Desktop/DaisyExamples/libDaisy//src/per/dac.h ****     {
  72:../../../../Desktop/DaisyExamples/libDaisy//src/per/dac.h ****         /** Target Samplerate in Hz used to configure the internal 
  73:../../../../Desktop/DaisyExamples/libDaisy//src/per/dac.h ****          ** timebase for DMA mode. Does nothing in POLLING mode.
  74:../../../../Desktop/DaisyExamples/libDaisy//src/per/dac.h ****          ** If the value is 0 at Init time this will default to 48000Hz 
  75:../../../../Desktop/DaisyExamples/libDaisy//src/per/dac.h ****          ** otherwise the driver will attempt meet the target.*/
  76:../../../../Desktop/DaisyExamples/libDaisy//src/per/dac.h ****         uint32_t target_samplerate;
  77:../../../../Desktop/DaisyExamples/libDaisy//src/per/dac.h **** 
  78:../../../../Desktop/DaisyExamples/libDaisy//src/per/dac.h ****         Channel     chn;
  79:../../../../Desktop/DaisyExamples/libDaisy//src/per/dac.h ****         Mode        mode;
  80:../../../../Desktop/DaisyExamples/libDaisy//src/per/dac.h ****         BitDepth    bitdepth;
  81:../../../../Desktop/DaisyExamples/libDaisy//src/per/dac.h ****         BufferState buff_state;
  82:../../../../Desktop/DaisyExamples/libDaisy//src/per/dac.h ****     };
  83:../../../../Desktop/DaisyExamples/libDaisy//src/per/dac.h **** 
  84:../../../../Desktop/DaisyExamples/libDaisy//src/per/dac.h ****     DacHandle() : pimpl_(nullptr) {}
 1530              		.loc 10 84 5 is_stmt 1 view .LVU421
 1531              	.LBB624:
 1532              	.LBB625:
 1533              		.loc 10 84 33 is_stmt 0 view .LVU422
 1534 000e 0362     		str	r3, [r0, #32]
 1535              	.LVL67:
 1536              		.loc 10 84 33 view .LVU423
 1537              	.LBE625:
 1538              	.LBE624:
 1539              	.LBE623:
 1540              	.LBB626:
 1541              	.LBI626:
  40:../../../../Desktop/DaisyExamples/libDaisy//src/hid/usb.h **** 
 1542              		.loc 3 40 5 is_stmt 1 view .LVU424
  40:../../../../Desktop/DaisyExamples/libDaisy//src/hid/usb.h **** 
 1543              		.loc 3 40 5 is_stmt 0 view .LVU425
 1544              	.LBE626:
 1545              	.LBB627:
 1546              	.LBI627:
  96:../../../../Desktop/DaisyExamples/libDaisy//src/sys/system.h ****     ~System() {}
 1547              		.loc 2 96 5 is_stmt 1 view .LVU426
  96:../../../../Desktop/DaisyExamples/libDaisy//src/sys/system.h ****     ~System() {}
 1548              		.loc 2 96 5 is_stmt 0 view .LVU427
 1549              	.LBE627:
 1550              	.LBB628:
 1551              	.LBI628:
 1552              		.file 11 "../../../../Desktop/DaisyExamples/libDaisy//src/per/sai.h"
   1:../../../../Desktop/DaisyExamples/libDaisy//src/per/sai.h **** #pragma once
   2:../../../../Desktop/DaisyExamples/libDaisy//src/per/sai.h **** #ifndef DSY_SAI_H
   3:../../../../Desktop/DaisyExamples/libDaisy//src/per/sai.h **** #define DSY_SAI_H
   4:../../../../Desktop/DaisyExamples/libDaisy//src/per/sai.h **** 
   5:../../../../Desktop/DaisyExamples/libDaisy//src/per/sai.h **** #include "daisy_core.h"
   6:../../../../Desktop/DaisyExamples/libDaisy//src/per/sai.h **** 
   7:../../../../Desktop/DaisyExamples/libDaisy//src/per/sai.h **** namespace daisy
   8:../../../../Desktop/DaisyExamples/libDaisy//src/per/sai.h **** {
   9:../../../../Desktop/DaisyExamples/libDaisy//src/per/sai.h **** /** 
  10:../../../../Desktop/DaisyExamples/libDaisy//src/per/sai.h ****  * Support for I2S Audio Protocol with different bit-depth, samplerate options
  11:../../../../Desktop/DaisyExamples/libDaisy//src/per/sai.h ****  * Allows for master or slave, as well as freedom of selecting direction, 
  12:../../../../Desktop/DaisyExamples/libDaisy//src/per/sai.h ****  * and other behavior for each peripheral, and block.
  13:../../../../Desktop/DaisyExamples/libDaisy//src/per/sai.h ****  * 
  14:../../../../Desktop/DaisyExamples/libDaisy//src/per/sai.h ****  * DMA Transfer commands must use buffers located within non-cached memory or use cache maintenance
  15:../../../../Desktop/DaisyExamples/libDaisy//src/per/sai.h ****  * To declare an unitialized global element in the DMA memory section:
  16:../../../../Desktop/DaisyExamples/libDaisy//src/per/sai.h ****  *    int32_t DSY_DMA_BUFFER_SECTOR my_buffer[96];
ARM GAS  C:\Users\pbant\AppData\Local\Temp\ccAmOMRv.s 			page 53


  17:../../../../Desktop/DaisyExamples/libDaisy//src/per/sai.h ****  *
  18:../../../../Desktop/DaisyExamples/libDaisy//src/per/sai.h ****  * Callback functions will be called once per half of the buffer. In the above example, 
  19:../../../../Desktop/DaisyExamples/libDaisy//src/per/sai.h ****  * the callback function would be called once for every 48 samples.
  20:../../../../Desktop/DaisyExamples/libDaisy//src/per/sai.h ****  * 
  21:../../../../Desktop/DaisyExamples/libDaisy//src/per/sai.h ****  * Use SAI Handle like this:
  22:../../../../Desktop/DaisyExamples/libDaisy//src/per/sai.h ****  * 
  23:../../../../Desktop/DaisyExamples/libDaisy//src/per/sai.h ****  *  SaiHandle::Config sai_config;
  24:../../../../Desktop/DaisyExamples/libDaisy//src/per/sai.h ****  *  sai_config.periph          = SaiHandle::Config::Peripheral::SAI_1;
  25:../../../../Desktop/DaisyExamples/libDaisy//src/per/sai.h ****  *  sai_config.sr              = SaiHandle::Config::SampleRate::SAI_48KHZ;
  26:../../../../Desktop/DaisyExamples/libDaisy//src/per/sai.h ****  *  sai_config.bit_depth       = SaiHandle::Config::BitDepth::SAI_24BIT;
  27:../../../../Desktop/DaisyExamples/libDaisy//src/per/sai.h ****  *  sai_config.a_sync          = SaiHandle::Config::Sync::MASTER;
  28:../../../../Desktop/DaisyExamples/libDaisy//src/per/sai.h ****  *  sai_config.b_sync          = SaiHandle::Config::Sync::SLAVE;
  29:../../../../Desktop/DaisyExamples/libDaisy//src/per/sai.h ****  *  sai_config.a_dir           = SaiHandle::Config::Direction::RECEIVE;
  30:../../../../Desktop/DaisyExamples/libDaisy//src/per/sai.h ****  *  sai_config.b_dir           = SaiHandle::Config::Direction::TRANSMIT;
  31:../../../../Desktop/DaisyExamples/libDaisy//src/per/sai.h ****  *  sai_config.pin_config.fs   = {DSY_GPIOE, 4};
  32:../../../../Desktop/DaisyExamples/libDaisy//src/per/sai.h ****  *  sai_config.pin_config.mclk = {DSY_GPIOE, 2};
  33:../../../../Desktop/DaisyExamples/libDaisy//src/per/sai.h ****  *  sai_config.pin_config.sck  = {DSY_GPIOE, 5};
  34:../../../../Desktop/DaisyExamples/libDaisy//src/per/sai.h ****  *  sai_config.pin_config.sa   = {DSY_GPIOE, 6};
  35:../../../../Desktop/DaisyExamples/libDaisy//src/per/sai.h ****  *  sai_config.pin_config.sb   = {DSY_GPIOE, 3};
  36:../../../../Desktop/DaisyExamples/libDaisy//src/per/sai.h ****  *  // Then Initialize
  37:../../../../Desktop/DaisyExamples/libDaisy//src/per/sai.h ****  *  SaiHandle sai;
  38:../../../../Desktop/DaisyExamples/libDaisy//src/per/sai.h ****  *  sai.Init(sai_config);
  39:../../../../Desktop/DaisyExamples/libDaisy//src/per/sai.h ****  *  // Now you can use it:
  40:../../../../Desktop/DaisyExamples/libDaisy//src/per/sai.h ****  *  sai.StartDma(. . .);
  41:../../../../Desktop/DaisyExamples/libDaisy//src/per/sai.h ****  */
  42:../../../../Desktop/DaisyExamples/libDaisy//src/per/sai.h **** class SaiHandle
  43:../../../../Desktop/DaisyExamples/libDaisy//src/per/sai.h **** {
  44:../../../../Desktop/DaisyExamples/libDaisy//src/per/sai.h ****   public:
  45:../../../../Desktop/DaisyExamples/libDaisy//src/per/sai.h ****     /** Contains settings for initialising an SAI Interface */
  46:../../../../Desktop/DaisyExamples/libDaisy//src/per/sai.h ****     struct Config
  47:../../../../Desktop/DaisyExamples/libDaisy//src/per/sai.h ****     {
  48:../../../../Desktop/DaisyExamples/libDaisy//src/per/sai.h ****         /** Specifies the internal peripheral to use (mapped to different hardware pins) */
  49:../../../../Desktop/DaisyExamples/libDaisy//src/per/sai.h ****         enum class Peripheral
  50:../../../../Desktop/DaisyExamples/libDaisy//src/per/sai.h ****         {
  51:../../../../Desktop/DaisyExamples/libDaisy//src/per/sai.h ****             SAI_1,
  52:../../../../Desktop/DaisyExamples/libDaisy//src/per/sai.h ****             SAI_2,
  53:../../../../Desktop/DaisyExamples/libDaisy//src/per/sai.h ****         };
  54:../../../../Desktop/DaisyExamples/libDaisy//src/per/sai.h **** 
  55:../../../../Desktop/DaisyExamples/libDaisy//src/per/sai.h ****         /** Rate at which samples will be streaming to/from the device. */
  56:../../../../Desktop/DaisyExamples/libDaisy//src/per/sai.h ****         enum class SampleRate
  57:../../../../Desktop/DaisyExamples/libDaisy//src/per/sai.h ****         {
  58:../../../../Desktop/DaisyExamples/libDaisy//src/per/sai.h ****             SAI_8KHZ,
  59:../../../../Desktop/DaisyExamples/libDaisy//src/per/sai.h ****             SAI_16KHZ,
  60:../../../../Desktop/DaisyExamples/libDaisy//src/per/sai.h ****             SAI_32KHZ,
  61:../../../../Desktop/DaisyExamples/libDaisy//src/per/sai.h ****             SAI_48KHZ,
  62:../../../../Desktop/DaisyExamples/libDaisy//src/per/sai.h ****             SAI_96KHZ,
  63:../../../../Desktop/DaisyExamples/libDaisy//src/per/sai.h ****         };
  64:../../../../Desktop/DaisyExamples/libDaisy//src/per/sai.h **** 
  65:../../../../Desktop/DaisyExamples/libDaisy//src/per/sai.h ****         /** Bit Depth that the hardware expects to be transferred to/from the device. */
  66:../../../../Desktop/DaisyExamples/libDaisy//src/per/sai.h ****         enum class BitDepth
  67:../../../../Desktop/DaisyExamples/libDaisy//src/per/sai.h ****         {
  68:../../../../Desktop/DaisyExamples/libDaisy//src/per/sai.h ****             SAI_16BIT,
  69:../../../../Desktop/DaisyExamples/libDaisy//src/per/sai.h ****             SAI_24BIT,
  70:../../../../Desktop/DaisyExamples/libDaisy//src/per/sai.h ****             SAI_32BIT,
  71:../../../../Desktop/DaisyExamples/libDaisy//src/per/sai.h ****         };
  72:../../../../Desktop/DaisyExamples/libDaisy//src/per/sai.h **** 
  73:../../../../Desktop/DaisyExamples/libDaisy//src/per/sai.h ****         /** Specifies whether a particular block is the master or the slave 
ARM GAS  C:\Users\pbant\AppData\Local\Temp\ccAmOMRv.s 			page 54


  74:../../../../Desktop/DaisyExamples/libDaisy//src/per/sai.h ****          ** If both are set to slave, no MCLK signal will be used, and it is
  75:../../../../Desktop/DaisyExamples/libDaisy//src/per/sai.h ****          ** expected that the codec will have its own xtal.
  76:../../../../Desktop/DaisyExamples/libDaisy//src/per/sai.h ****          */
  77:../../../../Desktop/DaisyExamples/libDaisy//src/per/sai.h ****         enum class Sync
  78:../../../../Desktop/DaisyExamples/libDaisy//src/per/sai.h ****         {
  79:../../../../Desktop/DaisyExamples/libDaisy//src/per/sai.h ****             MASTER,
  80:../../../../Desktop/DaisyExamples/libDaisy//src/per/sai.h ****             SLAVE,
  81:../../../../Desktop/DaisyExamples/libDaisy//src/per/sai.h ****         };
  82:../../../../Desktop/DaisyExamples/libDaisy//src/per/sai.h **** 
  83:../../../../Desktop/DaisyExamples/libDaisy//src/per/sai.h ****         /** Specifies the direction for each peripheral block. */
  84:../../../../Desktop/DaisyExamples/libDaisy//src/per/sai.h ****         enum class Direction
  85:../../../../Desktop/DaisyExamples/libDaisy//src/per/sai.h ****         {
  86:../../../../Desktop/DaisyExamples/libDaisy//src/per/sai.h ****             TRANSMIT,
  87:../../../../Desktop/DaisyExamples/libDaisy//src/per/sai.h ****             RECEIVE,
  88:../../../../Desktop/DaisyExamples/libDaisy//src/per/sai.h ****         };
  89:../../../../Desktop/DaisyExamples/libDaisy//src/per/sai.h **** 
  90:../../../../Desktop/DaisyExamples/libDaisy//src/per/sai.h ****         Peripheral periph;
  91:../../../../Desktop/DaisyExamples/libDaisy//src/per/sai.h ****         struct
  92:../../../../Desktop/DaisyExamples/libDaisy//src/per/sai.h ****         {
  93:../../../../Desktop/DaisyExamples/libDaisy//src/per/sai.h ****             dsy_gpio_pin mclk, fs, sck, sa, sb;
  94:../../../../Desktop/DaisyExamples/libDaisy//src/per/sai.h ****         } pin_config;
  95:../../../../Desktop/DaisyExamples/libDaisy//src/per/sai.h ****         SampleRate sr;
  96:../../../../Desktop/DaisyExamples/libDaisy//src/per/sai.h ****         BitDepth   bit_depth;
  97:../../../../Desktop/DaisyExamples/libDaisy//src/per/sai.h ****         Sync       a_sync, b_sync;
  98:../../../../Desktop/DaisyExamples/libDaisy//src/per/sai.h ****         Direction  a_dir, b_dir;
  99:../../../../Desktop/DaisyExamples/libDaisy//src/per/sai.h ****     };
 100:../../../../Desktop/DaisyExamples/libDaisy//src/per/sai.h **** 
 101:../../../../Desktop/DaisyExamples/libDaisy//src/per/sai.h ****     /** Return values for SAI functions */
 102:../../../../Desktop/DaisyExamples/libDaisy//src/per/sai.h ****     enum class Result
 103:../../../../Desktop/DaisyExamples/libDaisy//src/per/sai.h ****     {
 104:../../../../Desktop/DaisyExamples/libDaisy//src/per/sai.h ****         OK,
 105:../../../../Desktop/DaisyExamples/libDaisy//src/per/sai.h ****         ERR,
 106:../../../../Desktop/DaisyExamples/libDaisy//src/per/sai.h ****     };
 107:../../../../Desktop/DaisyExamples/libDaisy//src/per/sai.h **** 
 108:../../../../Desktop/DaisyExamples/libDaisy//src/per/sai.h ****     SaiHandle() : pimpl_(nullptr) {}
 1553              		.loc 11 108 5 is_stmt 1 view .LVU428
 1554              	.LBB629:
 1555              	.LBB630:
 1556              		.loc 11 108 33 is_stmt 0 view .LVU429
 1557 0010 C363     		str	r3, [r0, #60]
 1558              	.LVL68:
 1559              		.loc 11 108 33 view .LVU430
 1560              	.LBE630:
 1561              	.LBE629:
 1562              	.LBE628:
 1563              	.LBE632:
 1564              	.LBE634:
  11:TestTFT.cpp   **** 
 1565              		.loc 6 11 11 view .LVU431
 1566 0012 FFF7FEFF 		bl	__aeabi_atexit
 1567              	.LVL69:
 1568              	.LBB635:
 1569              	.LBI635:
 114:Frame.h       ****     }
 115:Frame.h       **** 
 116:Frame.h       ****     uint8_t m_R;
 117:Frame.h       ****     uint8_t m_G;
ARM GAS  C:\Users\pbant\AppData\Local\Temp\ccAmOMRv.s 			page 55


 118:Frame.h       ****     uint8_t m_B;
 119:Frame.h       ****     uint8_t m_Trans;
 120:Frame.h       **** };
 121:Frame.h       **** 
 122:Frame.h       **** //***********************************************************************************
 123:Frame.h       **** // RGB
 124:Frame.h       **** // Définition d'un pixel RGB 
 125:Frame.h       **** //*********************************************************************************** 
 126:Frame.h       **** struct RGB {
 127:Frame.h       ****     friend class cRBG_Frame;
 128:Frame.h       **** 	// --------------------------------------------------------------------------
 129:Frame.h       **** 	// Mise à jour d'un pixel et indication que le bloc a changé d'état
 130:Frame.h       ****     void inline set(cColor Color){
 131:Frame.h       ****         R = Color.m_R;
 132:Frame.h       ****         G = Color.m_G;
 133:Frame.h       ****         B = Color.m_B;
 134:Frame.h       ****         *m_pChange = true;
 135:Frame.h       ****     }
 136:Frame.h       **** 
 137:Frame.h       ****     // --------------------------------------------------------------------------
 138:Frame.h       **** 	// Lecture de la composante Rouge 
 139:Frame.h       ****     uint8_t inline getR(){
 140:Frame.h       ****         return R;
 141:Frame.h       ****     }
 142:Frame.h       ****     // --------------------------------------------------------------------------
 143:Frame.h       **** 	// Lecture de la composante Verte 
 144:Frame.h       ****     uint8_t inline getG(){
 145:Frame.h       ****         return G;
 146:Frame.h       ****     }
 147:Frame.h       **** 
 148:Frame.h       ****     // --------------------------------------------------------------------------
 149:Frame.h       **** 	// Lecture de la composante Bleue 
 150:Frame.h       ****     uint8_t inline getB(){
 151:Frame.h       ****         return B;
 152:Frame.h       ****     }
 153:Frame.h       **** 
 154:Frame.h       ****     // --------------------------------------------------------------------------
 155:Frame.h       ****     // Données de la classe
 156:Frame.h       ****     protected :
 157:Frame.h       ****     uint8_t R;          // Composante Rouge
 158:Frame.h       ****     uint8_t G;          // Composante Verte
 159:Frame.h       ****     uint8_t B;          // Composante Bleue
 160:Frame.h       ****     bool *m_pChange;    // Indicateur de changement d'état (pointe sur un tableau de bloc) 
 161:Frame.h       **** };
 162:Frame.h       **** 
 163:Frame.h       **** //***********************************************************************************
 164:Frame.h       **** // cRBG_Frame
 165:Frame.h       **** //  Gestion de la framme
 166:Frame.h       **** //*********************************************************************************** 
 167:Frame.h       **** 
 168:Frame.h       **** //   Pour le fonctionnement du DMA cette structure doit être instanciée dans la
 169:Frame.h       **** //   mémoire DMA_BUFFER_MEM_SECTION
 170:Frame.h       **** struct FIFO_Data {
 1570              		.loc 7 170 8 is_stmt 1 view .LVU432
 1571              	.LBB636:
 1572              		.loc 7 170 8 view .LVU433
 1573 0016 244B     		ldr	r3, .L38+12
ARM GAS  C:\Users\pbant\AppData\Local\Temp\ccAmOMRv.s 			page 56


 1574 0018 03F13201 		add	r1, r3, #50
 1575              	.LBE636:
 1576              	.LBE635:
  11:TestTFT.cpp   **** 
 1577              		.loc 6 11 11 is_stmt 0 view .LVU434
 1578 001c 1A46     		mov	r2, r3
 1579              	.L31:
 1580              	.LVL70:
 1581              	.LBB648:
 1582              	.LBB647:
 1583              	.LBB637:
 1584              	.LBI637:
  28:Frame.h       ****         m_Commande = TFT_CASET;
 1585              		.loc 7 28 5 is_stmt 1 view .LVU435
 1586              	.LBB638:
  29:Frame.h       ****     }
 1587              		.loc 7 29 9 view .LVU436
  29:Frame.h       ****     }
 1588              		.loc 7 29 20 is_stmt 0 view .LVU437
 1589 001e 2A20     		movs	r0, #42
 1590 0020 02F8050B 		strb	r0, [r2], #5
 1591              	.LVL71:
  29:Frame.h       ****     }
 1592              		.loc 7 29 20 view .LVU438
 1593              	.LBE638:
 1594              	.LBE637:
 1595              		.loc 7 170 8 is_stmt 1 view .LVU439
 1596              		.loc 7 170 8 view .LVU440
 1597 0024 8A42     		cmp	r2, r1
 1598 0026 FAD1     		bne	.L31
 1599 0028 1F4A     		ldr	r2, .L38+12
 1600              	.L32:
 1601              	.LVL72:
 1602              	.LBB639:
 1603              	.LBI639:
  58:Frame.h       ****         m_Commande = TFT_RASET;
 1604              		.loc 7 58 5 view .LVU441
 1605              	.LBB640:
  59:Frame.h       ****     }
 1606              		.loc 7 59 9 view .LVU442
 1607              	.LBE640:
 1608              	.LBE639:
 1609              		.loc 7 170 8 is_stmt 0 view .LVU443
 1610 002a 0532     		adds	r2, r2, #5
 1611              	.LVL73:
 1612              	.LBB643:
 1613              	.LBB641:
  59:Frame.h       ****     }
 1614              		.loc 7 59 20 view .LVU444
 1615 002c 2B20     		movs	r0, #43
 1616              	.LBE641:
 1617              	.LBE643:
 1618              		.loc 7 170 8 view .LVU445
 1619 002e 8A42     		cmp	r2, r1
 1620              	.LBB644:
 1621              	.LBB642:
  59:Frame.h       ****     }
ARM GAS  C:\Users\pbant\AppData\Local\Temp\ccAmOMRv.s 			page 57


 1622              		.loc 7 59 20 view .LVU446
 1623 0030 82F82D00 		strb	r0, [r2, #45]
 1624              	.LVL74:
  59:Frame.h       ****     }
 1625              		.loc 7 59 20 view .LVU447
 1626              	.LBE642:
 1627              	.LBE644:
 1628              		.loc 7 170 8 is_stmt 1 view .LVU448
 1629              		.loc 7 170 8 view .LVU449
 1630 0034 F9D1     		bne	.L32
 1631 0036 1D49     		ldr	r1, .L38+16
 1632              	.L33:
 1633              	.LVL75:
 1634              	.LBB645:
 1635              	.LBI645:
  89:Frame.h       ****         m_Commande = TFT_RAMWR;
 1636              		.loc 7 89 5 view .LVU450
 1637              	.LBB646:
  90:Frame.h       ****     }
 1638              		.loc 7 90 9 view .LVU451
  90:Frame.h       ****     }
 1639              		.loc 7 90 20 is_stmt 0 view .LVU452
 1640 0038 2C22     		movs	r2, #44
 1641 003a 83F86420 		strb	r2, [r3, #100]
 1642              	.LVL76:
  90:Frame.h       ****     }
 1643              		.loc 7 90 20 view .LVU453
 1644              	.LBE646:
 1645              	.LBE645:
 1646              		.loc 7 170 8 is_stmt 1 view .LVU454
 1647              		.loc 7 170 8 view .LVU455
 1648 003e 03F20163 		addw	r3, r3, #1537
 1649 0042 8B42     		cmp	r3, r1
 1650 0044 F8D1     		bne	.L33
 1651              	.LVL77:
 1652              		.loc 7 170 8 is_stmt 0 view .LVU456
 1653              	.LBE647:
 1654              	.LBE648:
 1655              	.LBB649:
 1656              	.LBI649:
 129:GFX.h         **** 
 1657              		.loc 8 129 5 is_stmt 1 view .LVU457
 1658              	.LBB650:
 1659              	.LBB651:
 1660              	.LBB652:
 1661              	.LBI652:
 171:Frame.h       ****     Cmd_CASET m_CmdCASET[SIZE_FIFO];
 172:Frame.h       ****     Cmd_RASET m_CmdRASET[SIZE_FIFO];
 173:Frame.h       ****     Cmd_RAMWR m_CmdRAWWR[SIZE_FIFO];
 174:Frame.h       **** };
 175:Frame.h       **** 
 176:Frame.h       **** // ================================
 177:Frame.h       **** // cRBG_Frame
 178:Frame.h       **** class cRBG_Frame  : protected TFT_SPI {
 179:Frame.h       ****     public:
 180:Frame.h       ****     // --------------------------------------------------------------------------
 181:Frame.h       ****     // Constructeur 
ARM GAS  C:\Users\pbant\AppData\Local\Temp\ccAmOMRv.s 			page 58


 182:Frame.h       ****     // FIFO_Data doit être instanciée dans la mémoire DMA_BUFFER_MEM_SECTION
 183:Frame.h       ****     cRBG_Frame(){
 1662              		.loc 7 183 5 view .LVU458
 1663              	.LBB653:
 1664              	.LBB654:
 1665              	.LBB655:
 1666              	.LBI655:
 1667              		.file 12 "TFT_SPI.h"
   1:TFT_SPI.h     **** //------------------------------------------------------------------------
   2:TFT_SPI.h     **** // Copyright(c) 2024 Dad Desing.
   3:TFT_SPI.h     **** //      Gestion d'une liaison SP vers un ecran 
   4:TFT_SPI.h     **** //------------------------------------------------------------------------
   5:TFT_SPI.h     **** #pragma once
   6:TFT_SPI.h     **** #include "daisy_seed.h"
   7:TFT_SPI.h     **** #include "per/spi.h"
   8:TFT_SPI.h     **** #include "per/gpio.h"
   9:TFT_SPI.h     **** #include "sys/system.h"
  10:TFT_SPI.h     **** #include "UserConfig.h"
  11:TFT_SPI.h     **** #include "ST7789_Defines.h"
  12:TFT_SPI.h     **** 
  13:TFT_SPI.h     **** using namespace daisy;
  14:TFT_SPI.h     **** extern DaisySeed hw;
  15:TFT_SPI.h     **** 
  16:TFT_SPI.h     **** enum class SPIMode {
  17:TFT_SPI.h     ****     Mode0,
  18:TFT_SPI.h     ****     Mode1,
  19:TFT_SPI.h     ****     Mode2,
  20:TFT_SPI.h     ****     Mode3
  21:TFT_SPI.h     **** };
  22:TFT_SPI.h     **** 
  23:TFT_SPI.h     **** enum class Rotation{
  24:TFT_SPI.h     ****     Degre_0,
  25:TFT_SPI.h     ****     Degre_90,
  26:TFT_SPI.h     ****     Degre_180,
  27:TFT_SPI.h     ****     Degre_270
  28:TFT_SPI.h     **** };
  29:TFT_SPI.h     **** 
  30:TFT_SPI.h     **** // Configuration des GPIO utilisés
  31:TFT_SPI.h     **** #define _TFT_SPI_PORT SpiHandle::Config::Peripheral::TFT_SPI_PORT
  32:TFT_SPI.h     **** #define _TFT_SPI_MODE SPIMode::TFT_SPI_MODE
  33:TFT_SPI.h     **** 
  34:TFT_SPI.h     **** // Configuration des GPIO utilisés
  35:TFT_SPI.h     **** #define _TFT_MOSI seed::TFT_MOSI
  36:TFT_SPI.h     **** #define _TFT_SCLK seed::TFT_SCLK
  37:TFT_SPI.h     **** #define _TFT_DC   seed::TFT_DC
  38:TFT_SPI.h     **** #define _TFT_RST  seed::TFT_RST 
  39:TFT_SPI.h     **** 
  40:TFT_SPI.h     **** //***********************************************************************************
  41:TFT_SPI.h     **** // TFT_SPI
  42:TFT_SPI.h     **** //  Gestion de la liaison SPI
  43:TFT_SPI.h     **** //*********************************************************************************** 
  44:TFT_SPI.h     **** class TFT_SPI {
 1668              		.loc 12 44 7 view .LVU459
 1669              	.LBB656:
 1670              	.LBI656:
 1671              		.file 13 "../../../../Desktop/DaisyExamples/libDaisy//src/per/spi.h"
   1:../../../../Desktop/DaisyExamples/libDaisy//src/per/spi.h **** #pragma once
ARM GAS  C:\Users\pbant\AppData\Local\Temp\ccAmOMRv.s 			page 59


   2:../../../../Desktop/DaisyExamples/libDaisy//src/per/spi.h **** #ifndef DSY_SPI_H
   3:../../../../Desktop/DaisyExamples/libDaisy//src/per/spi.h **** #define DSY_SPI_H
   4:../../../../Desktop/DaisyExamples/libDaisy//src/per/spi.h **** 
   5:../../../../Desktop/DaisyExamples/libDaisy//src/per/spi.h **** #include "daisy_core.h"
   6:../../../../Desktop/DaisyExamples/libDaisy//src/per/spi.h **** 
   7:../../../../Desktop/DaisyExamples/libDaisy//src/per/spi.h **** /* TODO:
   8:../../../../Desktop/DaisyExamples/libDaisy//src/per/spi.h **** - Add documentation
   9:../../../../Desktop/DaisyExamples/libDaisy//src/per/spi.h **** - Add IT
  10:../../../../Desktop/DaisyExamples/libDaisy//src/per/spi.h **** */
  11:../../../../Desktop/DaisyExamples/libDaisy//src/per/spi.h **** 
  12:../../../../Desktop/DaisyExamples/libDaisy//src/per/spi.h **** namespace daisy
  13:../../../../Desktop/DaisyExamples/libDaisy//src/per/spi.h **** {
  14:../../../../Desktop/DaisyExamples/libDaisy//src/per/spi.h **** /** @addtogroup serial
  15:../../../../Desktop/DaisyExamples/libDaisy//src/per/spi.h **** @{
  16:../../../../Desktop/DaisyExamples/libDaisy//src/per/spi.h **** */
  17:../../../../Desktop/DaisyExamples/libDaisy//src/per/spi.h **** 
  18:../../../../Desktop/DaisyExamples/libDaisy//src/per/spi.h **** /**  Handler for serial peripheral interface */
  19:../../../../Desktop/DaisyExamples/libDaisy//src/per/spi.h **** class SpiHandle
  20:../../../../Desktop/DaisyExamples/libDaisy//src/per/spi.h **** {
  21:../../../../Desktop/DaisyExamples/libDaisy//src/per/spi.h ****   public:
  22:../../../../Desktop/DaisyExamples/libDaisy//src/per/spi.h ****     struct Config
  23:../../../../Desktop/DaisyExamples/libDaisy//src/per/spi.h ****     {
  24:../../../../Desktop/DaisyExamples/libDaisy//src/per/spi.h ****         enum class Peripheral
  25:../../../../Desktop/DaisyExamples/libDaisy//src/per/spi.h ****         {
  26:../../../../Desktop/DaisyExamples/libDaisy//src/per/spi.h ****             SPI_1,
  27:../../../../Desktop/DaisyExamples/libDaisy//src/per/spi.h ****             SPI_2,
  28:../../../../Desktop/DaisyExamples/libDaisy//src/per/spi.h ****             SPI_3,
  29:../../../../Desktop/DaisyExamples/libDaisy//src/per/spi.h ****             SPI_4,
  30:../../../../Desktop/DaisyExamples/libDaisy//src/per/spi.h ****             SPI_5,
  31:../../../../Desktop/DaisyExamples/libDaisy//src/per/spi.h ****             SPI_6,
  32:../../../../Desktop/DaisyExamples/libDaisy//src/per/spi.h ****         };
  33:../../../../Desktop/DaisyExamples/libDaisy//src/per/spi.h **** 
  34:../../../../Desktop/DaisyExamples/libDaisy//src/per/spi.h ****         enum class Mode
  35:../../../../Desktop/DaisyExamples/libDaisy//src/per/spi.h ****         {
  36:../../../../Desktop/DaisyExamples/libDaisy//src/per/spi.h ****             MASTER,
  37:../../../../Desktop/DaisyExamples/libDaisy//src/per/spi.h ****             SLAVE,
  38:../../../../Desktop/DaisyExamples/libDaisy//src/per/spi.h ****         };
  39:../../../../Desktop/DaisyExamples/libDaisy//src/per/spi.h **** 
  40:../../../../Desktop/DaisyExamples/libDaisy//src/per/spi.h ****         enum class Direction
  41:../../../../Desktop/DaisyExamples/libDaisy//src/per/spi.h ****         {
  42:../../../../Desktop/DaisyExamples/libDaisy//src/per/spi.h ****             TWO_LINES,
  43:../../../../Desktop/DaisyExamples/libDaisy//src/per/spi.h ****             TWO_LINES_TX_ONLY,
  44:../../../../Desktop/DaisyExamples/libDaisy//src/per/spi.h ****             TWO_LINES_RX_ONLY,
  45:../../../../Desktop/DaisyExamples/libDaisy//src/per/spi.h ****             ONE_LINE,
  46:../../../../Desktop/DaisyExamples/libDaisy//src/per/spi.h ****         };
  47:../../../../Desktop/DaisyExamples/libDaisy//src/per/spi.h **** 
  48:../../../../Desktop/DaisyExamples/libDaisy//src/per/spi.h ****         enum class ClockPolarity
  49:../../../../Desktop/DaisyExamples/libDaisy//src/per/spi.h ****         {
  50:../../../../Desktop/DaisyExamples/libDaisy//src/per/spi.h ****             LOW,
  51:../../../../Desktop/DaisyExamples/libDaisy//src/per/spi.h ****             HIGH,
  52:../../../../Desktop/DaisyExamples/libDaisy//src/per/spi.h ****         };
  53:../../../../Desktop/DaisyExamples/libDaisy//src/per/spi.h **** 
  54:../../../../Desktop/DaisyExamples/libDaisy//src/per/spi.h ****         enum class ClockPhase
  55:../../../../Desktop/DaisyExamples/libDaisy//src/per/spi.h ****         {
  56:../../../../Desktop/DaisyExamples/libDaisy//src/per/spi.h ****             ONE_EDGE,
  57:../../../../Desktop/DaisyExamples/libDaisy//src/per/spi.h ****             TWO_EDGE,
  58:../../../../Desktop/DaisyExamples/libDaisy//src/per/spi.h ****         };
ARM GAS  C:\Users\pbant\AppData\Local\Temp\ccAmOMRv.s 			page 60


  59:../../../../Desktop/DaisyExamples/libDaisy//src/per/spi.h **** 
  60:../../../../Desktop/DaisyExamples/libDaisy//src/per/spi.h ****         enum class NSS
  61:../../../../Desktop/DaisyExamples/libDaisy//src/per/spi.h ****         {
  62:../../../../Desktop/DaisyExamples/libDaisy//src/per/spi.h ****             SOFT,
  63:../../../../Desktop/DaisyExamples/libDaisy//src/per/spi.h ****             HARD_INPUT,
  64:../../../../Desktop/DaisyExamples/libDaisy//src/per/spi.h ****             HARD_OUTPUT,
  65:../../../../Desktop/DaisyExamples/libDaisy//src/per/spi.h ****         };
  66:../../../../Desktop/DaisyExamples/libDaisy//src/per/spi.h **** 
  67:../../../../Desktop/DaisyExamples/libDaisy//src/per/spi.h ****         enum class BaudPrescaler
  68:../../../../Desktop/DaisyExamples/libDaisy//src/per/spi.h ****         {
  69:../../../../Desktop/DaisyExamples/libDaisy//src/per/spi.h ****             PS_2,
  70:../../../../Desktop/DaisyExamples/libDaisy//src/per/spi.h ****             PS_4,
  71:../../../../Desktop/DaisyExamples/libDaisy//src/per/spi.h ****             PS_8,
  72:../../../../Desktop/DaisyExamples/libDaisy//src/per/spi.h ****             PS_16,
  73:../../../../Desktop/DaisyExamples/libDaisy//src/per/spi.h ****             PS_32,
  74:../../../../Desktop/DaisyExamples/libDaisy//src/per/spi.h ****             PS_64,
  75:../../../../Desktop/DaisyExamples/libDaisy//src/per/spi.h ****             PS_128,
  76:../../../../Desktop/DaisyExamples/libDaisy//src/per/spi.h ****             PS_256,
  77:../../../../Desktop/DaisyExamples/libDaisy//src/per/spi.h ****         };
  78:../../../../Desktop/DaisyExamples/libDaisy//src/per/spi.h **** 
  79:../../../../Desktop/DaisyExamples/libDaisy//src/per/spi.h ****         struct
  80:../../../../Desktop/DaisyExamples/libDaisy//src/per/spi.h ****         {
  81:../../../../Desktop/DaisyExamples/libDaisy//src/per/spi.h ****             dsy_gpio_pin sclk; /**< & */
  82:../../../../Desktop/DaisyExamples/libDaisy//src/per/spi.h ****             dsy_gpio_pin miso; /**< & */
  83:../../../../Desktop/DaisyExamples/libDaisy//src/per/spi.h ****             dsy_gpio_pin mosi; /**< & */
  84:../../../../Desktop/DaisyExamples/libDaisy//src/per/spi.h ****             dsy_gpio_pin nss;  /**< & */
  85:../../../../Desktop/DaisyExamples/libDaisy//src/per/spi.h ****         } pin_config;
  86:../../../../Desktop/DaisyExamples/libDaisy//src/per/spi.h **** 
  87:../../../../Desktop/DaisyExamples/libDaisy//src/per/spi.h ****         Config()
  88:../../../../Desktop/DaisyExamples/libDaisy//src/per/spi.h ****         {
  89:../../../../Desktop/DaisyExamples/libDaisy//src/per/spi.h ****             // user must specify periph, mode, direction, nss, and pin_config
  90:../../../../Desktop/DaisyExamples/libDaisy//src/per/spi.h ****             datasize       = 8;
  91:../../../../Desktop/DaisyExamples/libDaisy//src/per/spi.h ****             clock_polarity = ClockPolarity::LOW;
  92:../../../../Desktop/DaisyExamples/libDaisy//src/per/spi.h ****             clock_phase    = ClockPhase::ONE_EDGE;
  93:../../../../Desktop/DaisyExamples/libDaisy//src/per/spi.h ****             baud_prescaler = BaudPrescaler::PS_8;
  94:../../../../Desktop/DaisyExamples/libDaisy//src/per/spi.h ****         }
  95:../../../../Desktop/DaisyExamples/libDaisy//src/per/spi.h **** 
  96:../../../../Desktop/DaisyExamples/libDaisy//src/per/spi.h ****         Peripheral    periph;
  97:../../../../Desktop/DaisyExamples/libDaisy//src/per/spi.h ****         Mode          mode;
  98:../../../../Desktop/DaisyExamples/libDaisy//src/per/spi.h ****         Direction     direction;
  99:../../../../Desktop/DaisyExamples/libDaisy//src/per/spi.h ****         unsigned long datasize;
 100:../../../../Desktop/DaisyExamples/libDaisy//src/per/spi.h ****         ClockPolarity clock_polarity;
 101:../../../../Desktop/DaisyExamples/libDaisy//src/per/spi.h ****         ClockPhase    clock_phase;
 102:../../../../Desktop/DaisyExamples/libDaisy//src/per/spi.h ****         NSS           nss;
 103:../../../../Desktop/DaisyExamples/libDaisy//src/per/spi.h ****         BaudPrescaler baud_prescaler;
 104:../../../../Desktop/DaisyExamples/libDaisy//src/per/spi.h ****     };
 105:../../../../Desktop/DaisyExamples/libDaisy//src/per/spi.h **** 
 106:../../../../Desktop/DaisyExamples/libDaisy//src/per/spi.h ****     SpiHandle() : pimpl_(nullptr) {}
 1672              		.loc 13 106 5 view .LVU460
 1673              		.loc 13 106 5 is_stmt 0 view .LVU461
 1674              	.LBE656:
 1675              	.LBB661:
 1676              	.LBI661:
  87:../../../../Desktop/DaisyExamples/libDaisy//src/per/spi.h ****         {
 1677              		.loc 13 87 9 is_stmt 1 view .LVU462
 1678              	.LBB662:
 1679              	.LBB663:
ARM GAS  C:\Users\pbant\AppData\Local\Temp\ccAmOMRv.s 			page 61


  90:../../../../Desktop/DaisyExamples/libDaisy//src/per/spi.h ****             clock_polarity = ClockPolarity::LOW;
 1680              		.loc 13 90 13 view .LVU463
  91:../../../../Desktop/DaisyExamples/libDaisy//src/per/spi.h ****             clock_phase    = ClockPhase::ONE_EDGE;
 1681              		.loc 13 91 13 view .LVU464
  92:../../../../Desktop/DaisyExamples/libDaisy//src/per/spi.h ****             baud_prescaler = BaudPrescaler::PS_8;
 1682              		.loc 13 92 13 view .LVU465
  93:../../../../Desktop/DaisyExamples/libDaisy//src/per/spi.h ****         }
 1683              		.loc 13 93 13 view .LVU466
  93:../../../../Desktop/DaisyExamples/libDaisy//src/per/spi.h ****         }
 1684              		.loc 13 93 13 is_stmt 0 view .LVU467
 1685              	.LBE663:
 1686              	.LBE662:
 1687              	.LBE661:
 1688              	.LBB672:
 1689              	.LBI672:
 1690              		.file 14 "../../../../Desktop/DaisyExamples/libDaisy//src/per/gpio.h"
   1:../../../../Desktop/DaisyExamples/libDaisy//src/per/gpio.h **** #pragma once
   2:../../../../Desktop/DaisyExamples/libDaisy//src/per/gpio.h **** #ifndef DSY_GPIO_H
   3:../../../../Desktop/DaisyExamples/libDaisy//src/per/gpio.h **** #define DSY_GPIO_H
   4:../../../../Desktop/DaisyExamples/libDaisy//src/per/gpio.h **** #include "daisy_core.h"
   5:../../../../Desktop/DaisyExamples/libDaisy//src/per/gpio.h **** 
   6:../../../../Desktop/DaisyExamples/libDaisy//src/per/gpio.h **** #ifdef __cplusplus
   7:../../../../Desktop/DaisyExamples/libDaisy//src/per/gpio.h **** 
   8:../../../../Desktop/DaisyExamples/libDaisy//src/per/gpio.h **** namespace daisy
   9:../../../../Desktop/DaisyExamples/libDaisy//src/per/gpio.h **** {
  10:../../../../Desktop/DaisyExamples/libDaisy//src/per/gpio.h **** /** @brief General Purpose I/O control 
  11:../../../../Desktop/DaisyExamples/libDaisy//src/per/gpio.h ****  *  @details peripheral control over a single GPIO
  12:../../../../Desktop/DaisyExamples/libDaisy//src/per/gpio.h ****  *  @ingroup peripheral
  13:../../../../Desktop/DaisyExamples/libDaisy//src/per/gpio.h ****  *   
  14:../../../../Desktop/DaisyExamples/libDaisy//src/per/gpio.h ****  *  Button Input (with internal Pullup resistor)
  15:../../../../Desktop/DaisyExamples/libDaisy//src/per/gpio.h ****  *  @include GPIO_Input.cpp 
  16:../../../../Desktop/DaisyExamples/libDaisy//src/per/gpio.h ****  * 
  17:../../../../Desktop/DaisyExamples/libDaisy//src/per/gpio.h ****  *  Output Example (perfect for blinking an LED)
  18:../../../../Desktop/DaisyExamples/libDaisy//src/per/gpio.h ****  *  @include GPIO_Output.cpp
  19:../../../../Desktop/DaisyExamples/libDaisy//src/per/gpio.h ****  * 
  20:../../../../Desktop/DaisyExamples/libDaisy//src/per/gpio.h **** */
  21:../../../../Desktop/DaisyExamples/libDaisy//src/per/gpio.h **** class GPIO
  22:../../../../Desktop/DaisyExamples/libDaisy//src/per/gpio.h **** {
  23:../../../../Desktop/DaisyExamples/libDaisy//src/per/gpio.h ****   public:
  24:../../../../Desktop/DaisyExamples/libDaisy//src/per/gpio.h ****     /** @brief Mode of operation for the specified GPIO */
  25:../../../../Desktop/DaisyExamples/libDaisy//src/per/gpio.h ****     enum class Mode
  26:../../../../Desktop/DaisyExamples/libDaisy//src/per/gpio.h ****     {
  27:../../../../Desktop/DaisyExamples/libDaisy//src/per/gpio.h ****         INPUT,     /**< Input for reading state of pin */
  28:../../../../Desktop/DaisyExamples/libDaisy//src/per/gpio.h ****         OUTPUT,    /**< Output w/ push-pull configuration */
  29:../../../../Desktop/DaisyExamples/libDaisy//src/per/gpio.h ****         OUTPUT_OD, /**< Output w/ open-drain configuration */
  30:../../../../Desktop/DaisyExamples/libDaisy//src/per/gpio.h ****         ANALOG,    /**< Analog for connection to ADC or DAC peripheral */
  31:../../../../Desktop/DaisyExamples/libDaisy//src/per/gpio.h ****     };
  32:../../../../Desktop/DaisyExamples/libDaisy//src/per/gpio.h **** 
  33:../../../../Desktop/DaisyExamples/libDaisy//src/per/gpio.h ****     /** @brief Configures whether an internal Pull up or Pull down resistor is used. 
  34:../../../../Desktop/DaisyExamples/libDaisy//src/per/gpio.h ****      *  
  35:../../../../Desktop/DaisyExamples/libDaisy//src/per/gpio.h ****      * Internal Pull up/down resistors are typically 40k ohms, and will be between
  36:../../../../Desktop/DaisyExamples/libDaisy//src/per/gpio.h ****      * 30k and 50k
  37:../../../../Desktop/DaisyExamples/libDaisy//src/per/gpio.h ****      * 
  38:../../../../Desktop/DaisyExamples/libDaisy//src/per/gpio.h ****      * When the Pin is configured in Analog mode, the pull up/down resistors are
  39:../../../../Desktop/DaisyExamples/libDaisy//src/per/gpio.h ****      * disabled by hardware. 
  40:../../../../Desktop/DaisyExamples/libDaisy//src/per/gpio.h ****      */
  41:../../../../Desktop/DaisyExamples/libDaisy//src/per/gpio.h ****     enum class Pull
ARM GAS  C:\Users\pbant\AppData\Local\Temp\ccAmOMRv.s 			page 62


  42:../../../../Desktop/DaisyExamples/libDaisy//src/per/gpio.h ****     {
  43:../../../../Desktop/DaisyExamples/libDaisy//src/per/gpio.h ****         NOPULL,   /**< No pull up resistor */
  44:../../../../Desktop/DaisyExamples/libDaisy//src/per/gpio.h ****         PULLUP,   /**< Internal pull up enabled */
  45:../../../../Desktop/DaisyExamples/libDaisy//src/per/gpio.h ****         PULLDOWN, /**< Internal pull down enabled*/
  46:../../../../Desktop/DaisyExamples/libDaisy//src/per/gpio.h ****     };
  47:../../../../Desktop/DaisyExamples/libDaisy//src/per/gpio.h **** 
  48:../../../../Desktop/DaisyExamples/libDaisy//src/per/gpio.h ****     /** @brief Output speed controls the drive strength, and slew rate of the pin */
  49:../../../../Desktop/DaisyExamples/libDaisy//src/per/gpio.h ****     enum class Speed
  50:../../../../Desktop/DaisyExamples/libDaisy//src/per/gpio.h ****     {
  51:../../../../Desktop/DaisyExamples/libDaisy//src/per/gpio.h ****         LOW,
  52:../../../../Desktop/DaisyExamples/libDaisy//src/per/gpio.h ****         MEDIUM,
  53:../../../../Desktop/DaisyExamples/libDaisy//src/per/gpio.h ****         HIGH,
  54:../../../../Desktop/DaisyExamples/libDaisy//src/per/gpio.h ****         VERY_HIGH,
  55:../../../../Desktop/DaisyExamples/libDaisy//src/per/gpio.h ****     };
  56:../../../../Desktop/DaisyExamples/libDaisy//src/per/gpio.h **** 
  57:../../../../Desktop/DaisyExamples/libDaisy//src/per/gpio.h ****     /** @brief Configuration for a given GPIO */
  58:../../../../Desktop/DaisyExamples/libDaisy//src/per/gpio.h ****     struct Config
  59:../../../../Desktop/DaisyExamples/libDaisy//src/per/gpio.h ****     {
  60:../../../../Desktop/DaisyExamples/libDaisy//src/per/gpio.h ****         Pin   pin;
  61:../../../../Desktop/DaisyExamples/libDaisy//src/per/gpio.h ****         Mode  mode;
  62:../../../../Desktop/DaisyExamples/libDaisy//src/per/gpio.h ****         Pull  pull;
  63:../../../../Desktop/DaisyExamples/libDaisy//src/per/gpio.h ****         Speed speed;
  64:../../../../Desktop/DaisyExamples/libDaisy//src/per/gpio.h **** 
  65:../../../../Desktop/DaisyExamples/libDaisy//src/per/gpio.h ****         /** Constructor with no arguments will prepare an invalid GPIO set as
  66:../../../../Desktop/DaisyExamples/libDaisy//src/per/gpio.h ****          *  an input, with no pullup. 
  67:../../../../Desktop/DaisyExamples/libDaisy//src/per/gpio.h ****          */
  68:../../../../Desktop/DaisyExamples/libDaisy//src/per/gpio.h ****         Config()
  69:../../../../Desktop/DaisyExamples/libDaisy//src/per/gpio.h ****         : pin(), mode(Mode::INPUT), pull(Pull::NOPULL), speed(Speed::LOW)
  70:../../../../Desktop/DaisyExamples/libDaisy//src/per/gpio.h ****         {
  71:../../../../Desktop/DaisyExamples/libDaisy//src/per/gpio.h ****         }
  72:../../../../Desktop/DaisyExamples/libDaisy//src/per/gpio.h ****     };
  73:../../../../Desktop/DaisyExamples/libDaisy//src/per/gpio.h **** 
  74:../../../../Desktop/DaisyExamples/libDaisy//src/per/gpio.h ****     GPIO() {}
 1691              		.loc 14 74 5 is_stmt 1 view .LVU468
 1692              	.LBB673:
 1693              	.LBB674:
 1694              	.LBI674:
  68:../../../../Desktop/DaisyExamples/libDaisy//src/per/gpio.h ****         : pin(), mode(Mode::INPUT), pull(Pull::NOPULL), speed(Speed::LOW)
 1695              		.loc 14 68 9 view .LVU469
 1696              	.LBB675:
 1697              	.LBB676:
 1698              	.LBB677:
 1699              	.LBI677:
 1700              		.file 15 "../../../../Desktop/DaisyExamples/libDaisy//src/daisy_core.h"
   1:../../../../Desktop/DaisyExamples/libDaisy//src/daisy_core.h **** #pragma once
   2:../../../../Desktop/DaisyExamples/libDaisy//src/daisy_core.h **** #ifndef DSY_CORE_HW_H
   3:../../../../Desktop/DaisyExamples/libDaisy//src/daisy_core.h **** #define DSY_CORE_HW_H /**< & */
   4:../../../../Desktop/DaisyExamples/libDaisy//src/daisy_core.h **** #include <stdint.h>
   5:../../../../Desktop/DaisyExamples/libDaisy//src/daisy_core.h **** #include <stdlib.h>
   6:../../../../Desktop/DaisyExamples/libDaisy//src/daisy_core.h **** 
   7:../../../../Desktop/DaisyExamples/libDaisy//src/daisy_core.h **** #if defined(_MSC_VER)
   8:../../../../Desktop/DaisyExamples/libDaisy//src/daisy_core.h **** #define FORCE_INLINE __forceinline /**< & */
   9:../../../../Desktop/DaisyExamples/libDaisy//src/daisy_core.h **** #elif defined(__clang__)
  10:../../../../Desktop/DaisyExamples/libDaisy//src/daisy_core.h **** #define FORCE_INLINE inline __attribute__((always_inline)) /**< & */
  11:../../../../Desktop/DaisyExamples/libDaisy//src/daisy_core.h **** #pragma clang diagnostic ignored "-Wduplicate-decl-specifier"
  12:../../../../Desktop/DaisyExamples/libDaisy//src/daisy_core.h **** #elif defined(__GNUC__)
  13:../../../../Desktop/DaisyExamples/libDaisy//src/daisy_core.h **** #define FORCE_INLINE inline __attribute__((always_inline)) /**< & */
ARM GAS  C:\Users\pbant\AppData\Local\Temp\ccAmOMRv.s 			page 63


  14:../../../../Desktop/DaisyExamples/libDaisy//src/daisy_core.h **** #else
  15:../../../../Desktop/DaisyExamples/libDaisy//src/daisy_core.h **** #error unknown compiler
  16:../../../../Desktop/DaisyExamples/libDaisy//src/daisy_core.h **** #endif
  17:../../../../Desktop/DaisyExamples/libDaisy//src/daisy_core.h **** 
  18:../../../../Desktop/DaisyExamples/libDaisy//src/daisy_core.h **** /** @addtogroup utility
  19:../../../../Desktop/DaisyExamples/libDaisy//src/daisy_core.h ****     @{
  20:../../../../Desktop/DaisyExamples/libDaisy//src/daisy_core.h **** */
  21:../../../../Desktop/DaisyExamples/libDaisy//src/daisy_core.h **** 
  22:../../../../Desktop/DaisyExamples/libDaisy//src/daisy_core.h **** /** Macro for area of memory that is configured as cacheless
  23:../../../../Desktop/DaisyExamples/libDaisy//src/daisy_core.h **** This should be used primarily for DMA buffers, and the like.
  24:../../../../Desktop/DaisyExamples/libDaisy//src/daisy_core.h **** */
  25:../../../../Desktop/DaisyExamples/libDaisy//src/daisy_core.h **** #define DMA_BUFFER_MEM_SECTION __attribute__((section(".sram1_bss")))
  26:../../../../Desktop/DaisyExamples/libDaisy//src/daisy_core.h **** /** 
  27:../../../../Desktop/DaisyExamples/libDaisy//src/daisy_core.h **** THE DTCM RAM section is also non-cached. However, is not suitable 
  28:../../../../Desktop/DaisyExamples/libDaisy//src/daisy_core.h **** for DMA transfers. Performance is on par with internal SRAM w/ 
  29:../../../../Desktop/DaisyExamples/libDaisy//src/daisy_core.h **** cache enabled.
  30:../../../../Desktop/DaisyExamples/libDaisy//src/daisy_core.h **** */
  31:../../../../Desktop/DaisyExamples/libDaisy//src/daisy_core.h **** #define DTCM_MEM_SECTION __attribute__((section(".dtcmram_bss")))
  32:../../../../Desktop/DaisyExamples/libDaisy//src/daisy_core.h **** 
  33:../../../../Desktop/DaisyExamples/libDaisy//src/daisy_core.h **** #define FBIPMAX 0.999985f             /**< close to 1.0f-LSB at 16 bit */
  34:../../../../Desktop/DaisyExamples/libDaisy//src/daisy_core.h **** #define FBIPMIN (-FBIPMAX)            /**< - (1 - LSB) */
  35:../../../../Desktop/DaisyExamples/libDaisy//src/daisy_core.h **** #define U82F_SCALE 0.0078740f         /**< 1 / 127 */
  36:../../../../Desktop/DaisyExamples/libDaisy//src/daisy_core.h **** #define F2U8_SCALE 127.0f             /**< 128 - 1 */
  37:../../../../Desktop/DaisyExamples/libDaisy//src/daisy_core.h **** #define S82F_SCALE 0.0078125f         /**< 1 / (2**7) */
  38:../../../../Desktop/DaisyExamples/libDaisy//src/daisy_core.h **** #define F2S8_SCALE 127.0f             /**< (2 ** 7) - 1 */
  39:../../../../Desktop/DaisyExamples/libDaisy//src/daisy_core.h **** #define S162F_SCALE 3.0517578125e-05f /**< 1 / (2** 15) */
  40:../../../../Desktop/DaisyExamples/libDaisy//src/daisy_core.h **** #define F2S16_SCALE 32767.0f          /**< (2 ** 15) - 1 */
  41:../../../../Desktop/DaisyExamples/libDaisy//src/daisy_core.h **** #define F2S24_SCALE 8388608.0f        /**< 2 ** 23 */
  42:../../../../Desktop/DaisyExamples/libDaisy//src/daisy_core.h **** #define S242F_SCALE 1.192092896e-07f  /**< 1 / (2 ** 23) */
  43:../../../../Desktop/DaisyExamples/libDaisy//src/daisy_core.h **** #define S24SIGN 0x800000              /**< 2 ** 23 */
  44:../../../../Desktop/DaisyExamples/libDaisy//src/daisy_core.h **** #define S322F_SCALE 4.6566129e-10f    /**< 1 / (2** 31) */
  45:../../../../Desktop/DaisyExamples/libDaisy//src/daisy_core.h **** #define F2S32_SCALE 2147483647.f      /**< (2 ** 31) - 1 */
  46:../../../../Desktop/DaisyExamples/libDaisy//src/daisy_core.h **** 
  47:../../../../Desktop/DaisyExamples/libDaisy//src/daisy_core.h **** 
  48:../../../../Desktop/DaisyExamples/libDaisy//src/daisy_core.h **** /** shorthand macro for simplifying the reading of the left 
  49:../../../../Desktop/DaisyExamples/libDaisy//src/daisy_core.h ****  *  channel of a non-interleaved output buffer named out */
  50:../../../../Desktop/DaisyExamples/libDaisy//src/daisy_core.h **** #define OUT_L out[0]
  51:../../../../Desktop/DaisyExamples/libDaisy//src/daisy_core.h **** 
  52:../../../../Desktop/DaisyExamples/libDaisy//src/daisy_core.h **** /** shorthand macro for simplifying the reading of the right 
  53:../../../../Desktop/DaisyExamples/libDaisy//src/daisy_core.h ****  *  channel of a non-interleaved output buffer named out */
  54:../../../../Desktop/DaisyExamples/libDaisy//src/daisy_core.h **** #define OUT_R out[1]
  55:../../../../Desktop/DaisyExamples/libDaisy//src/daisy_core.h **** 
  56:../../../../Desktop/DaisyExamples/libDaisy//src/daisy_core.h **** /** shorthand macro for simplifying the reading of the left 
  57:../../../../Desktop/DaisyExamples/libDaisy//src/daisy_core.h ****  *  channel of a non-interleaved input buffer named in */
  58:../../../../Desktop/DaisyExamples/libDaisy//src/daisy_core.h **** #define IN_L in[0]
  59:../../../../Desktop/DaisyExamples/libDaisy//src/daisy_core.h **** 
  60:../../../../Desktop/DaisyExamples/libDaisy//src/daisy_core.h **** /** shorthand macro for simplifying the reading of the right 
  61:../../../../Desktop/DaisyExamples/libDaisy//src/daisy_core.h ****  *  channel of a non-interleaved input buffer named in */
  62:../../../../Desktop/DaisyExamples/libDaisy//src/daisy_core.h **** #define IN_R in[1]
  63:../../../../Desktop/DaisyExamples/libDaisy//src/daisy_core.h **** 
  64:../../../../Desktop/DaisyExamples/libDaisy//src/daisy_core.h **** /** 
  65:../../../../Desktop/DaisyExamples/libDaisy//src/daisy_core.h ****     Computes cube.
  66:../../../../Desktop/DaisyExamples/libDaisy//src/daisy_core.h ****     \param x Number to be cubed
  67:../../../../Desktop/DaisyExamples/libDaisy//src/daisy_core.h ****     \return x ^ 3
  68:../../../../Desktop/DaisyExamples/libDaisy//src/daisy_core.h **** */
  69:../../../../Desktop/DaisyExamples/libDaisy//src/daisy_core.h **** FORCE_INLINE float cube(float x)
  70:../../../../Desktop/DaisyExamples/libDaisy//src/daisy_core.h **** {
ARM GAS  C:\Users\pbant\AppData\Local\Temp\ccAmOMRv.s 			page 64


  71:../../../../Desktop/DaisyExamples/libDaisy//src/daisy_core.h ****     return (x * x) * x;
  72:../../../../Desktop/DaisyExamples/libDaisy//src/daisy_core.h **** }
  73:../../../../Desktop/DaisyExamples/libDaisy//src/daisy_core.h **** 
  74:../../../../Desktop/DaisyExamples/libDaisy//src/daisy_core.h **** /** 
  75:../../../../Desktop/DaisyExamples/libDaisy//src/daisy_core.h ****     Converts unsigned 8-bit to float
  76:../../../../Desktop/DaisyExamples/libDaisy//src/daisy_core.h ****     \param x Number to be scaled.
  77:../../../../Desktop/DaisyExamples/libDaisy//src/daisy_core.h ****     \return Scaled number.
  78:../../../../Desktop/DaisyExamples/libDaisy//src/daisy_core.h **** */
  79:../../../../Desktop/DaisyExamples/libDaisy//src/daisy_core.h **** FORCE_INLINE float u82f(uint8_t x)
  80:../../../../Desktop/DaisyExamples/libDaisy//src/daisy_core.h **** {
  81:../../../../Desktop/DaisyExamples/libDaisy//src/daisy_core.h ****     return ((float)x - 127.f) * U82F_SCALE;
  82:../../../../Desktop/DaisyExamples/libDaisy//src/daisy_core.h **** }
  83:../../../../Desktop/DaisyExamples/libDaisy//src/daisy_core.h **** 
  84:../../../../Desktop/DaisyExamples/libDaisy//src/daisy_core.h **** /**
  85:../../../../Desktop/DaisyExamples/libDaisy//src/daisy_core.h ****     Converts float to unsigned 8-bit
  86:../../../../Desktop/DaisyExamples/libDaisy//src/daisy_core.h **** */
  87:../../../../Desktop/DaisyExamples/libDaisy//src/daisy_core.h **** FORCE_INLINE uint8_t f2u8(float x)
  88:../../../../Desktop/DaisyExamples/libDaisy//src/daisy_core.h **** {
  89:../../../../Desktop/DaisyExamples/libDaisy//src/daisy_core.h ****     x = x <= FBIPMIN ? FBIPMIN : x;
  90:../../../../Desktop/DaisyExamples/libDaisy//src/daisy_core.h ****     x = x >= FBIPMAX ? FBIPMAX : x;
  91:../../../../Desktop/DaisyExamples/libDaisy//src/daisy_core.h ****     return (uint8_t)((x * F2U8_SCALE) + F2U8_SCALE);
  92:../../../../Desktop/DaisyExamples/libDaisy//src/daisy_core.h **** }
  93:../../../../Desktop/DaisyExamples/libDaisy//src/daisy_core.h **** 
  94:../../../../Desktop/DaisyExamples/libDaisy//src/daisy_core.h **** 
  95:../../../../Desktop/DaisyExamples/libDaisy//src/daisy_core.h **** /** 
  96:../../../../Desktop/DaisyExamples/libDaisy//src/daisy_core.h ****     Converts Signed 8-bit to float
  97:../../../../Desktop/DaisyExamples/libDaisy//src/daisy_core.h ****     \param x Number to be scaled.
  98:../../../../Desktop/DaisyExamples/libDaisy//src/daisy_core.h ****     \return Scaled number.
  99:../../../../Desktop/DaisyExamples/libDaisy//src/daisy_core.h **** */
 100:../../../../Desktop/DaisyExamples/libDaisy//src/daisy_core.h **** FORCE_INLINE float s82f(int8_t x)
 101:../../../../Desktop/DaisyExamples/libDaisy//src/daisy_core.h **** {
 102:../../../../Desktop/DaisyExamples/libDaisy//src/daisy_core.h ****     return (float)x * S82F_SCALE;
 103:../../../../Desktop/DaisyExamples/libDaisy//src/daisy_core.h **** }
 104:../../../../Desktop/DaisyExamples/libDaisy//src/daisy_core.h **** 
 105:../../../../Desktop/DaisyExamples/libDaisy//src/daisy_core.h **** /**
 106:../../../../Desktop/DaisyExamples/libDaisy//src/daisy_core.h ****     Converts float to Signed 8-bit
 107:../../../../Desktop/DaisyExamples/libDaisy//src/daisy_core.h **** */
 108:../../../../Desktop/DaisyExamples/libDaisy//src/daisy_core.h **** FORCE_INLINE int8_t f2s8(float x)
 109:../../../../Desktop/DaisyExamples/libDaisy//src/daisy_core.h **** {
 110:../../../../Desktop/DaisyExamples/libDaisy//src/daisy_core.h ****     x = x <= FBIPMIN ? FBIPMIN : x;
 111:../../../../Desktop/DaisyExamples/libDaisy//src/daisy_core.h ****     x = x >= FBIPMAX ? FBIPMAX : x;
 112:../../../../Desktop/DaisyExamples/libDaisy//src/daisy_core.h ****     return (int32_t)(x * F2S8_SCALE);
 113:../../../../Desktop/DaisyExamples/libDaisy//src/daisy_core.h **** }
 114:../../../../Desktop/DaisyExamples/libDaisy//src/daisy_core.h **** 
 115:../../../../Desktop/DaisyExamples/libDaisy//src/daisy_core.h **** /** 
 116:../../../../Desktop/DaisyExamples/libDaisy//src/daisy_core.h ****     Converts Signed 16-bit to float
 117:../../../../Desktop/DaisyExamples/libDaisy//src/daisy_core.h ****     \param x Number to be scaled.
 118:../../../../Desktop/DaisyExamples/libDaisy//src/daisy_core.h ****     \return Scaled number.
 119:../../../../Desktop/DaisyExamples/libDaisy//src/daisy_core.h **** */
 120:../../../../Desktop/DaisyExamples/libDaisy//src/daisy_core.h **** FORCE_INLINE float s162f(int16_t x)
 121:../../../../Desktop/DaisyExamples/libDaisy//src/daisy_core.h **** {
 122:../../../../Desktop/DaisyExamples/libDaisy//src/daisy_core.h ****     return (float)x * S162F_SCALE;
 123:../../../../Desktop/DaisyExamples/libDaisy//src/daisy_core.h **** }
 124:../../../../Desktop/DaisyExamples/libDaisy//src/daisy_core.h **** 
 125:../../../../Desktop/DaisyExamples/libDaisy//src/daisy_core.h **** /**
 126:../../../../Desktop/DaisyExamples/libDaisy//src/daisy_core.h ****     Converts float to Signed 16-bit
 127:../../../../Desktop/DaisyExamples/libDaisy//src/daisy_core.h **** */
ARM GAS  C:\Users\pbant\AppData\Local\Temp\ccAmOMRv.s 			page 65


 128:../../../../Desktop/DaisyExamples/libDaisy//src/daisy_core.h **** FORCE_INLINE int16_t f2s16(float x)
 129:../../../../Desktop/DaisyExamples/libDaisy//src/daisy_core.h **** {
 130:../../../../Desktop/DaisyExamples/libDaisy//src/daisy_core.h ****     x = x <= FBIPMIN ? FBIPMIN : x;
 131:../../../../Desktop/DaisyExamples/libDaisy//src/daisy_core.h ****     x = x >= FBIPMAX ? FBIPMAX : x;
 132:../../../../Desktop/DaisyExamples/libDaisy//src/daisy_core.h ****     return (int32_t)(x * F2S16_SCALE);
 133:../../../../Desktop/DaisyExamples/libDaisy//src/daisy_core.h **** }
 134:../../../../Desktop/DaisyExamples/libDaisy//src/daisy_core.h **** 
 135:../../../../Desktop/DaisyExamples/libDaisy//src/daisy_core.h **** /**
 136:../../../../Desktop/DaisyExamples/libDaisy//src/daisy_core.h ****     Converts Signed 24-bit to float
 137:../../../../Desktop/DaisyExamples/libDaisy//src/daisy_core.h ****  */
 138:../../../../Desktop/DaisyExamples/libDaisy//src/daisy_core.h **** FORCE_INLINE float s242f(int32_t x)
 139:../../../../Desktop/DaisyExamples/libDaisy//src/daisy_core.h **** {
 140:../../../../Desktop/DaisyExamples/libDaisy//src/daisy_core.h ****     x = (x ^ S24SIGN) - S24SIGN; //sign extend aka ((x<<8)>>8)
 141:../../../../Desktop/DaisyExamples/libDaisy//src/daisy_core.h ****     return (float)x * S242F_SCALE;
 142:../../../../Desktop/DaisyExamples/libDaisy//src/daisy_core.h **** }
 143:../../../../Desktop/DaisyExamples/libDaisy//src/daisy_core.h **** /**
 144:../../../../Desktop/DaisyExamples/libDaisy//src/daisy_core.h ****     Converts float to Signed 24-bit
 145:../../../../Desktop/DaisyExamples/libDaisy//src/daisy_core.h ****  */
 146:../../../../Desktop/DaisyExamples/libDaisy//src/daisy_core.h **** FORCE_INLINE int32_t f2s24(float x)
 147:../../../../Desktop/DaisyExamples/libDaisy//src/daisy_core.h **** {
 148:../../../../Desktop/DaisyExamples/libDaisy//src/daisy_core.h ****     x = x <= FBIPMIN ? FBIPMIN : x;
 149:../../../../Desktop/DaisyExamples/libDaisy//src/daisy_core.h ****     x = x >= FBIPMAX ? FBIPMAX : x;
 150:../../../../Desktop/DaisyExamples/libDaisy//src/daisy_core.h ****     return (int32_t)(x * F2S24_SCALE);
 151:../../../../Desktop/DaisyExamples/libDaisy//src/daisy_core.h **** }
 152:../../../../Desktop/DaisyExamples/libDaisy//src/daisy_core.h **** 
 153:../../../../Desktop/DaisyExamples/libDaisy//src/daisy_core.h **** /**
 154:../../../../Desktop/DaisyExamples/libDaisy//src/daisy_core.h ****     Converts Signed 32-bit to float
 155:../../../../Desktop/DaisyExamples/libDaisy//src/daisy_core.h ****  */
 156:../../../../Desktop/DaisyExamples/libDaisy//src/daisy_core.h **** FORCE_INLINE float s322f(int32_t x)
 157:../../../../Desktop/DaisyExamples/libDaisy//src/daisy_core.h **** {
 158:../../../../Desktop/DaisyExamples/libDaisy//src/daisy_core.h ****     return (float)x * S322F_SCALE;
 159:../../../../Desktop/DaisyExamples/libDaisy//src/daisy_core.h **** }
 160:../../../../Desktop/DaisyExamples/libDaisy//src/daisy_core.h **** /**
 161:../../../../Desktop/DaisyExamples/libDaisy//src/daisy_core.h ****     Converts float to Signed 24-bit
 162:../../../../Desktop/DaisyExamples/libDaisy//src/daisy_core.h ****  */
 163:../../../../Desktop/DaisyExamples/libDaisy//src/daisy_core.h **** FORCE_INLINE int32_t f2s32(float x)
 164:../../../../Desktop/DaisyExamples/libDaisy//src/daisy_core.h **** {
 165:../../../../Desktop/DaisyExamples/libDaisy//src/daisy_core.h ****     x = x <= FBIPMIN ? FBIPMIN : x;
 166:../../../../Desktop/DaisyExamples/libDaisy//src/daisy_core.h ****     x = x >= FBIPMAX ? FBIPMAX : x;
 167:../../../../Desktop/DaisyExamples/libDaisy//src/daisy_core.h ****     return (int32_t)(x * F2S32_SCALE);
 168:../../../../Desktop/DaisyExamples/libDaisy//src/daisy_core.h **** }
 169:../../../../Desktop/DaisyExamples/libDaisy//src/daisy_core.h **** 
 170:../../../../Desktop/DaisyExamples/libDaisy//src/daisy_core.h **** 
 171:../../../../Desktop/DaisyExamples/libDaisy//src/daisy_core.h **** /** Enums and a simple struct for defining a hardware pin on the MCU
 172:../../../../Desktop/DaisyExamples/libDaisy//src/daisy_core.h ****  *  These correlate with the stm32 datasheet, and are used to configure
 173:../../../../Desktop/DaisyExamples/libDaisy//src/daisy_core.h ****  *  the hardware.
 174:../../../../Desktop/DaisyExamples/libDaisy//src/daisy_core.h ****  * 
 175:../../../../Desktop/DaisyExamples/libDaisy//src/daisy_core.h ****  *  This along with the dsy_gpio_pin class should no longer be used.
 176:../../../../Desktop/DaisyExamples/libDaisy//src/daisy_core.h ****  *  They are available for backwards compatability. 
 177:../../../../Desktop/DaisyExamples/libDaisy//src/daisy_core.h ****  * 
 178:../../../../Desktop/DaisyExamples/libDaisy//src/daisy_core.h ****  *  Please use GPIOPort enum and the Pin struct instead.
 179:../../../../Desktop/DaisyExamples/libDaisy//src/daisy_core.h ****  */
 180:../../../../Desktop/DaisyExamples/libDaisy//src/daisy_core.h **** typedef enum
 181:../../../../Desktop/DaisyExamples/libDaisy//src/daisy_core.h **** {
 182:../../../../Desktop/DaisyExamples/libDaisy//src/daisy_core.h ****     DSY_GPIOA, /**< & */
 183:../../../../Desktop/DaisyExamples/libDaisy//src/daisy_core.h ****     DSY_GPIOB, /**< & */
 184:../../../../Desktop/DaisyExamples/libDaisy//src/daisy_core.h ****     DSY_GPIOC, /**< & */
ARM GAS  C:\Users\pbant\AppData\Local\Temp\ccAmOMRv.s 			page 66


 185:../../../../Desktop/DaisyExamples/libDaisy//src/daisy_core.h ****     DSY_GPIOD, /**< & */
 186:../../../../Desktop/DaisyExamples/libDaisy//src/daisy_core.h ****     DSY_GPIOE, /**< & */
 187:../../../../Desktop/DaisyExamples/libDaisy//src/daisy_core.h ****     DSY_GPIOF, /**< & */
 188:../../../../Desktop/DaisyExamples/libDaisy//src/daisy_core.h ****     DSY_GPIOG, /**< & */
 189:../../../../Desktop/DaisyExamples/libDaisy//src/daisy_core.h ****     DSY_GPIOH, /**< & */
 190:../../../../Desktop/DaisyExamples/libDaisy//src/daisy_core.h ****     DSY_GPIOI, /**< & */
 191:../../../../Desktop/DaisyExamples/libDaisy//src/daisy_core.h ****     DSY_GPIOJ, /**< & */
 192:../../../../Desktop/DaisyExamples/libDaisy//src/daisy_core.h ****     DSY_GPIOK, /**< & */
 193:../../../../Desktop/DaisyExamples/libDaisy//src/daisy_core.h ****     DSY_GPIOX, /** This is a non-existant port for unsupported bits of hardware. */
 194:../../../../Desktop/DaisyExamples/libDaisy//src/daisy_core.h ****     DSY_GPIO_LAST, /** Final enum member */
 195:../../../../Desktop/DaisyExamples/libDaisy//src/daisy_core.h **** } dsy_gpio_port;
 196:../../../../Desktop/DaisyExamples/libDaisy//src/daisy_core.h **** 
 197:../../../../Desktop/DaisyExamples/libDaisy//src/daisy_core.h **** /** Hardware define pins 
 198:../../../../Desktop/DaisyExamples/libDaisy//src/daisy_core.h ****  *  
 199:../../../../Desktop/DaisyExamples/libDaisy//src/daisy_core.h ****  *  The dsy_gpio_pin struct should no longer be used, and is only available for
 200:../../../../Desktop/DaisyExamples/libDaisy//src/daisy_core.h ****  *  backwards compatability.
 201:../../../../Desktop/DaisyExamples/libDaisy//src/daisy_core.h ****  * 
 202:../../../../Desktop/DaisyExamples/libDaisy//src/daisy_core.h ****  *  Please use Pin struct instead.
 203:../../../../Desktop/DaisyExamples/libDaisy//src/daisy_core.h ****  */
 204:../../../../Desktop/DaisyExamples/libDaisy//src/daisy_core.h **** typedef struct
 205:../../../../Desktop/DaisyExamples/libDaisy//src/daisy_core.h **** {
 206:../../../../Desktop/DaisyExamples/libDaisy//src/daisy_core.h ****     dsy_gpio_port port; /**< & */
 207:../../../../Desktop/DaisyExamples/libDaisy//src/daisy_core.h ****     uint8_t       pin;  /**< number 0-15 */
 208:../../../../Desktop/DaisyExamples/libDaisy//src/daisy_core.h **** } dsy_gpio_pin;
 209:../../../../Desktop/DaisyExamples/libDaisy//src/daisy_core.h **** 
 210:../../../../Desktop/DaisyExamples/libDaisy//src/daisy_core.h **** /** Helper for creating pins from port/pin combos easily
 211:../../../../Desktop/DaisyExamples/libDaisy//src/daisy_core.h ****  * 
 212:../../../../Desktop/DaisyExamples/libDaisy//src/daisy_core.h ****  *  The dsy_gpio_pin struct should no longer be used, and is only available for
 213:../../../../Desktop/DaisyExamples/libDaisy//src/daisy_core.h ****  *  backwards compatability.
 214:../../../../Desktop/DaisyExamples/libDaisy//src/daisy_core.h ****  * 
 215:../../../../Desktop/DaisyExamples/libDaisy//src/daisy_core.h ****  *  Please use Pin struct instead.
 216:../../../../Desktop/DaisyExamples/libDaisy//src/daisy_core.h **** */
 217:../../../../Desktop/DaisyExamples/libDaisy//src/daisy_core.h **** FORCE_INLINE dsy_gpio_pin dsy_pin(dsy_gpio_port port, uint8_t pin)
 218:../../../../Desktop/DaisyExamples/libDaisy//src/daisy_core.h **** {
 219:../../../../Desktop/DaisyExamples/libDaisy//src/daisy_core.h ****     dsy_gpio_pin p;
 220:../../../../Desktop/DaisyExamples/libDaisy//src/daisy_core.h ****     p.port = port;
 221:../../../../Desktop/DaisyExamples/libDaisy//src/daisy_core.h ****     p.pin  = pin;
 222:../../../../Desktop/DaisyExamples/libDaisy//src/daisy_core.h ****     return p;
 223:../../../../Desktop/DaisyExamples/libDaisy//src/daisy_core.h **** }
 224:../../../../Desktop/DaisyExamples/libDaisy//src/daisy_core.h **** 
 225:../../../../Desktop/DaisyExamples/libDaisy//src/daisy_core.h **** /** Helper for testing sameness of two dsy_gpio_pins
 226:../../../../Desktop/DaisyExamples/libDaisy//src/daisy_core.h ****  *  \return    1 if same, 0 if different
 227:../../../../Desktop/DaisyExamples/libDaisy//src/daisy_core.h ****  * 
 228:../../../../Desktop/DaisyExamples/libDaisy//src/daisy_core.h ****  *  The dsy_gpio_pin struct should no longer be used, and is only available for
 229:../../../../Desktop/DaisyExamples/libDaisy//src/daisy_core.h ****  *  backwards compatability.
 230:../../../../Desktop/DaisyExamples/libDaisy//src/daisy_core.h ****  * 
 231:../../../../Desktop/DaisyExamples/libDaisy//src/daisy_core.h ****  *  Please use Pin struct instead.
 232:../../../../Desktop/DaisyExamples/libDaisy//src/daisy_core.h ****  */
 233:../../../../Desktop/DaisyExamples/libDaisy//src/daisy_core.h **** FORCE_INLINE uint8_t dsy_pin_cmp(dsy_gpio_pin *a, dsy_gpio_pin *b)
 234:../../../../Desktop/DaisyExamples/libDaisy//src/daisy_core.h **** {
 235:../../../../Desktop/DaisyExamples/libDaisy//src/daisy_core.h ****     return ((a->port == b->port) && (a->pin == b->pin));
 236:../../../../Desktop/DaisyExamples/libDaisy//src/daisy_core.h **** }
 237:../../../../Desktop/DaisyExamples/libDaisy//src/daisy_core.h **** 
 238:../../../../Desktop/DaisyExamples/libDaisy//src/daisy_core.h **** #ifdef __cplusplus
 239:../../../../Desktop/DaisyExamples/libDaisy//src/daisy_core.h **** 
 240:../../../../Desktop/DaisyExamples/libDaisy//src/daisy_core.h **** namespace daisy
 241:../../../../Desktop/DaisyExamples/libDaisy//src/daisy_core.h **** {
ARM GAS  C:\Users\pbant\AppData\Local\Temp\ccAmOMRv.s 			page 67


 242:../../../../Desktop/DaisyExamples/libDaisy//src/daisy_core.h **** /** @brief GPIO Port names */
 243:../../../../Desktop/DaisyExamples/libDaisy//src/daisy_core.h **** enum GPIOPort
 244:../../../../Desktop/DaisyExamples/libDaisy//src/daisy_core.h **** {
 245:../../../../Desktop/DaisyExamples/libDaisy//src/daisy_core.h ****     PORTA, /**< Port A */
 246:../../../../Desktop/DaisyExamples/libDaisy//src/daisy_core.h ****     PORTB, /**< Port B */
 247:../../../../Desktop/DaisyExamples/libDaisy//src/daisy_core.h ****     PORTC, /**< Port C */
 248:../../../../Desktop/DaisyExamples/libDaisy//src/daisy_core.h ****     PORTD, /**< Port D */
 249:../../../../Desktop/DaisyExamples/libDaisy//src/daisy_core.h ****     PORTE, /**< Port E */
 250:../../../../Desktop/DaisyExamples/libDaisy//src/daisy_core.h ****     PORTF, /**< Port F */
 251:../../../../Desktop/DaisyExamples/libDaisy//src/daisy_core.h ****     PORTG, /**< Port G */
 252:../../../../Desktop/DaisyExamples/libDaisy//src/daisy_core.h ****     PORTH, /**< Port H */
 253:../../../../Desktop/DaisyExamples/libDaisy//src/daisy_core.h ****     PORTI, /**< Port I */
 254:../../../../Desktop/DaisyExamples/libDaisy//src/daisy_core.h ****     PORTJ, /**< Port J */
 255:../../../../Desktop/DaisyExamples/libDaisy//src/daisy_core.h ****     PORTK, /**< Port K */
 256:../../../../Desktop/DaisyExamples/libDaisy//src/daisy_core.h ****     PORTX, /**< Used as a dummy port to signal an invalid pin. */
 257:../../../../Desktop/DaisyExamples/libDaisy//src/daisy_core.h **** };
 258:../../../../Desktop/DaisyExamples/libDaisy//src/daisy_core.h **** 
 259:../../../../Desktop/DaisyExamples/libDaisy//src/daisy_core.h **** /** @brief representation of hardware port/pin combination */
 260:../../../../Desktop/DaisyExamples/libDaisy//src/daisy_core.h **** struct Pin
 261:../../../../Desktop/DaisyExamples/libDaisy//src/daisy_core.h **** {
 262:../../../../Desktop/DaisyExamples/libDaisy//src/daisy_core.h ****     GPIOPort port;
 263:../../../../Desktop/DaisyExamples/libDaisy//src/daisy_core.h ****     uint8_t  pin;
 264:../../../../Desktop/DaisyExamples/libDaisy//src/daisy_core.h **** 
 265:../../../../Desktop/DaisyExamples/libDaisy//src/daisy_core.h ****     /** @brief Constructor creates a valid pin. 
 266:../../../../Desktop/DaisyExamples/libDaisy//src/daisy_core.h ****      *  @param pt GPIOPort between PA, and PK corresponding to STM32 Port.
 267:../../../../Desktop/DaisyExamples/libDaisy//src/daisy_core.h ****      *  @param pn pin number in range of 0-15
 268:../../../../Desktop/DaisyExamples/libDaisy//src/daisy_core.h ****     */
 269:../../../../Desktop/DaisyExamples/libDaisy//src/daisy_core.h ****     constexpr Pin(const GPIOPort pt, const uint8_t pn) : port(pt), pin(pn) {}
 270:../../../../Desktop/DaisyExamples/libDaisy//src/daisy_core.h **** 
 271:../../../../Desktop/DaisyExamples/libDaisy//src/daisy_core.h ****     /** @brief Basic Constructor creates an invalid Pin object */
 272:../../../../Desktop/DaisyExamples/libDaisy//src/daisy_core.h ****     constexpr Pin() : port(PORTX), pin(255) {}
 1701              		.loc 15 272 15 view .LVU470
 1702              		.loc 15 272 15 is_stmt 0 view .LVU471
 1703              	.LBE677:
 1704              	.LBE676:
 1705              	.LBE675:
 1706              	.LBE674:
 1707              	.LBE673:
 1708              	.LBE672:
 1709              	.LBB686:
 1710              	.LBI686:
 1711              		.loc 14 74 5 is_stmt 1 view .LVU472
 1712              	.LBB687:
 1713              	.LBB688:
 1714              	.LBI688:
  68:../../../../Desktop/DaisyExamples/libDaisy//src/per/gpio.h ****         : pin(), mode(Mode::INPUT), pull(Pull::NOPULL), speed(Speed::LOW)
 1715              		.loc 14 68 9 view .LVU473
 1716              	.LBB689:
 1717              	.LBB690:
 1718              	.LBB691:
 1719              	.LBI691:
 1720              		.loc 15 272 15 view .LVU474
 1721              		.loc 15 272 15 is_stmt 0 view .LVU475
 1722              	.LBE691:
 1723              	.LBE690:
 1724              	.LBE689:
 1725              	.LBE688:
ARM GAS  C:\Users\pbant\AppData\Local\Temp\ccAmOMRv.s 			page 68


 1726              	.LBE687:
 1727              	.LBE686:
 1728              	.LBE655:
 184:Frame.h       ****         m_FIFO_in = 0;
 1729              		.loc 7 184 9 is_stmt 1 view .LVU476
 185:Frame.h       ****         m_FIFO_out = 0;
 1730              		.loc 7 185 9 view .LVU477
 186:Frame.h       ****         m_FIFO_NbElements = 0;
 1731              		.loc 7 186 9 view .LVU478
 187:Frame.h       ****         m_Busy = false;
 1732              		.loc 7 187 9 view .LVU479
 1733              		.loc 7 187 9 is_stmt 0 view .LVU480
 1734              	.LBE654:
 1735              	.LBE653:
 1736              	.LBE652:
 1737              	.LBB725:
 1738              	.LBI725:
 109:Frame.h       ****         m_R = R;
 1739              		.loc 7 109 5 is_stmt 1 view .LVU481
 1740              	.LBE725:
 1741              	.LBE651:
 1742              	.LBE650:
 1743              	.LBE649:
 1744              	.LBE745:
 1745              	.LBE749:
 110:Frame.h       ****         m_G = G;
 1746              		.loc 7 110 9 view .LVU482
 111:Frame.h       ****         m_B = B;
 1747              		.loc 7 111 9 view .LVU483
 112:Frame.h       ****         m_Trans = Trans;
 1748              		.loc 7 112 9 view .LVU484
 113:Frame.h       ****     }
 1749              		.loc 7 113 9 view .LVU485
 1750              	.LBB750:
 1751              	.LBB746:
 1752              	.LBB742:
 1753              	.LBB739:
 1754              	.LBB732:
 1755              	.LBB726:
 1756              	.LBI726:
 109:Frame.h       ****         m_R = R;
 1757              		.loc 7 109 5 view .LVU486
 1758              	.LBE726:
 1759              	.LBE732:
 1760              	.LBE739:
 1761              	.LBE742:
 1762              	.LBE746:
 1763              	.LBE750:
 110:Frame.h       ****         m_G = G;
 1764              		.loc 7 110 9 view .LVU487
 111:Frame.h       ****         m_B = B;
 1765              		.loc 7 111 9 view .LVU488
 112:Frame.h       ****         m_Trans = Trans;
 1766              		.loc 7 112 9 view .LVU489
 113:Frame.h       ****     }
 1767              		.loc 7 113 9 view .LVU490
 1768              	.LBB751:
ARM GAS  C:\Users\pbant\AppData\Local\Temp\ccAmOMRv.s 			page 69


 1769              	.LBB747:
 1770              	.LBB743:
 1771              	.LBB740:
 1772              	.LBB733:
 1773              	.LBB727:
 1774              	.LBB720:
 1775              	.LBB715:
 1776              	.LBB710:
 1777              	.LBB700:
 1778              	.LBB657:
 1779              	.LBB658:
 1780              		.loc 13 106 33 is_stmt 0 view .LVU491
 1781 0046 1A4B     		ldr	r3, .L38+20
 1782 0048 0022     		movs	r2, #0
 1783              	.LBE658:
 1784              	.LBE657:
 1785              	.LBE700:
 1786              	.LBB701:
 1787              	.LBB668:
 1788              	.LBB664:
  90:../../../../Desktop/DaisyExamples/libDaisy//src/per/spi.h ****             clock_polarity = ClockPolarity::LOW;
 1789              		.loc 13 90 28 view .LVU492
 1790 004a 0824     		movs	r4, #8
 1791              	.LBE664:
 1792              	.LBE668:
 1793              	.LBE701:
 1794              	.LBE710:
 1795              	.LBE715:
 1796              	.LBE720:
 1797              	.LBE727:
 1798              	.LBE733:
 129:GFX.h         **** 
 1799              		.loc 8 129 12 view .LVU493
 1800 004c 4FF60B71 		movw	r1, #65291
 1801              	.LBB734:
 1802              	.LBB728:
 1803              	.LBB721:
 1804              	.LBB716:
 1805              	.LBB711:
 1806              	.LBB702:
 1807              	.LBB669:
 1808              	.LBB665:
  93:../../../../Desktop/DaisyExamples/libDaisy//src/per/spi.h ****         }
 1809              		.loc 13 93 28 view .LVU494
 1810 0050 0220     		movs	r0, #2
 1811              	.LBE665:
 1812              	.LBE669:
 1813              	.LBE702:
 1814              	.LBE711:
 1815              	.LBE716:
 1816              	.LBE721:
 1817              	.LBE728:
 1818              	.LBE734:
 129:GFX.h         **** 
 1819              		.loc 8 129 12 view .LVU495
 1820 0052 4FF0FF35 		mov	r5, #-1
 1821              	.LBB735:
ARM GAS  C:\Users\pbant\AppData\Local\Temp\ccAmOMRv.s 			page 70


 1822              	.LBB729:
 1823              	.LBB722:
 1824              	.LBB717:
 1825              	.LBB712:
 1826              	.LBB703:
 1827              	.LBB660:
 1828              	.LBB659:
 1829              		.loc 13 106 33 view .LVU496
 1830 0056 1A60     		str	r2, [r3]
 1831              	.LBE659:
 1832              	.LBE660:
 1833              	.LBE703:
 1834              	.LBB704:
 1835              	.LBB670:
 1836              	.LBB666:
  93:../../../../Desktop/DaisyExamples/libDaisy//src/per/spi.h ****         }
 1837              		.loc 13 93 28 view .LVU497
 1838 0058 9862     		str	r0, [r3, #40]
  92:../../../../Desktop/DaisyExamples/libDaisy//src/per/spi.h ****             baud_prescaler = BaudPrescaler::PS_8;
 1839              		.loc 13 92 28 view .LVU498
 1840 005a 1A62     		str	r2, [r3, #32]
 1841              	.LBE666:
 1842              	.LBE670:
 1843              	.LBE704:
 1844              	.LBE712:
 1845              	.LBE717:
 1846              	.LBE722:
 1847              	.LBE729:
 1848              	.LBE735:
 129:GFX.h         **** 
 1849              		.loc 8 129 12 view .LVU499
 1850 005c 5A66     		str	r2, [r3, #100]
 1851              	.LBB736:
 1852 005e C3F8DC20 		str	r2, [r3, #220]
 1853              	.LBE736:
 1854              	.LBE740:
 1855              	.LBE743:
  17:TestTFT.cpp   **** 
 1856              		.loc 6 17 45 view .LVU500
 1857 0062 1448     		ldr	r0, .L38+24
 1858              	.LBB744:
 1859              	.LBB741:
 1860              	.LBB737:
 1861              	.LBB730:
 1862              	.LBB723:
 1863              	.LBB718:
 1864              	.LBB713:
 1865              	.LBB705:
 1866              	.LBB671:
 1867              	.LBB667:
  91:../../../../Desktop/DaisyExamples/libDaisy//src/per/spi.h ****             clock_phase    = ClockPhase::ONE_EDGE;
 1868              		.loc 13 91 28 view .LVU501
 1869 0064 C3E90642 		strd	r4, r2, [r3, #24]
 1870              	.LBE667:
 1871              	.LBE671:
 1872              	.LBE705:
 1873              	.LBE713:
ARM GAS  C:\Users\pbant\AppData\Local\Temp\ccAmOMRv.s 			page 71


 1874              	.LBE718:
 1875              	.LBE723:
 1876              	.LBE730:
 1877              	.LBE737:
 129:GFX.h         **** 
 1878              		.loc 8 129 12 view .LVU502
 1879 0068 4FF07F44 		mov	r4, #-16777216
 1880              	.LBB738:
 1881              	.LBB731:
 1882              	.LBB724:
 1883              	.LBB719:
 1884              	.LBB714:
 1885              	.LBB706:
 1886              	.LBB684:
 1887              	.LBB682:
 1888              	.LBB680:
 1889              	.LBB678:
  69:../../../../Desktop/DaisyExamples/libDaisy//src/per/gpio.h ****         {
 1890              		.loc 14 69 73 view .LVU503
 1891 006c C3E90B12 		strd	r1, r2, [r3, #44]
 1892              	.LBE678:
 1893              	.LBE680:
 1894              	.LBE682:
 1895              	.LBE684:
 1896              	.LBE706:
 1897              	.LBB707:
 1898              	.LBB698:
 1899              	.LBB696:
 1900              	.LBB694:
 1901              	.LBB692:
 1902 0070 C3E91012 		strd	r1, r2, [r3, #64]
 1903              	.LBE692:
 1904              	.LBE694:
 1905              	.LBE696:
 1906              	.LBE698:
 1907              	.LBE707:
 1908              	.LBB708:
 1909              	.LBB685:
 1910              	.LBB683:
 1911              	.LBB681:
 1912              	.LBB679:
 1913 0074 C3E90D22 		strd	r2, r2, [r3, #52]
 1914              	.LBE679:
 1915              	.LBE681:
 1916              	.LBE683:
 1917              	.LBE685:
 1918              	.LBE708:
 1919              	.LBB709:
 1920              	.LBB699:
 1921              	.LBB697:
 1922              	.LBB695:
 1923              	.LBB693:
 1924 0078 C3E91222 		strd	r2, r2, [r3, #72]
 1925              	.LBE693:
 1926              	.LBE695:
 1927              	.LBE697:
 1928              	.LBE699:
ARM GAS  C:\Users\pbant\AppData\Local\Temp\ccAmOMRv.s 			page 72


 1929              	.LBE709:
 1930              	.LBE714:
 1931              	.LBE719:
 1932              	.LBE724:
 1933              	.LBE731:
 1934              	.LBE738:
 129:GFX.h         **** 
 1935              		.loc 8 129 12 view .LVU504
 1936 007c C3E91522 		strd	r2, r2, [r3, #84]
 1937 0080 C3E91722 		strd	r2, r2, [r3, #92]
 1938 0084 C3E93322 		strd	r2, r2, [r3, #204]
 1939 0088 C3E93522 		strd	r2, r2, [r3, #212]
 1940 008c C3E93854 		strd	r5, r4, [r3, #224]
 1941              	.LVL78:
 129:GFX.h         **** 
 1942              		.loc 8 129 12 view .LVU505
 1943              	.LBE741:
 1944              	.LBE744:
  17:TestTFT.cpp   **** 
 1945              		.loc 6 17 45 view .LVU506
 1946 0090 0949     		ldr	r1, .L38+28
 1947              	.LBE747:
 1948              	.LBE751:
 1949              		.loc 6 121 1 view .LVU507
 1950 0092 BDE83840 		pop	{r3, r4, r5, lr}
 1951              		.cfi_restore 14
 1952              		.cfi_restore 5
 1953              		.cfi_restore 4
 1954              		.cfi_restore 3
 1955              		.cfi_def_cfa_offset 0
 1956              	.LBB752:
 1957              	.LBB748:
  17:TestTFT.cpp   **** 
 1958              		.loc 6 17 45 view .LVU508
 1959 0096 FFF7FEBF 		b	_ZN5cFontC1EPK7GFXfont
 1960              	.LVL79:
 1961              	.L39:
 1962 009a 00BF     		.align	2
 1963              	.L38:
 1964 009c 00000000 		.word	.LANCHOR0
 1965 00a0 00000000 		.word	__dso_handle
 1966 00a4 00000000 		.word	_ZN5daisy9DaisySeedD1Ev
 1967 00a8 00000000 		.word	__Fifo
 1968 00ac 0A3C0000 		.word	__Fifo+15370
 1969 00b0 00000000 		.word	.LANCHOR1
 1970 00b4 00000000 		.word	.LANCHOR2
 1971 00b8 00000000 		.word	.LANCHOR3
 1972              	.LBE748:
 1973              	.LBE752:
 1974              		.cfi_endproc
 1975              	.LFE5316:
 1977              		.section	.init_array,"aw",%init_array
 1978              		.align	2
 1979 0000 00000000 		.word	_GLOBAL__sub_I_hw(target1)
 1980              		.global	Vanilla20
 1981              		.global	__Display
 1982              		.global	__FrameBuff
ARM GAS  C:\Users\pbant\AppData\Local\Temp\ccAmOMRv.s 			page 73


 1983              		.global	__Fifo
 1984              		.global	hw
 1985              		.section	.bss.Vanilla20,"aw",%nobits
 1986              		.align	2
 1987              		.set	.LANCHOR2,. + 0
 1990              	Vanilla20:
 1991 0000 00000000 		.space	12
 1991      00000000 
 1991      00000000 
 1992              		.section	.bss.__Display,"aw",%nobits
 1993              		.align	2
 1994              		.set	.LANCHOR1,. + 0
 1997              	__Display:
 1998 0000 00000000 		.space	232
 1998      00000000 
 1998      00000000 
 1998      00000000 
 1998      00000000 
 1999              		.section	.bss.hw,"aw",%nobits
 2000              		.align	2
 2001              		.set	.LANCHOR0,. + 0
 2004              	hw:
 2005 0000 00000000 		.space	64
 2005      00000000 
 2005      00000000 
 2005      00000000 
 2005      00000000 
 2006              		.section	.rodata._ZL27VanillaExtractRegular20pt7b,"a"
 2007              		.align	2
 2008              		.set	.LANCHOR3,. + 0
 2011              	_ZL27VanillaExtractRegular20pt7b:
 2012 0000 00000000 		.word	_ZL34VanillaExtractRegular20pt7bBitmaps
 2013 0004 00000000 		.word	_ZL33VanillaExtractRegular20pt7bGlyphs
 2014 0008 2000     		.short	32
 2015 000a 7E00     		.short	126
 2016 000c 2A       		.byte	42
 2017 000d 000000   		.space	3
 2018              		.section	.rodata._ZL33VanillaExtractRegular20pt7bGlyphs,"a"
 2019              		.align	2
 2022              	_ZL33VanillaExtractRegular20pt7bGlyphs:
 2023 0000 0000     		.short	0
 2024 0002 01       		.byte	1
 2025 0003 01       		.byte	1
 2026 0004 11       		.byte	17
 2027 0005 00       		.byte	0
 2028 0006 00       		.byte	0
 2029 0007 00       		.space	1
 2030 0008 0100     		.short	1
 2031 000a 09       		.byte	9
 2032 000b 23       		.byte	35
 2033 000c 0B       		.byte	11
 2034 000d 00       		.byte	0
 2035 000e DE       		.byte	-34
 2036 000f 00       		.space	1
 2037 0010 2900     		.short	41
 2038 0012 0F       		.byte	15
 2039 0013 0E       		.byte	14
ARM GAS  C:\Users\pbant\AppData\Local\Temp\ccAmOMRv.s 			page 74


 2040 0014 12       		.byte	18
 2041 0015 01       		.byte	1
 2042 0016 DD       		.byte	-35
 2043 0017 00       		.space	1
 2044 0018 4400     		.short	68
 2045 001a 21       		.byte	33
 2046 001b 22       		.byte	34
 2047 001c 26       		.byte	38
 2048 001d 02       		.byte	2
 2049 001e DE       		.byte	-34
 2050 001f 00       		.space	1
 2051 0020 D100     		.short	209
 2052 0022 17       		.byte	23
 2053 0023 29       		.byte	41
 2054 0024 1B       		.byte	27
 2055 0025 01       		.byte	1
 2056 0026 DB       		.byte	-37
 2057 0027 00       		.space	1
 2058 0028 4701     		.short	327
 2059 002a 2A       		.byte	42
 2060 002b 23       		.byte	35
 2061 002c 2D       		.byte	45
 2062 002d 01       		.byte	1
 2063 002e DE       		.byte	-34
