ARM GAS  C:\Users\pbant\AppData\Local\Temp\ccAmOMRv.s 			page 1


   1              		.cpu cortex-m7
   2              		.eabi_attribute 28, 1
   3              		.eabi_attribute 20, 1
   4              		.eabi_attribute 21, 1
   5              		.eabi_attribute 23, 3
   6              		.eabi_attribute 24, 1
   7              		.eabi_attribute 25, 1
   8              		.eabi_attribute 26, 1
   9              		.eabi_attribute 30, 2
  10              		.eabi_attribute 34, 1
  11              		.eabi_attribute 18, 4
  12              		.file	"TestTFT.cpp"
  13              		.text
  14              	.Ltext0:
  15              		.cfi_sections	.debug_frame
  16              		.section	.text._ZN5daisy9DaisySeedD2Ev,"axG",%progbits,_ZN5daisy9DaisySeedD5Ev,comdat
  17              		.align	1
  18              		.p2align 2,,3
  19              		.weak	_ZN5daisy9DaisySeedD2Ev
  20              		.arch armv7e-m
  21              		.syntax unified
  22              		.thumb
  23              		.thumb_func
  24              		.fpu fpv5-d16
  26              	_ZN5daisy9DaisySeedD2Ev:
  27              	.LVL0:
  28              	.LFB2555:
  29              		.file 1 "../../../../Desktop/DaisyExamples/libDaisy//src/daisy_seed.h"
   1:../../../../Desktop/DaisyExamples/libDaisy//src/daisy_seed.h **** #pragma once
   2:../../../../Desktop/DaisyExamples/libDaisy//src/daisy_seed.h **** #ifndef DSY_SEED_H
   3:../../../../Desktop/DaisyExamples/libDaisy//src/daisy_seed.h **** #define DSY_SEED_H
   4:../../../../Desktop/DaisyExamples/libDaisy//src/daisy_seed.h **** 
   5:../../../../Desktop/DaisyExamples/libDaisy//src/daisy_seed.h **** #include "daisy.h"
   6:../../../../Desktop/DaisyExamples/libDaisy//src/daisy_seed.h **** 
   7:../../../../Desktop/DaisyExamples/libDaisy//src/daisy_seed.h **** //Uncomment this out if you're still using the rev2 hardware
   8:../../../../Desktop/DaisyExamples/libDaisy//src/daisy_seed.h **** //#define SEED_REV2
   9:../../../../Desktop/DaisyExamples/libDaisy//src/daisy_seed.h **** 
  10:../../../../Desktop/DaisyExamples/libDaisy//src/daisy_seed.h **** namespace daisy
  11:../../../../Desktop/DaisyExamples/libDaisy//src/daisy_seed.h **** {
  12:../../../../Desktop/DaisyExamples/libDaisy//src/daisy_seed.h **** /**
  13:../../../../Desktop/DaisyExamples/libDaisy//src/daisy_seed.h ****    @brief This is the higher-level interface for the Daisy board. \n 
  14:../../../../Desktop/DaisyExamples/libDaisy//src/daisy_seed.h ****     All basic peripheral configuration/initialization is setup here. \n
  15:../../../../Desktop/DaisyExamples/libDaisy//src/daisy_seed.h **** 
  16:../../../../Desktop/DaisyExamples/libDaisy//src/daisy_seed.h ****    @ingroup boards
  17:../../../../Desktop/DaisyExamples/libDaisy//src/daisy_seed.h **** */
  18:../../../../Desktop/DaisyExamples/libDaisy//src/daisy_seed.h **** class DaisySeed
  19:../../../../Desktop/DaisyExamples/libDaisy//src/daisy_seed.h **** {
  20:../../../../Desktop/DaisyExamples/libDaisy//src/daisy_seed.h ****   public:
  21:../../../../Desktop/DaisyExamples/libDaisy//src/daisy_seed.h ****     DaisySeed() {}
  22:../../../../Desktop/DaisyExamples/libDaisy//src/daisy_seed.h ****     ~DaisySeed() {}
  30              		.loc 1 22 5 view -0
  31              		.cfi_startproc
  32              		@ args = 0, pretend = 0, frame = 0
  33              		@ frame_needed = 0, uses_anonymous_args = 0
  34              		@ link register save eliminated.
  35              	.LBB224:
  36              	.LBI224:
ARM GAS  C:\Users\pbant\AppData\Local\Temp\ccAmOMRv.s 			page 2


  37              		.file 2 "../../../../Desktop/DaisyExamples/libDaisy//src/sys/system.h"
   1:../../../../Desktop/DaisyExamples/libDaisy//src/sys/system.h **** #ifndef DSY_SYSTEM_H
   2:../../../../Desktop/DaisyExamples/libDaisy//src/sys/system.h **** #define DSY_SYSTEM_H
   3:../../../../Desktop/DaisyExamples/libDaisy//src/sys/system.h **** 
   4:../../../../Desktop/DaisyExamples/libDaisy//src/sys/system.h **** #ifndef UNIT_TEST // for unit tests, a dummy implementation is provided below
   5:../../../../Desktop/DaisyExamples/libDaisy//src/sys/system.h **** 
   6:../../../../Desktop/DaisyExamples/libDaisy//src/sys/system.h **** #include <cstdint>
   7:../../../../Desktop/DaisyExamples/libDaisy//src/sys/system.h **** #include "per/tim.h"
   8:../../../../Desktop/DaisyExamples/libDaisy//src/sys/system.h **** 
   9:../../../../Desktop/DaisyExamples/libDaisy//src/sys/system.h **** namespace daisy
  10:../../../../Desktop/DaisyExamples/libDaisy//src/sys/system.h **** {
  11:../../../../Desktop/DaisyExamples/libDaisy//src/sys/system.h **** /** A handle for interacting with the Core System.
  12:../../../../Desktop/DaisyExamples/libDaisy//src/sys/system.h ****  ** This includes the Clock tree, MPU, global DMA initialization,
  13:../../../../Desktop/DaisyExamples/libDaisy//src/sys/system.h ****  ** cache handling, and any other necessary global initiailzation
  14:../../../../Desktop/DaisyExamples/libDaisy//src/sys/system.h ****  **
  15:../../../../Desktop/DaisyExamples/libDaisy//src/sys/system.h ****  ** @author shensley
  16:../../../../Desktop/DaisyExamples/libDaisy//src/sys/system.h ****  ** @ingroup system
  17:../../../../Desktop/DaisyExamples/libDaisy//src/sys/system.h ****  */
  18:../../../../Desktop/DaisyExamples/libDaisy//src/sys/system.h **** class System
  19:../../../../Desktop/DaisyExamples/libDaisy//src/sys/system.h **** {
  20:../../../../Desktop/DaisyExamples/libDaisy//src/sys/system.h ****   public:
  21:../../../../Desktop/DaisyExamples/libDaisy//src/sys/system.h ****     /** Contains settings for initializing the System */
  22:../../../../Desktop/DaisyExamples/libDaisy//src/sys/system.h ****     struct Config
  23:../../../../Desktop/DaisyExamples/libDaisy//src/sys/system.h ****     {
  24:../../../../Desktop/DaisyExamples/libDaisy//src/sys/system.h ****         /** Specifies the system clock frequency that feeds APB/AHB clocks, etc. */
  25:../../../../Desktop/DaisyExamples/libDaisy//src/sys/system.h ****         enum class SysClkFreq
  26:../../../../Desktop/DaisyExamples/libDaisy//src/sys/system.h ****         {
  27:../../../../Desktop/DaisyExamples/libDaisy//src/sys/system.h ****             FREQ_400MHZ,
  28:../../../../Desktop/DaisyExamples/libDaisy//src/sys/system.h ****             FREQ_480MHZ,
  29:../../../../Desktop/DaisyExamples/libDaisy//src/sys/system.h ****         };
  30:../../../../Desktop/DaisyExamples/libDaisy//src/sys/system.h **** 
  31:../../../../Desktop/DaisyExamples/libDaisy//src/sys/system.h ****         /** Method to call on the struct to set to defaults
  32:../../../../Desktop/DaisyExamples/libDaisy//src/sys/system.h ****          ** CPU Freq set to 400MHz
  33:../../../../Desktop/DaisyExamples/libDaisy//src/sys/system.h ****          ** Cache Enabled
  34:../../../../Desktop/DaisyExamples/libDaisy//src/sys/system.h ****          ** */
  35:../../../../Desktop/DaisyExamples/libDaisy//src/sys/system.h ****         void Defaults()
  36:../../../../Desktop/DaisyExamples/libDaisy//src/sys/system.h ****         {
  37:../../../../Desktop/DaisyExamples/libDaisy//src/sys/system.h ****             cpu_freq    = SysClkFreq::FREQ_400MHZ;
  38:../../../../Desktop/DaisyExamples/libDaisy//src/sys/system.h ****             use_dcache  = true;
  39:../../../../Desktop/DaisyExamples/libDaisy//src/sys/system.h ****             use_icache  = true;
  40:../../../../Desktop/DaisyExamples/libDaisy//src/sys/system.h ****             skip_clocks = false;
  41:../../../../Desktop/DaisyExamples/libDaisy//src/sys/system.h ****         }
  42:../../../../Desktop/DaisyExamples/libDaisy//src/sys/system.h **** 
  43:../../../../Desktop/DaisyExamples/libDaisy//src/sys/system.h ****         /** Method to call on the struct to set to boost mode:
  44:../../../../Desktop/DaisyExamples/libDaisy//src/sys/system.h ****          ** CPU Freq set to 480MHz
  45:../../../../Desktop/DaisyExamples/libDaisy//src/sys/system.h ****          ** Cache Enabled
  46:../../../../Desktop/DaisyExamples/libDaisy//src/sys/system.h ****          ** */
  47:../../../../Desktop/DaisyExamples/libDaisy//src/sys/system.h ****         void Boost()
  48:../../../../Desktop/DaisyExamples/libDaisy//src/sys/system.h ****         {
  49:../../../../Desktop/DaisyExamples/libDaisy//src/sys/system.h ****             cpu_freq    = SysClkFreq::FREQ_480MHZ;
  50:../../../../Desktop/DaisyExamples/libDaisy//src/sys/system.h ****             use_dcache  = true;
  51:../../../../Desktop/DaisyExamples/libDaisy//src/sys/system.h ****             use_icache  = true;
  52:../../../../Desktop/DaisyExamples/libDaisy//src/sys/system.h ****             skip_clocks = false;
  53:../../../../Desktop/DaisyExamples/libDaisy//src/sys/system.h ****         }
  54:../../../../Desktop/DaisyExamples/libDaisy//src/sys/system.h **** 
  55:../../../../Desktop/DaisyExamples/libDaisy//src/sys/system.h ****         SysClkFreq cpu_freq;
  56:../../../../Desktop/DaisyExamples/libDaisy//src/sys/system.h ****         bool       use_dcache;
ARM GAS  C:\Users\pbant\AppData\Local\Temp\ccAmOMRv.s 			page 3


  57:../../../../Desktop/DaisyExamples/libDaisy//src/sys/system.h ****         bool       use_icache;
  58:../../../../Desktop/DaisyExamples/libDaisy//src/sys/system.h ****         bool       skip_clocks;
  59:../../../../Desktop/DaisyExamples/libDaisy//src/sys/system.h ****     };
  60:../../../../Desktop/DaisyExamples/libDaisy//src/sys/system.h **** 
  61:../../../../Desktop/DaisyExamples/libDaisy//src/sys/system.h ****     /** Describes the different regions of memory available to the Daisy */
  62:../../../../Desktop/DaisyExamples/libDaisy//src/sys/system.h ****     enum MemoryRegion
  63:../../../../Desktop/DaisyExamples/libDaisy//src/sys/system.h ****     {
  64:../../../../Desktop/DaisyExamples/libDaisy//src/sys/system.h ****         INTERNAL_FLASH = 0,
  65:../../../../Desktop/DaisyExamples/libDaisy//src/sys/system.h ****         ITCMRAM,
  66:../../../../Desktop/DaisyExamples/libDaisy//src/sys/system.h ****         DTCMRAM,
  67:../../../../Desktop/DaisyExamples/libDaisy//src/sys/system.h ****         SRAM_D1,
  68:../../../../Desktop/DaisyExamples/libDaisy//src/sys/system.h ****         SRAM_D2,
  69:../../../../Desktop/DaisyExamples/libDaisy//src/sys/system.h ****         SRAM_D3,
  70:../../../../Desktop/DaisyExamples/libDaisy//src/sys/system.h ****         SDRAM,
  71:../../../../Desktop/DaisyExamples/libDaisy//src/sys/system.h ****         QSPI,
  72:../../../../Desktop/DaisyExamples/libDaisy//src/sys/system.h ****         INVALID_ADDRESS,
  73:../../../../Desktop/DaisyExamples/libDaisy//src/sys/system.h ****     };
  74:../../../../Desktop/DaisyExamples/libDaisy//src/sys/system.h **** 
  75:../../../../Desktop/DaisyExamples/libDaisy//src/sys/system.h ****     /** Bootloader struct for controlling bootloading parameters */
  76:../../../../Desktop/DaisyExamples/libDaisy//src/sys/system.h ****     struct BootInfo
  77:../../../../Desktop/DaisyExamples/libDaisy//src/sys/system.h ****     {
  78:../../../../Desktop/DaisyExamples/libDaisy//src/sys/system.h ****         enum class Type : uint32_t
  79:../../../../Desktop/DaisyExamples/libDaisy//src/sys/system.h ****         {
  80:../../../../Desktop/DaisyExamples/libDaisy//src/sys/system.h ****             INVALID      = 0x00000000,
  81:../../../../Desktop/DaisyExamples/libDaisy//src/sys/system.h ****             JUMP         = 0xDEADBEEF,
  82:../../../../Desktop/DaisyExamples/libDaisy//src/sys/system.h ****             SKIP_TIMEOUT = 0x5AFEB007,
  83:../../../../Desktop/DaisyExamples/libDaisy//src/sys/system.h ****             INF_TIMEOUT  = 0xB0074EFA,
  84:../../../../Desktop/DaisyExamples/libDaisy//src/sys/system.h ****         } status;
  85:../../../../Desktop/DaisyExamples/libDaisy//src/sys/system.h ****         uint32_t data;
  86:../../../../Desktop/DaisyExamples/libDaisy//src/sys/system.h ****         enum class Version : uint32_t
  87:../../../../Desktop/DaisyExamples/libDaisy//src/sys/system.h ****         {
  88:../../../../Desktop/DaisyExamples/libDaisy//src/sys/system.h ****             LT_v6_0 = 0, // Less than v6.0
  89:../../../../Desktop/DaisyExamples/libDaisy//src/sys/system.h ****             NONE,        // No bootloader present
  90:../../../../Desktop/DaisyExamples/libDaisy//src/sys/system.h ****             v6_0,        // v6.0
  91:../../../../Desktop/DaisyExamples/libDaisy//src/sys/system.h ****             v6_1,        // v6.1 or greater
  92:../../../../Desktop/DaisyExamples/libDaisy//src/sys/system.h ****             LAST
  93:../../../../Desktop/DaisyExamples/libDaisy//src/sys/system.h ****         } version;
  94:../../../../Desktop/DaisyExamples/libDaisy//src/sys/system.h ****     };
  95:../../../../Desktop/DaisyExamples/libDaisy//src/sys/system.h **** 
  96:../../../../Desktop/DaisyExamples/libDaisy//src/sys/system.h ****     System() {}
  97:../../../../Desktop/DaisyExamples/libDaisy//src/sys/system.h ****     ~System() {}
  38              		.loc 2 97 5 view .LVU1
  39              		.loc 2 97 5 is_stmt 0 view .LVU2
  40              	.LBE224:
  41              	.LBB225:
  42              	.LBI225:
  43              		.file 3 "../../../../Desktop/DaisyExamples/libDaisy//src/hid/usb.h"
   1:../../../../Desktop/DaisyExamples/libDaisy//src/hid/usb.h **** #pragma once
   2:../../../../Desktop/DaisyExamples/libDaisy//src/hid/usb.h **** #ifndef DSY_HID_USB_H
   3:../../../../Desktop/DaisyExamples/libDaisy//src/hid/usb.h **** #define DSY_HID_USB_H
   4:../../../../Desktop/DaisyExamples/libDaisy//src/hid/usb.h **** #include <stdint.h>
   5:../../../../Desktop/DaisyExamples/libDaisy//src/hid/usb.h **** #include <stdlib.h>
   6:../../../../Desktop/DaisyExamples/libDaisy//src/hid/usb.h **** 
   7:../../../../Desktop/DaisyExamples/libDaisy//src/hid/usb.h **** namespace daisy
   8:../../../../Desktop/DaisyExamples/libDaisy//src/hid/usb.h **** /** @addtogroup human_interface
   9:../../../../Desktop/DaisyExamples/libDaisy//src/hid/usb.h ****     @{
  10:../../../../Desktop/DaisyExamples/libDaisy//src/hid/usb.h **** */
ARM GAS  C:\Users\pbant\AppData\Local\Temp\ccAmOMRv.s 			page 4


  11:../../../../Desktop/DaisyExamples/libDaisy//src/hid/usb.h **** 
  12:../../../../Desktop/DaisyExamples/libDaisy//src/hid/usb.h **** {
  13:../../../../Desktop/DaisyExamples/libDaisy//src/hid/usb.h **** /** 
  14:../../../../Desktop/DaisyExamples/libDaisy//src/hid/usb.h ****     @brief Interface for initializing and using the USB Peripherals on the daisy
  15:../../../../Desktop/DaisyExamples/libDaisy//src/hid/usb.h ****     @author Stephen Hensley
  16:../../../../Desktop/DaisyExamples/libDaisy//src/hid/usb.h ****     @date December 2019
  17:../../../../Desktop/DaisyExamples/libDaisy//src/hid/usb.h **** */
  18:../../../../Desktop/DaisyExamples/libDaisy//src/hid/usb.h **** class UsbHandle
  19:../../../../Desktop/DaisyExamples/libDaisy//src/hid/usb.h **** {
  20:../../../../Desktop/DaisyExamples/libDaisy//src/hid/usb.h ****   public:
  21:../../../../Desktop/DaisyExamples/libDaisy//src/hid/usb.h ****     /** Return values for USBHandle Functions */
  22:../../../../Desktop/DaisyExamples/libDaisy//src/hid/usb.h ****     enum class Result
  23:../../../../Desktop/DaisyExamples/libDaisy//src/hid/usb.h ****     {
  24:../../../../Desktop/DaisyExamples/libDaisy//src/hid/usb.h ****         OK,
  25:../../../../Desktop/DaisyExamples/libDaisy//src/hid/usb.h ****         ERR,
  26:../../../../Desktop/DaisyExamples/libDaisy//src/hid/usb.h ****     };
  27:../../../../Desktop/DaisyExamples/libDaisy//src/hid/usb.h **** 
  28:../../../../Desktop/DaisyExamples/libDaisy//src/hid/usb.h ****     /** Specified which of the two USB Peripherals to initialize. */
  29:../../../../Desktop/DaisyExamples/libDaisy//src/hid/usb.h ****     enum UsbPeriph
  30:../../../../Desktop/DaisyExamples/libDaisy//src/hid/usb.h ****     {
  31:../../../../Desktop/DaisyExamples/libDaisy//src/hid/usb.h ****         FS_INTERNAL, /**< Internal pin */
  32:../../../../Desktop/DaisyExamples/libDaisy//src/hid/usb.h ****         FS_EXTERNAL, /**< FS External D+ pin is Pin 38 (GPIO32). FS External D- pin is Pin 37 (GPIO
  33:../../../../Desktop/DaisyExamples/libDaisy//src/hid/usb.h ****         FS_BOTH,     /**< Both */
  34:../../../../Desktop/DaisyExamples/libDaisy//src/hid/usb.h ****     };
  35:../../../../Desktop/DaisyExamples/libDaisy//src/hid/usb.h **** 
  36:../../../../Desktop/DaisyExamples/libDaisy//src/hid/usb.h **** 
  37:../../../../Desktop/DaisyExamples/libDaisy//src/hid/usb.h ****     /** Function called upon reception of a buffer */
  38:../../../../Desktop/DaisyExamples/libDaisy//src/hid/usb.h ****     typedef void (*ReceiveCallback)(uint8_t* buff, uint32_t* len);
  39:../../../../Desktop/DaisyExamples/libDaisy//src/hid/usb.h **** 
  40:../../../../Desktop/DaisyExamples/libDaisy//src/hid/usb.h ****     UsbHandle() {}
  41:../../../../Desktop/DaisyExamples/libDaisy//src/hid/usb.h **** 
  42:../../../../Desktop/DaisyExamples/libDaisy//src/hid/usb.h ****     ~UsbHandle() {}
  44              		.loc 3 42 5 is_stmt 1 view .LVU3
  45              		.loc 3 42 5 is_stmt 0 view .LVU4
  46              	.LBE225:
  47              	.LBB226:
  48              	.LBI226:
  49              		.file 4 "../../../../Desktop/DaisyExamples/libDaisy//src/per/adc.h"
   1:../../../../Desktop/DaisyExamples/libDaisy//src/per/adc.h **** #pragma once
   2:../../../../Desktop/DaisyExamples/libDaisy//src/per/adc.h **** #ifndef DSY_ADC_H
   3:../../../../Desktop/DaisyExamples/libDaisy//src/per/adc.h **** #define DSY_ADC_H /**< Macro */
   4:../../../../Desktop/DaisyExamples/libDaisy//src/per/adc.h **** #include <stdint.h>
   5:../../../../Desktop/DaisyExamples/libDaisy//src/per/adc.h **** #include <stdlib.h>
   6:../../../../Desktop/DaisyExamples/libDaisy//src/per/adc.h **** #include "daisy_core.h"
   7:../../../../Desktop/DaisyExamples/libDaisy//src/per/adc.h **** #include "per/gpio.h"
   8:../../../../Desktop/DaisyExamples/libDaisy//src/per/adc.h **** 
   9:../../../../Desktop/DaisyExamples/libDaisy//src/per/adc.h **** #define DSY_ADC_MAX_CHANNELS 16 /**< Maximum number of ADC channels */
  10:../../../../Desktop/DaisyExamples/libDaisy//src/per/adc.h **** 
  11:../../../../Desktop/DaisyExamples/libDaisy//src/per/adc.h **** namespace daisy
  12:../../../../Desktop/DaisyExamples/libDaisy//src/per/adc.h **** {
  13:../../../../Desktop/DaisyExamples/libDaisy//src/per/adc.h **** /** @addtogroup per_analog
  14:../../../../Desktop/DaisyExamples/libDaisy//src/per/adc.h ****     @{
  15:../../../../Desktop/DaisyExamples/libDaisy//src/per/adc.h **** */
  16:../../../../Desktop/DaisyExamples/libDaisy//src/per/adc.h **** 
  17:../../../../Desktop/DaisyExamples/libDaisy//src/per/adc.h **** /* While there may not be many configuration options here,
  18:../../../../Desktop/DaisyExamples/libDaisy//src/per/adc.h **** using a struct like this allows us to add more configuration
  19:../../../../Desktop/DaisyExamples/libDaisy//src/per/adc.h **** later without breaking existing functionality.
ARM GAS  C:\Users\pbant\AppData\Local\Temp\ccAmOMRv.s 			page 5


  20:../../../../Desktop/DaisyExamples/libDaisy//src/per/adc.h **** */
  21:../../../../Desktop/DaisyExamples/libDaisy//src/per/adc.h **** 
  22:../../../../Desktop/DaisyExamples/libDaisy//src/per/adc.h **** /** @brief   Configuration Structure for an ADC Channel 
  23:../../../../Desktop/DaisyExamples/libDaisy//src/per/adc.h ****  *  @details This can be used to configure a a single input, 
  24:../../../../Desktop/DaisyExamples/libDaisy//src/per/adc.h ****  *           or a multiplexed input, allowing up to 8 inputs on 
  25:../../../../Desktop/DaisyExamples/libDaisy//src/per/adc.h ****  *           one channel.
  26:../../../../Desktop/DaisyExamples/libDaisy//src/per/adc.h ****  *  @note    Sharing data lines to multiple muxes _is_ possible, but
  27:../../../../Desktop/DaisyExamples/libDaisy//src/per/adc.h ****  *           each channel sharing data lines must be set to the maximum
  28:../../../../Desktop/DaisyExamples/libDaisy//src/per/adc.h ****  *           number of channels, even if some multiplexers have fewer
  29:../../../../Desktop/DaisyExamples/libDaisy//src/per/adc.h ****  *           inputs connected.
  30:../../../../Desktop/DaisyExamples/libDaisy//src/per/adc.h **** */
  31:../../../../Desktop/DaisyExamples/libDaisy//src/per/adc.h **** struct AdcChannelConfig
  32:../../../../Desktop/DaisyExamples/libDaisy//src/per/adc.h **** {
  33:../../../../Desktop/DaisyExamples/libDaisy//src/per/adc.h ****     /** Which pin to use for multiplexing */
  34:../../../../Desktop/DaisyExamples/libDaisy//src/per/adc.h ****     enum MuxPin
  35:../../../../Desktop/DaisyExamples/libDaisy//src/per/adc.h ****     {
  36:../../../../Desktop/DaisyExamples/libDaisy//src/per/adc.h ****         MUX_SEL_0,    /**< & */
  37:../../../../Desktop/DaisyExamples/libDaisy//src/per/adc.h ****         MUX_SEL_1,    /**< & */
  38:../../../../Desktop/DaisyExamples/libDaisy//src/per/adc.h ****         MUX_SEL_2,    /**< & */
  39:../../../../Desktop/DaisyExamples/libDaisy//src/per/adc.h ****         MUX_SEL_LAST, /**< & */
  40:../../../../Desktop/DaisyExamples/libDaisy//src/per/adc.h ****     };
  41:../../../../Desktop/DaisyExamples/libDaisy//src/per/adc.h **** 
  42:../../../../Desktop/DaisyExamples/libDaisy//src/per/adc.h ****     /** \brief per channel conversion speed added to fixed time based on bitdepth, etc. */
  43:../../../../Desktop/DaisyExamples/libDaisy//src/per/adc.h ****     enum ConversionSpeed
  44:../../../../Desktop/DaisyExamples/libDaisy//src/per/adc.h ****     {
  45:../../../../Desktop/DaisyExamples/libDaisy//src/per/adc.h ****         SPEED_1CYCLES_5,
  46:../../../../Desktop/DaisyExamples/libDaisy//src/per/adc.h ****         SPEED_2CYCLES_5,
  47:../../../../Desktop/DaisyExamples/libDaisy//src/per/adc.h ****         SPEED_8CYCLES_5,
  48:../../../../Desktop/DaisyExamples/libDaisy//src/per/adc.h ****         SPEED_16CYCLES_5,
  49:../../../../Desktop/DaisyExamples/libDaisy//src/per/adc.h ****         SPEED_32CYCLES_5,
  50:../../../../Desktop/DaisyExamples/libDaisy//src/per/adc.h ****         SPEED_64CYCLES_5,
  51:../../../../Desktop/DaisyExamples/libDaisy//src/per/adc.h ****         SPEED_387CYCLES_5,
  52:../../../../Desktop/DaisyExamples/libDaisy//src/per/adc.h ****         SPEED_810CYCLES_5,
  53:../../../../Desktop/DaisyExamples/libDaisy//src/per/adc.h ****     };
  54:../../../../Desktop/DaisyExamples/libDaisy//src/per/adc.h **** 
  55:../../../../Desktop/DaisyExamples/libDaisy//src/per/adc.h ****     /** Initializes a single ADC pin as an ADC. 
  56:../../../../Desktop/DaisyExamples/libDaisy//src/per/adc.h ****     \param pin Pin to init.
  57:../../../../Desktop/DaisyExamples/libDaisy//src/per/adc.h ****     \param speed conversion speed for this pin defaults to 8.5 cycles
  58:../../../../Desktop/DaisyExamples/libDaisy//src/per/adc.h ****      */
  59:../../../../Desktop/DaisyExamples/libDaisy//src/per/adc.h ****     void InitSingle(dsy_gpio_pin pin, ConversionSpeed speed = SPEED_8CYCLES_5);
  60:../../../../Desktop/DaisyExamples/libDaisy//src/per/adc.h **** 
  61:../../../../Desktop/DaisyExamples/libDaisy//src/per/adc.h ****     /** 
  62:../../../../Desktop/DaisyExamples/libDaisy//src/per/adc.h ****     Initializes a single ADC pin as a Multiplexed ADC.
  63:../../../../Desktop/DaisyExamples/libDaisy//src/per/adc.h ****     Requires a CD405X Multiplexer connected to the pin.
  64:../../../../Desktop/DaisyExamples/libDaisy//src/per/adc.h ****     You only need to supply the mux pins that are required,
  65:../../../../Desktop/DaisyExamples/libDaisy//src/per/adc.h ****     e.g. a 4052 mux would only require mux_0 and mux_1.
  66:../../../../Desktop/DaisyExamples/libDaisy//src/per/adc.h ****     Internal Callbacks handle the pin addressing.
  67:../../../../Desktop/DaisyExamples/libDaisy//src/per/adc.h ****     \param adc_pin &
  68:../../../../Desktop/DaisyExamples/libDaisy//src/per/adc.h ****     \param mux_channels must be 1-8
  69:../../../../Desktop/DaisyExamples/libDaisy//src/per/adc.h ****     \param mux_0 First mux pin
  70:../../../../Desktop/DaisyExamples/libDaisy//src/per/adc.h ****     \param mux_1 Second mux pin
  71:../../../../Desktop/DaisyExamples/libDaisy//src/per/adc.h ****     \param mux_2 Third mux pin
  72:../../../../Desktop/DaisyExamples/libDaisy//src/per/adc.h ****     \param speed conversion speed for this pin defaults to 8.5 cycles
  73:../../../../Desktop/DaisyExamples/libDaisy//src/per/adc.h ****     */
  74:../../../../Desktop/DaisyExamples/libDaisy//src/per/adc.h ****     void InitMux(dsy_gpio_pin    adc_pin,
  75:../../../../Desktop/DaisyExamples/libDaisy//src/per/adc.h ****                  size_t          mux_channels,
  76:../../../../Desktop/DaisyExamples/libDaisy//src/per/adc.h ****                  dsy_gpio_pin    mux_0,
ARM GAS  C:\Users\pbant\AppData\Local\Temp\ccAmOMRv.s 			page 6


  77:../../../../Desktop/DaisyExamples/libDaisy//src/per/adc.h ****                  dsy_gpio_pin    mux_1 = {DSY_GPIOX, 0},
  78:../../../../Desktop/DaisyExamples/libDaisy//src/per/adc.h ****                  dsy_gpio_pin    mux_2 = {DSY_GPIOX, 0},
  79:../../../../Desktop/DaisyExamples/libDaisy//src/per/adc.h ****                  ConversionSpeed speed = SPEED_8CYCLES_5);
  80:../../../../Desktop/DaisyExamples/libDaisy//src/per/adc.h **** 
  81:../../../../Desktop/DaisyExamples/libDaisy//src/per/adc.h ****     dsy_gpio        pin_;                   /**< & */
  82:../../../../Desktop/DaisyExamples/libDaisy//src/per/adc.h ****     dsy_gpio        mux_pin_[MUX_SEL_LAST]; /**< & */
  83:../../../../Desktop/DaisyExamples/libDaisy//src/per/adc.h ****     uint8_t         mux_channels_;          /**< & */
  84:../../../../Desktop/DaisyExamples/libDaisy//src/per/adc.h ****     ConversionSpeed speed_;
  85:../../../../Desktop/DaisyExamples/libDaisy//src/per/adc.h **** };
  86:../../../../Desktop/DaisyExamples/libDaisy//src/per/adc.h **** 
  87:../../../../Desktop/DaisyExamples/libDaisy//src/per/adc.h **** /**
  88:../../../../Desktop/DaisyExamples/libDaisy//src/per/adc.h ****    @brief Handler for analog to digital conversion
  89:../../../../Desktop/DaisyExamples/libDaisy//src/per/adc.h **** */
  90:../../../../Desktop/DaisyExamples/libDaisy//src/per/adc.h **** class AdcHandle
  91:../../../../Desktop/DaisyExamples/libDaisy//src/per/adc.h **** {
  92:../../../../Desktop/DaisyExamples/libDaisy//src/per/adc.h ****   public:
  93:../../../../Desktop/DaisyExamples/libDaisy//src/per/adc.h ****     /** Supported oversampling amounts */
  94:../../../../Desktop/DaisyExamples/libDaisy//src/per/adc.h ****     enum OverSampling
  95:../../../../Desktop/DaisyExamples/libDaisy//src/per/adc.h ****     {
  96:../../../../Desktop/DaisyExamples/libDaisy//src/per/adc.h ****         OVS_NONE, /**< & */
  97:../../../../Desktop/DaisyExamples/libDaisy//src/per/adc.h ****         OVS_4,    /**< & */
  98:../../../../Desktop/DaisyExamples/libDaisy//src/per/adc.h ****         OVS_8,    /**< & */
  99:../../../../Desktop/DaisyExamples/libDaisy//src/per/adc.h ****         OVS_16,   /**< & */
 100:../../../../Desktop/DaisyExamples/libDaisy//src/per/adc.h ****         OVS_32,   /**< & */
 101:../../../../Desktop/DaisyExamples/libDaisy//src/per/adc.h ****         OVS_64,   /**< & */
 102:../../../../Desktop/DaisyExamples/libDaisy//src/per/adc.h ****         OVS_128,  /**< & */
 103:../../../../Desktop/DaisyExamples/libDaisy//src/per/adc.h ****         OVS_256,  /**< & */
 104:../../../../Desktop/DaisyExamples/libDaisy//src/per/adc.h ****         OVS_512,  /**< & */
 105:../../../../Desktop/DaisyExamples/libDaisy//src/per/adc.h ****         OVS_1024, /**< & */
 106:../../../../Desktop/DaisyExamples/libDaisy//src/per/adc.h ****         OVS_LAST, /**< & */
 107:../../../../Desktop/DaisyExamples/libDaisy//src/per/adc.h ****     };
 108:../../../../Desktop/DaisyExamples/libDaisy//src/per/adc.h **** 
 109:../../../../Desktop/DaisyExamples/libDaisy//src/per/adc.h ****     AdcHandle() {}
 110:../../../../Desktop/DaisyExamples/libDaisy//src/per/adc.h ****     ~AdcHandle() {}
  50              		.loc 4 110 5 is_stmt 1 view .LVU5
  51              		.loc 4 110 5 is_stmt 0 view .LVU6
  52              	.LBE226:
  53              	.LBB227:
  54              	.LBI227:
  55              		.file 5 "../../../../Desktop/DaisyExamples/libDaisy//src/hid/audio.h"
   1:../../../../Desktop/DaisyExamples/libDaisy//src/hid/audio.h **** #ifndef DSY_AUDIO_H
   2:../../../../Desktop/DaisyExamples/libDaisy//src/hid/audio.h **** #define DSY_AUDIO_H /**< & */
   3:../../../../Desktop/DaisyExamples/libDaisy//src/hid/audio.h **** 
   4:../../../../Desktop/DaisyExamples/libDaisy//src/hid/audio.h **** #include "per/sai.h"
   5:../../../../Desktop/DaisyExamples/libDaisy//src/hid/audio.h **** 
   6:../../../../Desktop/DaisyExamples/libDaisy//src/hid/audio.h **** namespace daisy
   7:../../../../Desktop/DaisyExamples/libDaisy//src/hid/audio.h **** {
   8:../../../../Desktop/DaisyExamples/libDaisy//src/hid/audio.h **** /** @brief Audio Engine Handle
   9:../../../../Desktop/DaisyExamples/libDaisy//src/hid/audio.h ****  *  @ingroup audio 
  10:../../../../Desktop/DaisyExamples/libDaisy//src/hid/audio.h ****  *  @details This class allows for higher level access to an audio engine.
  11:../../../../Desktop/DaisyExamples/libDaisy//src/hid/audio.h ****  *           If you're using a SOM like the DaisySeed or DaisyPatchSM (or any 
  12:../../../../Desktop/DaisyExamples/libDaisy//src/hid/audio.h ****  *            board that includes one of those objects) then the intialization
  13:../../../../Desktop/DaisyExamples/libDaisy//src/hid/audio.h ****  *            is already taken  care of.
  14:../../../../Desktop/DaisyExamples/libDaisy//src/hid/audio.h ****  *           If you're setting up your own custom hardware, or need to make changes
  15:../../../../Desktop/DaisyExamples/libDaisy//src/hid/audio.h ****  *           you will have to take the following steps:
  16:../../../../Desktop/DaisyExamples/libDaisy//src/hid/audio.h ****  *             1. Create and Initialize an SaiHandle or two depending on your requirements
  17:../../../../Desktop/DaisyExamples/libDaisy//src/hid/audio.h ****  *             2. Initialize the Audio Handle with the desired settings and the Initialized SaiHand
ARM GAS  C:\Users\pbant\AppData\Local\Temp\ccAmOMRv.s 			page 7


  18:../../../../Desktop/DaisyExamples/libDaisy//src/hid/audio.h ****  *             3. If the connected codec requires special configuration or initialization, do so
  19:../../../../Desktop/DaisyExamples/libDaisy//src/hid/audio.h ****  *             4. Write a callback method using either the AudioCallback or the InterleavingAudioCa
  20:../../../../Desktop/DaisyExamples/libDaisy//src/hid/audio.h ****  *             5. Start the Audio using one of the StartAudio function
  21:../../../../Desktop/DaisyExamples/libDaisy//src/hid/audio.h ****  */
  22:../../../../Desktop/DaisyExamples/libDaisy//src/hid/audio.h **** class AudioHandle
  23:../../../../Desktop/DaisyExamples/libDaisy//src/hid/audio.h **** {
  24:../../../../Desktop/DaisyExamples/libDaisy//src/hid/audio.h ****   public:
  25:../../../../Desktop/DaisyExamples/libDaisy//src/hid/audio.h ****     /** Manually configurable details about the Audio Engine */
  26:../../../../Desktop/DaisyExamples/libDaisy//src/hid/audio.h ****     /** TODO: Figure out how to get samplerate in here. */
  27:../../../../Desktop/DaisyExamples/libDaisy//src/hid/audio.h ****     struct Config
  28:../../../../Desktop/DaisyExamples/libDaisy//src/hid/audio.h ****     {
  29:../../../../Desktop/DaisyExamples/libDaisy//src/hid/audio.h ****         /** number of samples to process per callback */
  30:../../../../Desktop/DaisyExamples/libDaisy//src/hid/audio.h ****         size_t blocksize;
  31:../../../../Desktop/DaisyExamples/libDaisy//src/hid/audio.h **** 
  32:../../../../Desktop/DaisyExamples/libDaisy//src/hid/audio.h ****         /**< Sample rate of audio */
  33:../../../../Desktop/DaisyExamples/libDaisy//src/hid/audio.h ****         SaiHandle::Config::SampleRate samplerate;
  34:../../../../Desktop/DaisyExamples/libDaisy//src/hid/audio.h **** 
  35:../../../../Desktop/DaisyExamples/libDaisy//src/hid/audio.h ****         /** factor for adjustment before and after callback for hardware that may have extra headro
  36:../../../../Desktop/DaisyExamples/libDaisy//src/hid/audio.h ****         float postgain;
  37:../../../../Desktop/DaisyExamples/libDaisy//src/hid/audio.h **** 
  38:../../../../Desktop/DaisyExamples/libDaisy//src/hid/audio.h ****         /** factor for additional one-sided compensation to audio path for hardware that may
  39:../../../../Desktop/DaisyExamples/libDaisy//src/hid/audio.h ****          *  have unequal input/output ranges
  40:../../../../Desktop/DaisyExamples/libDaisy//src/hid/audio.h ****          */
  41:../../../../Desktop/DaisyExamples/libDaisy//src/hid/audio.h ****         float output_compensation;
  42:../../../../Desktop/DaisyExamples/libDaisy//src/hid/audio.h **** 
  43:../../../../Desktop/DaisyExamples/libDaisy//src/hid/audio.h ****         /** Sets default values for config struct */
  44:../../../../Desktop/DaisyExamples/libDaisy//src/hid/audio.h ****         Config()
  45:../../../../Desktop/DaisyExamples/libDaisy//src/hid/audio.h ****         : blocksize(48),
  46:../../../../Desktop/DaisyExamples/libDaisy//src/hid/audio.h ****           samplerate(SaiHandle::Config::SampleRate::SAI_48KHZ),
  47:../../../../Desktop/DaisyExamples/libDaisy//src/hid/audio.h ****           postgain(1.f),
  48:../../../../Desktop/DaisyExamples/libDaisy//src/hid/audio.h ****           output_compensation(1.f)
  49:../../../../Desktop/DaisyExamples/libDaisy//src/hid/audio.h ****         {
  50:../../../../Desktop/DaisyExamples/libDaisy//src/hid/audio.h ****         }
  51:../../../../Desktop/DaisyExamples/libDaisy//src/hid/audio.h ****     };
  52:../../../../Desktop/DaisyExamples/libDaisy//src/hid/audio.h **** 
  53:../../../../Desktop/DaisyExamples/libDaisy//src/hid/audio.h ****     enum class Result
  54:../../../../Desktop/DaisyExamples/libDaisy//src/hid/audio.h ****     {
  55:../../../../Desktop/DaisyExamples/libDaisy//src/hid/audio.h ****         OK,
  56:../../../../Desktop/DaisyExamples/libDaisy//src/hid/audio.h ****         ERR,
  57:../../../../Desktop/DaisyExamples/libDaisy//src/hid/audio.h ****     };
  58:../../../../Desktop/DaisyExamples/libDaisy//src/hid/audio.h **** 
  59:../../../../Desktop/DaisyExamples/libDaisy//src/hid/audio.h ****     /** Non-Interleaving input buffer
  60:../../../../Desktop/DaisyExamples/libDaisy//src/hid/audio.h ****      * Buffer arranged by float[chn][sample] 
  61:../../../../Desktop/DaisyExamples/libDaisy//src/hid/audio.h ****      * const so that the user can't modify the input
  62:../../../../Desktop/DaisyExamples/libDaisy//src/hid/audio.h ****      */
  63:../../../../Desktop/DaisyExamples/libDaisy//src/hid/audio.h ****     typedef const float* const* InputBuffer;
  64:../../../../Desktop/DaisyExamples/libDaisy//src/hid/audio.h **** 
  65:../../../../Desktop/DaisyExamples/libDaisy//src/hid/audio.h ****     /** Non-Interleaving output buffer
  66:../../../../Desktop/DaisyExamples/libDaisy//src/hid/audio.h ****      * Arranged by float[chn][sample] 
  67:../../../../Desktop/DaisyExamples/libDaisy//src/hid/audio.h ****      */
  68:../../../../Desktop/DaisyExamples/libDaisy//src/hid/audio.h ****     typedef float** OutputBuffer;
  69:../../../../Desktop/DaisyExamples/libDaisy//src/hid/audio.h **** 
  70:../../../../Desktop/DaisyExamples/libDaisy//src/hid/audio.h ****     /** Type for a Non-Interleaving audio callback 
  71:../../../../Desktop/DaisyExamples/libDaisy//src/hid/audio.h ****      * Non-Interleaving audio callbacks in daisy will be of this type
  72:../../../../Desktop/DaisyExamples/libDaisy//src/hid/audio.h ****      */
  73:../../../../Desktop/DaisyExamples/libDaisy//src/hid/audio.h ****     typedef void (*AudioCallback)(InputBuffer  in,
  74:../../../../Desktop/DaisyExamples/libDaisy//src/hid/audio.h ****                                   OutputBuffer out,
ARM GAS  C:\Users\pbant\AppData\Local\Temp\ccAmOMRv.s 			page 8


  75:../../../../Desktop/DaisyExamples/libDaisy//src/hid/audio.h ****                                   size_t       size);
  76:../../../../Desktop/DaisyExamples/libDaisy//src/hid/audio.h **** 
  77:../../../../Desktop/DaisyExamples/libDaisy//src/hid/audio.h ****     /** Interleaving Input buffer
  78:../../../../Desktop/DaisyExamples/libDaisy//src/hid/audio.h ****      ** audio is prepared as { L0, R0, L1, R1, . . . LN, RN }]
  79:../../../../Desktop/DaisyExamples/libDaisy//src/hid/audio.h ****      ** this is const, as the user shouldn't modify it
  80:../../../../Desktop/DaisyExamples/libDaisy//src/hid/audio.h ****     */
  81:../../../../Desktop/DaisyExamples/libDaisy//src/hid/audio.h ****     typedef const float* InterleavingInputBuffer;
  82:../../../../Desktop/DaisyExamples/libDaisy//src/hid/audio.h **** 
  83:../../../../Desktop/DaisyExamples/libDaisy//src/hid/audio.h ****     /** Interleaving Output buffer 
  84:../../../../Desktop/DaisyExamples/libDaisy//src/hid/audio.h ****      ** audio is prepared as { L0, R0, L1, R1, . . . LN, RN }
  85:../../../../Desktop/DaisyExamples/libDaisy//src/hid/audio.h ****     */
  86:../../../../Desktop/DaisyExamples/libDaisy//src/hid/audio.h ****     typedef float* InterleavingOutputBuffer;
  87:../../../../Desktop/DaisyExamples/libDaisy//src/hid/audio.h **** 
  88:../../../../Desktop/DaisyExamples/libDaisy//src/hid/audio.h ****     /** Interleaving Audio Callback 
  89:../../../../Desktop/DaisyExamples/libDaisy//src/hid/audio.h ****      * Interleaving audio callbacks in daisy must be of this type
  90:../../../../Desktop/DaisyExamples/libDaisy//src/hid/audio.h ****      */
  91:../../../../Desktop/DaisyExamples/libDaisy//src/hid/audio.h ****     typedef void (*InterleavingAudioCallback)(InterleavingInputBuffer  in,
  92:../../../../Desktop/DaisyExamples/libDaisy//src/hid/audio.h ****                                               InterleavingOutputBuffer out,
  93:../../../../Desktop/DaisyExamples/libDaisy//src/hid/audio.h ****                                               size_t                   size);
  94:../../../../Desktop/DaisyExamples/libDaisy//src/hid/audio.h **** 
  95:../../../../Desktop/DaisyExamples/libDaisy//src/hid/audio.h ****     AudioHandle() : pimpl_(nullptr) {}
  96:../../../../Desktop/DaisyExamples/libDaisy//src/hid/audio.h ****     ~AudioHandle() {}
  56              		.loc 5 96 5 is_stmt 1 view .LVU7
  57              		.loc 5 96 5 is_stmt 0 view .LVU8
  58              	.LBE227:
  59              		.loc 1 22 19 view .LVU9
  60 0000 7047     		bx	lr
  61              		.cfi_endproc
  62              	.LFE2555:
  64              		.weak	_ZN5daisy9DaisySeedD1Ev
  65              		.thumb_set _ZN5daisy9DaisySeedD1Ev,_ZN5daisy9DaisySeedD2Ev
  66 0002 00BF     		.section	.text._Z13AudioCallbackPKPKfPPfj,"ax",%progbits
  67              		.align	1
  68              		.p2align 2,,3
  69              		.global	_Z13AudioCallbackPKPKfPPfj
  70              		.syntax unified
  71              		.thumb
  72              		.thumb_func
  73              		.fpu fpv5-d16
  75              	_Z13AudioCallbackPKPKfPPfj:
  76              	.LVL1:
  77              	.LFB4752:
  78              		.file 6 "TestTFT.cpp"
   1:TestTFT.cpp   **** #include "Debug.h"
   2:TestTFT.cpp   **** #include "daisy_seed.h"
   3:TestTFT.cpp   **** #include "daisysp.h"
   4:TestTFT.cpp   **** #include "GFX.h"
   5:TestTFT.cpp   **** #include "Vanilla20pt.h"
   6:TestTFT.cpp   **** #include "Pap.h"
   7:TestTFT.cpp   **** 
   8:TestTFT.cpp   **** using namespace daisy;
   9:TestTFT.cpp   **** using namespace daisysp;
  10:TestTFT.cpp   **** 
  11:TestTFT.cpp   **** DaisySeed hw;
  12:TestTFT.cpp   **** 
  13:TestTFT.cpp   **** 
  14:TestTFT.cpp   **** FIFO_Data DMA_BUFFER_MEM_SECTION __Fifo;
ARM GAS  C:\Users\pbant\AppData\Local\Temp\ccAmOMRv.s 			page 9


  15:TestTFT.cpp   **** RGB DSY_SDRAM_BSS __FrameBuff[TFT_WIDTH*TFT_HEIGHT];
  16:TestTFT.cpp   **** cGFX __Display;
  17:TestTFT.cpp   **** cFont Vanilla20(&VanillaExtractRegular20pt7b);
  18:TestTFT.cpp   **** 
  19:TestTFT.cpp   **** void AudioCallback(AudioHandle::InputBuffer in, AudioHandle::OutputBuffer out, size_t size)
  20:TestTFT.cpp   **** {
  79              		.loc 6 20 1 is_stmt 1 view -0
  80              		.cfi_startproc
  81              		@ args = 0, pretend = 0, frame = 0
  82              		@ frame_needed = 0, uses_anonymous_args = 0
  83              		@ link register save eliminated.
  21:TestTFT.cpp   **** 	for (size_t i = 0; i < size; i++)
  84              		.loc 6 21 2 view .LVU11
  85              	.LBB228:
  86              		.loc 6 21 23 view .LVU12
  87 0000 9AB1     		cbz	r2, .L11
  88 0002 0368     		ldr	r3, [r0]
  89 0004 4068     		ldr	r0, [r0, #4]
  90              	.LVL2:
  91              		.loc 6 21 23 is_stmt 0 view .LVU13
  92 0006 03EB820C 		add	ip, r3, r2, lsl #2
  93              	.LBE228:
  20:TestTFT.cpp   **** 	for (size_t i = 0; i < size; i++)
  94              		.loc 6 20 1 view .LVU14
  95 000a 10B4     		push	{r4}
  96              		.cfi_def_cfa_offset 4
  97              		.cfi_offset 4, -4
  98 000c 0C68     		ldr	r4, [r1]
  99 000e 4968     		ldr	r1, [r1, #4]
 100              	.LVL3:
 101              	.L5:
 102              	.LBB229:
  22:TestTFT.cpp   **** 	{
  23:TestTFT.cpp   **** 		out[0][i] = in[0][i];
 103              		.loc 6 23 3 is_stmt 1 discriminator 2 view .LVU15
 104              		.loc 6 23 22 is_stmt 0 discriminator 2 view .LVU16
 105 0010 53F8042B 		ldr	r2, [r3], #4	@ float
 106              		.loc 6 23 13 discriminator 2 view .LVU17
 107 0014 44F8042B 		str	r2, [r4], #4	@ float
  24:TestTFT.cpp   **** 		out[1][i] = in[1][i];
 108              		.loc 6 24 3 is_stmt 1 discriminator 2 view .LVU18
  21:TestTFT.cpp   **** 	{
 109              		.loc 6 21 23 is_stmt 0 discriminator 2 view .LVU19
 110 0018 6345     		cmp	r3, ip
 111              		.loc 6 24 22 discriminator 2 view .LVU20
 112 001a 50F8042B 		ldr	r2, [r0], #4	@ float
 113              		.loc 6 24 13 discriminator 2 view .LVU21
 114 001e 41F8042B 		str	r2, [r1], #4	@ float
  21:TestTFT.cpp   **** 	{
 115              		.loc 6 21 2 is_stmt 1 discriminator 2 view .LVU22
  21:TestTFT.cpp   **** 	{
 116              		.loc 6 21 23 discriminator 2 view .LVU23
 117 0022 F5D1     		bne	.L5
 118              	.LBE229:
  25:TestTFT.cpp   **** 	}
  26:TestTFT.cpp   **** }
 119              		.loc 6 26 1 is_stmt 0 view .LVU24
ARM GAS  C:\Users\pbant\AppData\Local\Temp\ccAmOMRv.s 			page 10


 120 0024 5DF8044B 		ldr	r4, [sp], #4
 121              		.cfi_restore 4
 122              		.cfi_def_cfa_offset 0
 123 0028 7047     		bx	lr
 124              	.LVL4:
 125              	.L11:
 126              		.loc 6 26 1 view .LVU25
 127 002a 7047     		bx	lr
 128              		.cfi_endproc
 129              	.LFE4752:
 131              		.section	.rodata.main.str1.4,"aMS",%progbits,1
 132              		.align	2
 133              	.LC0:
 134 0000 426F6E6A 		.ascii	"Bonjour !\000"
 134      6F757220 
 134      2100
 135 000a 0000     		.align	2
 136              	.LC1:
 137 000c 25303264 		.ascii	"%02d\000"
 137      00
 138              		.section	.text.startup.main,"ax",%progbits
 139              		.align	1
 140              		.p2align 2,,3
 141              		.global	main
 142              		.syntax unified
 143              		.thumb
 144              		.thumb_func
 145              		.fpu fpv5-d16
 147              	main:
 148              	.LFB4753:
  27:TestTFT.cpp   **** 
  28:TestTFT.cpp   **** int main(void)
  29:TestTFT.cpp   **** {
 149              		.loc 6 29 1 is_stmt 1 view -0
 150              		.cfi_startproc
 151              		@ args = 0, pretend = 0, frame = 80
 152              		@ frame_needed = 0, uses_anonymous_args = 0
  30:TestTFT.cpp   **** 	hw.Init();
 153              		.loc 6 30 2 view .LVU27
  29:TestTFT.cpp   **** 	hw.Init();
 154              		.loc 6 29 1 is_stmt 0 view .LVU28
 155 0000 2DE9F04F 		push	{r4, r5, r6, r7, r8, r9, r10, fp, lr}
 156              		.cfi_def_cfa_offset 36
 157              		.cfi_offset 4, -36
 158              		.cfi_offset 5, -32
 159              		.cfi_offset 6, -28
 160              		.cfi_offset 7, -24
 161              		.cfi_offset 8, -20
 162              		.cfi_offset 9, -16
 163              		.cfi_offset 10, -12
 164              		.cfi_offset 11, -8
 165              		.cfi_offset 14, -4
 166              		.loc 6 30 9 view .LVU29
 167 0004 0021     		movs	r1, #0
  29:TestTFT.cpp   **** 	hw.Init();
 168              		.loc 6 29 1 view .LVU30
 169 0006 97B0     		sub	sp, sp, #92
ARM GAS  C:\Users\pbant\AppData\Local\Temp\ccAmOMRv.s 			page 11


 170              		.cfi_def_cfa_offset 128
 171              		.loc 6 30 9 view .LVU31
 172 0008 6D48     		ldr	r0, .L26
 173              	.LBB309:
 174              	.LBB310:
 175              	.LBB311:
 176              		.file 7 "Frame.h"
   1:Frame.h       **** //------------------------------------------------------------------------
   2:Frame.h       **** // Copyright(c) 2024 Dad Desing.
   3:Frame.h       **** //      Gestion d'une frame de pixel
   4:Frame.h       **** //      Les pixels sont organisés en bloc de transmission
   5:Frame.h       **** //      pour une mise à jour optimisé de l'écran
   6:Frame.h       **** //------------------------------------------------------------------------
   7:Frame.h       **** #pragma once
   8:Frame.h       **** #include <stdint.h>
   9:Frame.h       **** #include "TFT_SPI.h"
  10:Frame.h       **** #include "Debug.h"
  11:Frame.h       **** 
  12:Frame.h       **** #define NB_BLOC (FRAME_GRILLE*FRAME_GRILLE)
  13:Frame.h       **** #if TFT_COLOR == 16
  14:Frame.h       ****     #define TAILLE_BLOC (TFT_WIDTH * TFT_HEIGHT * 2) / NB_BLOC
  15:Frame.h       **** #else
  16:Frame.h       ****     #define TAILLE_BLOC (TFT_WIDTH * TFT_HEIGHT * 3) / NB_BLOC
  17:Frame.h       **** #endif
  18:Frame.h       **** 
  19:Frame.h       **** //***********************************************************************************
  20:Frame.h       **** // Cmd_CASET
  21:Frame.h       **** //   Commande SPI de séléction des colones  
  22:Frame.h       **** //*********************************************************************************** 
  23:Frame.h       **** class Cmd_CASET {
  24:Frame.h       ****     public :
  25:Frame.h       ****     friend class cRBG_Frame;
  26:Frame.h       ****     // --------------------------------------------------------------------------
  27:Frame.h       ****     // Constructeur
  28:Frame.h       ****     Cmd_CASET(){
  29:Frame.h       ****         m_Commande = TFT_CASET;
  30:Frame.h       ****     }
  31:Frame.h       **** 
  32:Frame.h       ****     // --------------------------------------------------------------------------
  33:Frame.h       ****     // Définition de l'abcisse de la fenetre
  34:Frame.h       ****     void setData(uint16_t x, uint16_t dx){
  35:Frame.h       ****         m_Data[0] = x >> 8;
  36:Frame.h       ****         m_Data[1] = x & 0xFF;
  37:Frame.h       ****         m_Data[2] = dx >> 8;
  38:Frame.h       ****         m_Data[3] = dx & 0xFF;
  39:Frame.h       ****     }
  40:Frame.h       ****     
  41:Frame.h       ****     // --------------------------------------------------------------------------
  42:Frame.h       ****     // Données de la classe
  43:Frame.h       ****     protected :
  44:Frame.h       ****     uint8_t m_Commande;
  45:Frame.h       ****     uint8_t m_Data[4];
  46:Frame.h       **** };
  47:Frame.h       **** 
  48:Frame.h       **** //***********************************************************************************
  49:Frame.h       **** // Cmd_RASET
  50:Frame.h       **** //   Commande SPI de selection des rangées  
ARM GAS  C:\Users\pbant\AppData\Local\Temp\ccAmOMRv.s 			page 12


  51:Frame.h       **** //*********************************************************************************** 
  52:Frame.h       **** class Cmd_RASET {
  53:Frame.h       ****     public :
  54:Frame.h       ****     friend class cRBG_Frame;
  55:Frame.h       **** 
  56:Frame.h       ****     // --------------------------------------------------------------------------
  57:Frame.h       ****     // Constructeur
  58:Frame.h       ****     Cmd_RASET(){
  59:Frame.h       ****         m_Commande = TFT_RASET;
  60:Frame.h       ****     }
  61:Frame.h       ****     
  62:Frame.h       ****     // --------------------------------------------------------------------------
  63:Frame.h       ****     // Définition de l'ordonnée de la fenètre
  64:Frame.h       ****     void setData(uint16_t y, uint16_t dy){
  65:Frame.h       ****         m_Data[0] = y >> 8;
  66:Frame.h       ****         m_Data[1] = y & 0xFF;
  67:Frame.h       ****         m_Data[2] = dy >> 8;
  68:Frame.h       ****         m_Data[3] = dy & 0xFF;
  69:Frame.h       ****     }
  70:Frame.h       **** 
  71:Frame.h       ****     // --------------------------------------------------------------------------
  72:Frame.h       ****     // Données de la classe
  73:Frame.h       ****     protected :
  74:Frame.h       ****     uint8_t m_Commande;
  75:Frame.h       ****     uint8_t m_Data[4];
  76:Frame.h       **** };
  77:Frame.h       **** 
  78:Frame.h       **** //***********************************************************************************
  79:Frame.h       **** // Cmd_RAMWR
  80:Frame.h       **** //   Commande SPI d'ecriture des pixels 
  81:Frame.h       **** //***********************************************************************************
  82:Frame.h       **** class cRBG_Frame;
  83:Frame.h       **** class Cmd_RAMWR {
  84:Frame.h       ****     public :
  85:Frame.h       ****     friend class cRBG_Frame;
  86:Frame.h       **** 
  87:Frame.h       ****     // --------------------------------------------------------------------------
  88:Frame.h       ****     // Constructeur
  89:Frame.h       ****     Cmd_RAMWR(){
  90:Frame.h       ****         m_Commande = TFT_RAMWR;
  91:Frame.h       ****     }
  92:Frame.h       **** 
  93:Frame.h       ****     // --------------------------------------------------------------------------
  94:Frame.h       ****     // Définition des pixels de la frame à transférer
  95:Frame.h       ****     void setData(uint16_t x, uint16_t y, uint16_t dx, uint16_t dy, cRBG_Frame *pFrame);
  96:Frame.h       **** 
  97:Frame.h       ****     // --------------------------------------------------------------------------
  98:Frame.h       ****     // Données de la classe
  99:Frame.h       ****     protected :
 100:Frame.h       ****     uint8_t m_Commande;
 101:Frame.h       ****     uint8_t m_Data[TAILLE_BLOC];
 102:Frame.h       **** };
 103:Frame.h       **** 
 104:Frame.h       **** //***********************************************************************************
 105:Frame.h       **** // cColor 
 106:Frame.h       **** //*********************************************************************************** 
 107:Frame.h       **** struct cColor { 
ARM GAS  C:\Users\pbant\AppData\Local\Temp\ccAmOMRv.s 			page 13


 108:Frame.h       ****     // Constructeur
 109:Frame.h       ****     cColor(uint8_t R, uint8_t G, uint8_t B, uint8_t Trans=255){
 110:Frame.h       ****         m_R = R;
 111:Frame.h       ****         m_G = G;
 177              		.loc 7 111 13 view .LVU32
 178 000a FF24     		movs	r4, #255
 179              	.LBE311:
 180              	.LBE310:
 181              	.LBE309:
 182              		.loc 6 30 9 view .LVU33
 183 000c FFF7FEFF 		bl	_ZN5daisy9DaisySeed4InitEb
 184              	.LVL5:
  31:TestTFT.cpp   **** 	hw.SetAudioBlockSize(4); // number of samples handled per callback
 185              		.loc 6 31 2 is_stmt 1 view .LVU34
 186              		.loc 6 31 22 is_stmt 0 view .LVU35
 187 0010 0421     		movs	r1, #4
 188 0012 6B48     		ldr	r0, .L26
 189              	.LBB318:
 190              	.LBB315:
 191              	.LBB312:
 110:Frame.h       ****         m_G = G;
 192              		.loc 7 110 13 view .LVU36
 193 0014 4FF0000A 		mov	r10, #0
 194              	.LBE312:
 195              	.LBE315:
 196              	.LBE318:
 197              		.loc 6 31 22 view .LVU37
 198 0018 FFF7FEFF 		bl	_ZN5daisy9DaisySeed17SetAudioBlockSizeEj
 199              	.LVL6:
  32:TestTFT.cpp   **** 	hw.SetAudioSampleRate(SaiHandle::Config::SampleRate::SAI_48KHZ);
 200              		.loc 6 32 2 is_stmt 1 view .LVU38
 201              		.loc 6 32 23 is_stmt 0 view .LVU39
 202 001c 0321     		movs	r1, #3
 203 001e 6848     		ldr	r0, .L26
 204              	.LBB319:
 205              	.LBB320:
 206              	.LBB321:
 110:Frame.h       ****         m_G = G;
 207              		.loc 7 110 13 view .LVU40
 208 0020 E826     		movs	r6, #232
 209              	.LBE321:
 210              	.LBE320:
 211              	.LBE319:
 212              		.loc 6 32 23 view .LVU41
 213 0022 FFF7FEFF 		bl	_ZN5daisy9DaisySeed18SetAudioSampleRateENS_9SaiHandle6Config10SampleRateE
 214              	.LVL7:
  33:TestTFT.cpp   **** 	hw.StartAudio(AudioCallback);
 215              		.loc 6 33 2 is_stmt 1 view .LVU42
 216              		.loc 6 33 15 is_stmt 0 view .LVU43
 217 0026 6749     		ldr	r1, .L26+4
 218 0028 6548     		ldr	r0, .L26
 219              	.LBB330:
 220              	.LBB331:
 221              	.LBB332:
 110:Frame.h       ****         m_G = G;
 222              		.loc 7 110 13 view .LVU44
 223 002a D925     		movs	r5, #217
ARM GAS  C:\Users\pbant\AppData\Local\Temp\ccAmOMRv.s 			page 14


 224              	.LBE332:
 225              	.LBE331:
 226              	.LBE330:
 227              		.loc 6 33 15 view .LVU45
 228 002c FFF7FEFF 		bl	_ZN5daisy9DaisySeed10StartAudioEPFvPKPKfPPfjE
 229              	.LVL8:
  34:TestTFT.cpp   **** 	hw.StartLog(false);
 230              		.loc 6 34 2 is_stmt 1 view .LVU46
 231              	.LBB341:
 232              	.LBI341:
  23:../../../../Desktop/DaisyExamples/libDaisy//src/daisy_seed.h **** 
  24:../../../../Desktop/DaisyExamples/libDaisy//src/daisy_seed.h ****     /** This function used to provide a pre-initialization configuraiton 
  25:../../../../Desktop/DaisyExamples/libDaisy//src/daisy_seed.h ****      *  it has since been deprecated, and does nothing.
  26:../../../../Desktop/DaisyExamples/libDaisy//src/daisy_seed.h ****      */
  27:../../../../Desktop/DaisyExamples/libDaisy//src/daisy_seed.h ****     void Configure();
  28:../../../../Desktop/DaisyExamples/libDaisy//src/daisy_seed.h **** 
  29:../../../../Desktop/DaisyExamples/libDaisy//src/daisy_seed.h ****     /** 
  30:../../../../Desktop/DaisyExamples/libDaisy//src/daisy_seed.h ****     Initializes the Daisy Seed and the following peripherals:
  31:../../../../Desktop/DaisyExamples/libDaisy//src/daisy_seed.h ****     SDRAM, QSPI, 24-bit 48kHz Audio via AK4556, Internal USB,
  32:../../../../Desktop/DaisyExamples/libDaisy//src/daisy_seed.h ****     as well as the built-in LED and Testpoint.
  33:../../../../Desktop/DaisyExamples/libDaisy//src/daisy_seed.h **** 
  34:../../../../Desktop/DaisyExamples/libDaisy//src/daisy_seed.h ****     ADCs, DACs, and other special peripherals (such as I2C, SPI, etc.)
  35:../../../../Desktop/DaisyExamples/libDaisy//src/daisy_seed.h ****     can be initialized using their specific initializers within libdaisy
  36:../../../../Desktop/DaisyExamples/libDaisy//src/daisy_seed.h ****     for a specific application.
  37:../../../../Desktop/DaisyExamples/libDaisy//src/daisy_seed.h ****     */
  38:../../../../Desktop/DaisyExamples/libDaisy//src/daisy_seed.h ****     void Init(bool boost = false);
  39:../../../../Desktop/DaisyExamples/libDaisy//src/daisy_seed.h **** 
  40:../../../../Desktop/DaisyExamples/libDaisy//src/daisy_seed.h ****     /** 
  41:../../../../Desktop/DaisyExamples/libDaisy//src/daisy_seed.h ****     Deinitializes all peripherals automatically handled by `Init`.
  42:../../../../Desktop/DaisyExamples/libDaisy//src/daisy_seed.h ****     */
  43:../../../../Desktop/DaisyExamples/libDaisy//src/daisy_seed.h ****     void DeInit();
  44:../../../../Desktop/DaisyExamples/libDaisy//src/daisy_seed.h **** 
  45:../../../../Desktop/DaisyExamples/libDaisy//src/daisy_seed.h ****     /** 
  46:../../../../Desktop/DaisyExamples/libDaisy//src/daisy_seed.h ****     Wait some ms before going on.
  47:../../../../Desktop/DaisyExamples/libDaisy//src/daisy_seed.h ****     \param del Delay time in ms.
  48:../../../../Desktop/DaisyExamples/libDaisy//src/daisy_seed.h ****     */
  49:../../../../Desktop/DaisyExamples/libDaisy//src/daisy_seed.h ****     void DelayMs(size_t del);
  50:../../../../Desktop/DaisyExamples/libDaisy//src/daisy_seed.h **** 
  51:../../../../Desktop/DaisyExamples/libDaisy//src/daisy_seed.h ****     /** 
  52:../../../../Desktop/DaisyExamples/libDaisy//src/daisy_seed.h ****     Returns the gpio_pin corresponding to the index 0-31.
  53:../../../../Desktop/DaisyExamples/libDaisy//src/daisy_seed.h ****     For the given GPIO on the Daisy Seed (labeled 1-32 in docs).
  54:../../../../Desktop/DaisyExamples/libDaisy//src/daisy_seed.h ****     */
  55:../../../../Desktop/DaisyExamples/libDaisy//src/daisy_seed.h ****     static dsy_gpio_pin GetPin(uint8_t pin_idx);
  56:../../../../Desktop/DaisyExamples/libDaisy//src/daisy_seed.h **** 
  57:../../../../Desktop/DaisyExamples/libDaisy//src/daisy_seed.h ****     /** Begins the audio for the seeds builtin audio.
  58:../../../../Desktop/DaisyExamples/libDaisy//src/daisy_seed.h ****     the specified callback will get called whenever
  59:../../../../Desktop/DaisyExamples/libDaisy//src/daisy_seed.h ****     new data is ready to be prepared.
  60:../../../../Desktop/DaisyExamples/libDaisy//src/daisy_seed.h ****     */
  61:../../../../Desktop/DaisyExamples/libDaisy//src/daisy_seed.h ****     void StartAudio(AudioHandle::InterleavingAudioCallback cb);
  62:../../../../Desktop/DaisyExamples/libDaisy//src/daisy_seed.h **** 
  63:../../../../Desktop/DaisyExamples/libDaisy//src/daisy_seed.h ****     /** Begins the audio for the seeds builtin audio.
  64:../../../../Desktop/DaisyExamples/libDaisy//src/daisy_seed.h ****     the specified callback will get called whenever
  65:../../../../Desktop/DaisyExamples/libDaisy//src/daisy_seed.h ****     new data is ready to be prepared.
  66:../../../../Desktop/DaisyExamples/libDaisy//src/daisy_seed.h ****     This will use the newer non-interleaved callback.
  67:../../../../Desktop/DaisyExamples/libDaisy//src/daisy_seed.h ****     */
  68:../../../../Desktop/DaisyExamples/libDaisy//src/daisy_seed.h ****     void StartAudio(AudioHandle::AudioCallback cb);
  69:../../../../Desktop/DaisyExamples/libDaisy//src/daisy_seed.h **** 
ARM GAS  C:\Users\pbant\AppData\Local\Temp\ccAmOMRv.s 			page 15


  70:../../../../Desktop/DaisyExamples/libDaisy//src/daisy_seed.h ****     /** Changes to a new interleaved callback
  71:../../../../Desktop/DaisyExamples/libDaisy//src/daisy_seed.h ****      */
  72:../../../../Desktop/DaisyExamples/libDaisy//src/daisy_seed.h ****     void ChangeAudioCallback(AudioHandle::InterleavingAudioCallback cb);
  73:../../../../Desktop/DaisyExamples/libDaisy//src/daisy_seed.h **** 
  74:../../../../Desktop/DaisyExamples/libDaisy//src/daisy_seed.h ****     /** Changes to a new multichannel callback
  75:../../../../Desktop/DaisyExamples/libDaisy//src/daisy_seed.h ****      */
  76:../../../../Desktop/DaisyExamples/libDaisy//src/daisy_seed.h ****     void ChangeAudioCallback(AudioHandle::AudioCallback cb);
  77:../../../../Desktop/DaisyExamples/libDaisy//src/daisy_seed.h **** 
  78:../../../../Desktop/DaisyExamples/libDaisy//src/daisy_seed.h ****     /** Stops the audio if it is running. */
  79:../../../../Desktop/DaisyExamples/libDaisy//src/daisy_seed.h ****     void StopAudio();
  80:../../../../Desktop/DaisyExamples/libDaisy//src/daisy_seed.h **** 
  81:../../../../Desktop/DaisyExamples/libDaisy//src/daisy_seed.h ****     /** Updates the Audio Sample Rate, and reinitializes.
  82:../../../../Desktop/DaisyExamples/libDaisy//src/daisy_seed.h ****      ** Audio must be stopped for this to work.
  83:../../../../Desktop/DaisyExamples/libDaisy//src/daisy_seed.h ****      */
  84:../../../../Desktop/DaisyExamples/libDaisy//src/daisy_seed.h ****     void SetAudioSampleRate(SaiHandle::Config::SampleRate samplerate);
  85:../../../../Desktop/DaisyExamples/libDaisy//src/daisy_seed.h **** 
  86:../../../../Desktop/DaisyExamples/libDaisy//src/daisy_seed.h ****     /** Returns the audio sample rate in Hz as a floating point number.
  87:../../../../Desktop/DaisyExamples/libDaisy//src/daisy_seed.h ****      */
  88:../../../../Desktop/DaisyExamples/libDaisy//src/daisy_seed.h ****     float AudioSampleRate();
  89:../../../../Desktop/DaisyExamples/libDaisy//src/daisy_seed.h **** 
  90:../../../../Desktop/DaisyExamples/libDaisy//src/daisy_seed.h ****     /** Sets the number of samples processed per channel by the audio callback.
  91:../../../../Desktop/DaisyExamples/libDaisy//src/daisy_seed.h ****      */
  92:../../../../Desktop/DaisyExamples/libDaisy//src/daisy_seed.h ****     void SetAudioBlockSize(size_t blocksize);
  93:../../../../Desktop/DaisyExamples/libDaisy//src/daisy_seed.h **** 
  94:../../../../Desktop/DaisyExamples/libDaisy//src/daisy_seed.h ****     /** Returns the number of samples per channel in a block of audio. */
  95:../../../../Desktop/DaisyExamples/libDaisy//src/daisy_seed.h ****     size_t AudioBlockSize();
  96:../../../../Desktop/DaisyExamples/libDaisy//src/daisy_seed.h **** 
  97:../../../../Desktop/DaisyExamples/libDaisy//src/daisy_seed.h ****     /** Returns the rate in Hz that the Audio callback is called */
  98:../../../../Desktop/DaisyExamples/libDaisy//src/daisy_seed.h ****     float AudioCallbackRate() const;
  99:../../../../Desktop/DaisyExamples/libDaisy//src/daisy_seed.h **** 
 100:../../../../Desktop/DaisyExamples/libDaisy//src/daisy_seed.h ****     /** Returns the SAI Handle for the Daisy Seed 
 101:../../../../Desktop/DaisyExamples/libDaisy//src/daisy_seed.h ****      *  This can be useful when adding a secondary codec,
 102:../../../../Desktop/DaisyExamples/libDaisy//src/daisy_seed.h ****      *  the result of this function can be passed to the audio reinit 
 103:../../../../Desktop/DaisyExamples/libDaisy//src/daisy_seed.h ****      *  with an SAI2 configuration
 104:../../../../Desktop/DaisyExamples/libDaisy//src/daisy_seed.h ****      */
 105:../../../../Desktop/DaisyExamples/libDaisy//src/daisy_seed.h ****     const SaiHandle& AudioSaiHandle() const;
 106:../../../../Desktop/DaisyExamples/libDaisy//src/daisy_seed.h **** 
 107:../../../../Desktop/DaisyExamples/libDaisy//src/daisy_seed.h ****     /** Sets the state of the built in LED
 108:../../../../Desktop/DaisyExamples/libDaisy//src/daisy_seed.h ****      */
 109:../../../../Desktop/DaisyExamples/libDaisy//src/daisy_seed.h ****     void SetLed(bool state);
 110:../../../../Desktop/DaisyExamples/libDaisy//src/daisy_seed.h **** 
 111:../../../../Desktop/DaisyExamples/libDaisy//src/daisy_seed.h ****     /** Sets the state of the test point near pin 10
 112:../../../../Desktop/DaisyExamples/libDaisy//src/daisy_seed.h ****      */
 113:../../../../Desktop/DaisyExamples/libDaisy//src/daisy_seed.h ****     void SetTestPoint(bool state);
 114:../../../../Desktop/DaisyExamples/libDaisy//src/daisy_seed.h **** 
 115:../../../../Desktop/DaisyExamples/libDaisy//src/daisy_seed.h ****     /** Print formatted debug log message
 116:../../../../Desktop/DaisyExamples/libDaisy//src/daisy_seed.h ****      */
 117:../../../../Desktop/DaisyExamples/libDaisy//src/daisy_seed.h ****     template <typename... VA>
 118:../../../../Desktop/DaisyExamples/libDaisy//src/daisy_seed.h ****     static void Print(const char* format, VA... va)
 119:../../../../Desktop/DaisyExamples/libDaisy//src/daisy_seed.h ****     {
 120:../../../../Desktop/DaisyExamples/libDaisy//src/daisy_seed.h ****         Log::Print(format, va...);
 121:../../../../Desktop/DaisyExamples/libDaisy//src/daisy_seed.h ****     }
 122:../../../../Desktop/DaisyExamples/libDaisy//src/daisy_seed.h **** 
 123:../../../../Desktop/DaisyExamples/libDaisy//src/daisy_seed.h ****     /** Print formatted debug log message with automatic line termination
 124:../../../../Desktop/DaisyExamples/libDaisy//src/daisy_seed.h ****     */
 125:../../../../Desktop/DaisyExamples/libDaisy//src/daisy_seed.h ****     template <typename... VA>
 126:../../../../Desktop/DaisyExamples/libDaisy//src/daisy_seed.h ****     static void PrintLine(const char* format, VA... va)
ARM GAS  C:\Users\pbant\AppData\Local\Temp\ccAmOMRv.s 			page 16


 127:../../../../Desktop/DaisyExamples/libDaisy//src/daisy_seed.h ****     {
 128:../../../../Desktop/DaisyExamples/libDaisy//src/daisy_seed.h ****         Log::PrintLine(format, va...);
 129:../../../../Desktop/DaisyExamples/libDaisy//src/daisy_seed.h ****     }
 130:../../../../Desktop/DaisyExamples/libDaisy//src/daisy_seed.h **** 
 131:../../../../Desktop/DaisyExamples/libDaisy//src/daisy_seed.h ****     /** Start the logging session. Optionally wait for terminal connection before proceeding.
 132:../../../../Desktop/DaisyExamples/libDaisy//src/daisy_seed.h ****     */
 133:../../../../Desktop/DaisyExamples/libDaisy//src/daisy_seed.h ****     static void StartLog(bool wait_for_pc = false)
 233              		.loc 1 133 17 view .LVU47
 234              	.LBB342:
 134:../../../../Desktop/DaisyExamples/libDaisy//src/daisy_seed.h ****     {
 135:../../../../Desktop/DaisyExamples/libDaisy//src/daisy_seed.h ****         Log::StartLog(wait_for_pc);
 235              		.loc 1 135 9 view .LVU48
 236              		.loc 1 135 22 is_stmt 0 view .LVU49
 237 0030 0020     		movs	r0, #0
 238 0032 FFF7FEFF 		bl	_ZN5daisy6LoggerILNS_17LoggerDestinationE1EE8StartLogEb
 239              	.LVL9:
 240              		.loc 1 135 22 view .LVU50
 241              	.LBE342:
 242              	.LBE341:
  35:TestTFT.cpp   **** 	D_PRINT("Debut ----------\r\n");
 243              		.loc 6 35 33 is_stmt 1 view .LVU51
  36:TestTFT.cpp   **** 	__Display.Init(__FrameBuff, &__Fifo, TFT_WIDTH, TFT_HEIGHT);
 244              		.loc 6 36 2 view .LVU52
 245              	.LBB343:
 246              	.LBI343:
 247              		.file 8 "GFX.h"
   1:GFX.h         **** //------------------------------------------------------------------------
   2:GFX.h         **** // Copyright(c) 2024 Dad Desing.
   3:GFX.h         **** //      Bibliothèque graphique
   4:GFX.h         **** //
   5:GFX.h         **** // Inspiré largement de :
   6:GFX.h         **** //    Adafruit-GFX-Library : https://github.com/adafruit/Adafruit-GFX-Library
   7:GFX.h         **** //    eSPI : https://github.com/Bodmer/TFT_eSPI
   8:GFX.h         **** //------------------------------------------------------------------------
   9:GFX.h         **** #pragma once
  10:GFX.h         **** #include "Frame.h"
  11:GFX.h         **** #define PROGMEM
  12:GFX.h         **** 
  13:GFX.h         **** //***********************************************************************************
  14:GFX.h         **** // CFont
  15:GFX.h         **** // Gestion des polices de caratères
  16:GFX.h         **** // Utilisation de la structuration des fonts de Adafruit-GFX-Library
  17:GFX.h         **** // Ce qui permet de profiter des outils de conversion (ex: https://rop.nl/truetype2gfx/)
  18:GFX.h         **** 
  19:GFX.h         **** // Table ds descripteurs de caratères
  20:GFX.h         **** typedef struct
  21:GFX.h         **** {
  22:GFX.h         ****     uint16_t bitmapOffset; ///< Pointer into GFXfont->bitmap
  23:GFX.h         ****     uint8_t width;         ///< Bitmap dimensions in pixels
  24:GFX.h         ****     uint8_t height;        ///< Bitmap dimensions in pixels
  25:GFX.h         ****     uint8_t xAdvance;      ///< Distance to advance cursor (x axis)
  26:GFX.h         ****     int8_t xOffset;        ///< X dist from cursor pos to UL corner
  27:GFX.h         ****     int8_t yOffset;         ///< Y dist from cursor pos to UL corner
  28:GFX.h         **** } GFXglyph;
  29:GFX.h         **** 
  30:GFX.h         **** // Descripteur de la Font
  31:GFX.h         **** typedef struct
ARM GAS  C:\Users\pbant\AppData\Local\Temp\ccAmOMRv.s 			page 17


  32:GFX.h         **** {
  33:GFX.h         ****     uint8_t *bitmap;  ///< Glyph bitmaps, concatenated
  34:GFX.h         ****     GFXglyph *glyph;  ///< Glyph array
  35:GFX.h         ****     uint16_t first;   ///< ASCII extents (first char)
  36:GFX.h         ****     uint16_t last;    ///< ASCII extents (last char)
  37:GFX.h         ****     uint8_t yAdvance; ///< Newline distance (y axis)
  38:GFX.h         **** } GFXfont;
  39:GFX.h         **** 
  40:GFX.h         **** // cFont
  41:GFX.h         **** class cFont
  42:GFX.h         **** {
  43:GFX.h         **** public:
  44:GFX.h         ****     // --------------------------------------------------------------------------
  45:GFX.h         ****     // Constructeur
  46:GFX.h         ****     cFont(const GFXfont *pFont);
  47:GFX.h         **** 
  48:GFX.h         ****     // --------------------------------------------------------------------------
  49:GFX.h         ****     // Lecture le la largueur du caratère c
  50:GFX.h         ****     uint8_t getCharWidth(char c)
  51:GFX.h         ****     {
  52:GFX.h         ****         return ((m_pFont->glyph) + (c - m_pFont->first))->xAdvance;
  53:GFX.h         ****     }
  54:GFX.h         **** 
  55:GFX.h         ****     // --------------------------------------------------------------------------
  56:GFX.h         ****     // Lecture le la largueur de la chaine de caratère.
  57:GFX.h         ****     uint16_t getTextWidth(const char *Text)
  58:GFX.h         ****     {
  59:GFX.h         ****         const char *pText = Text;
  60:GFX.h         ****         uint16_t result = 0;
  61:GFX.h         ****         while (*pText != '\0')
  62:GFX.h         ****         {
  63:GFX.h         ****             result += getCharWidth(*pText++);
  64:GFX.h         ****         }
  65:GFX.h         ****         return result;
  66:GFX.h         ****     }
  67:GFX.h         **** 
  68:GFX.h         ****     // --------------------------------------------------------------------------
  69:GFX.h         ****     // Lecture de la hauteur max de la font
  70:GFX.h         ****     inline uint8_t getHeight()
  71:GFX.h         ****     {
  72:GFX.h         ****         return m_NegHeight - m_PosHeight;
  73:GFX.h         ****     }
  74:GFX.h         **** 
  75:GFX.h         ****     // --------------------------------------------------------------------------
  76:GFX.h         ****     // Lecture de la hauteur max de la font au dessus la ligne du curseur
  77:GFX.h         ****     inline uint8_t getPosHeight()
  78:GFX.h         ****     {
  79:GFX.h         ****         return -m_PosHeight;
  80:GFX.h         ****     }
  81:GFX.h         **** 
  82:GFX.h         ****     // --------------------------------------------------------------------------
  83:GFX.h         ****     // Lecture de la hauteur max de la font sous la ligne du curseur
  84:GFX.h         ****     inline uint8_t getNegHeight()
  85:GFX.h         ****     {
  86:GFX.h         ****         return m_NegHeight;
  87:GFX.h         ****     }
  88:GFX.h         **** 
ARM GAS  C:\Users\pbant\AppData\Local\Temp\ccAmOMRv.s 			page 18


  89:GFX.h         ****     // --------------------------------------------------------------------------
  90:GFX.h         ****     // Lecture de l'adresse du descripteur de font
  91:GFX.h         ****     inline const GFXfont *getGFXfont() { return m_pFont; }
  92:GFX.h         **** 
  93:GFX.h         ****     // --------------------------------------------------------------------------
  94:GFX.h         ****     // Lecture de l'adresse de la table des decripteurs de caratères
  95:GFX.h         ****     inline const GFXglyph *getGFXglyph() { return m_pTable; }
  96:GFX.h         **** 
  97:GFX.h         ****     // --------------------------------------------------------------------------
  98:GFX.h         ****     // Lecture de l'adresse du descripteur du caratère c
  99:GFX.h         ****     inline const GFXglyph *getGFXglyph(char c)
 100:GFX.h         ****     {
 101:GFX.h         ****         return m_pTable + (c - m_pFont->first);
 102:GFX.h         ****     }
 103:GFX.h         **** 
 104:GFX.h         ****     // --------------------------------------------------------------------------
 105:GFX.h         ****     // Lecteur de l'adresse du bitmap représentant c
 106:GFX.h         ****     inline const uint8_t *getBitmap(char c)
 107:GFX.h         ****     {
 108:GFX.h         ****         return &m_pFont->bitmap[m_pTable[c - m_pFont->first].bitmapOffset];
 109:GFX.h         ****     }
 110:GFX.h         **** 
 111:GFX.h         ****     // --------------------------------------------------------------------------
 112:GFX.h         ****     // Données de la classe
 113:GFX.h         **** protected:
 114:GFX.h         ****     const GFXfont *m_pFont; // Descripteur de la font
 115:GFX.h         ****     GFXglyph *m_pTable;     // Table des descripteurs de caratères
 116:GFX.h         **** 
 117:GFX.h         ****     int8_t m_PosHeight; // Hauteur au dessus de la ligne du curseur
 118:GFX.h         ****     int8_t m_NegHeight; // Hauteur sous la ligne du curseur
 119:GFX.h         **** };
 120:GFX.h         **** 
 121:GFX.h         **** //***********************************************************************************
 122:GFX.h         **** // cGFX
 123:GFX.h         **** //   Bibliothèque Graphique
 124:GFX.h         **** class cGFX : protected cRBG_Frame
 125:GFX.h         **** {
 126:GFX.h         **** public:
 127:GFX.h         ****     // --------------------------------------------------------------------------
 128:GFX.h         ****     // Constructeur
 129:GFX.h         ****     cGFX() {}
 130:GFX.h         **** 
 131:GFX.h         ****     // --------------------------------------------------------------------------
 132:GFX.h         ****     // Initialisation de la classe
 133:GFX.h         ****     // Doit être appelée avant toute utilisation (aucune vérification réalisée) 
 134:GFX.h         ****     //   pFrameBuff pointe sur la mémoire de frame à instancier de préférence dans la SDRAM  
 135:GFX.h         ****     //   pFIFO_Data pointe sur la mémoire du FIFO DMA utilisé pour les transfers SPI 
 136:GFX.h         ****     //              doit etre obligatoirement instancié dans la SDRAM D1 (DMA_BUFFER_MEM_SECTION)
 137:GFX.h         ****     //   Width, Height taille de l'écran
 138:GFX.h         ****     //
 139:GFX.h         ****     void Init(RGB *pFrameBuff, FIFO_Data *pFIFO_Data, uint16_t Width, uint16_t Height)
 248              		.loc 8 139 10 view .LVU53
 249              	.LBB344:
 140:GFX.h         ****     {
 141:GFX.h         ****         setFrame(pFrameBuff, pFIFO_Data, Width, Height);
 250              		.loc 8 141 9 view .LVU54
 251              		.loc 8 141 17 is_stmt 0 view .LVU55
ARM GAS  C:\Users\pbant\AppData\Local\Temp\ccAmOMRv.s 			page 19


 252 0036 4FF4A070 		mov	r0, #320
 253 003a F023     		movs	r3, #240
 254 003c 624A     		ldr	r2, .L26+8
 255 003e 6349     		ldr	r1, .L26+12
 256              	.LBE344:
 257              	.LBE343:
  37:TestTFT.cpp   **** 	__Display.setRotation(Rotation::Degre_90);
  38:TestTFT.cpp   **** 
  39:TestTFT.cpp   **** 	uint8_t TabColorMax = 12;
  40:TestTFT.cpp   **** 	cColor TabColor[] = {
  41:TestTFT.cpp   **** 		cColor(255, 0, 0),
  42:TestTFT.cpp   **** 		cColor(0, 255, 0),
  43:TestTFT.cpp   **** 		cColor(0, 0, 255),
  44:TestTFT.cpp   **** 		cColor(52, 225, 235),
  45:TestTFT.cpp   **** 		cColor(52, 235, 171),
  46:TestTFT.cpp   **** 		cColor(95, 235, 52),
  47:TestTFT.cpp   **** 		cColor(232, 235, 52),
  48:TestTFT.cpp   **** 		cColor(235, 171, 52),
  49:TestTFT.cpp   **** 		cColor(235, 89, 52),
  50:TestTFT.cpp   **** 		cColor(235, 52, 95),
  51:TestTFT.cpp   **** 		cColor(217, 52, 235),
  52:TestTFT.cpp   **** 		cColor(52, 52, 235),
  53:TestTFT.cpp   **** 	};
  54:TestTFT.cpp   **** 
  55:TestTFT.cpp   **** 	uint16_t x = 110;
  56:TestTFT.cpp   **** 	uint16_t y = 140;
  57:TestTFT.cpp   **** 	__Display.drawR8G8B8Image(x, y, 100, 100, Pap_map);
 258              		.loc 6 57 27 view .LVU56
 259 0040 A046     		mov	r8, r4
 260              	.LBB347:
 261              	.LBB345:
 262              		.loc 8 141 17 view .LVU57
 263 0042 0090     		str	r0, [sp]
 264              	.LBE345:
 265              	.LBE347:
  58:TestTFT.cpp   **** 
  59:TestTFT.cpp   **** 	cColor Color(0,0,0);
  60:TestTFT.cpp   **** 	uint8_t CtColor = 0;
 266              		.loc 6 60 10 view .LVU58
 267 0044 5746     		mov	r7, r10
 268              	.LBB348:
 269              	.LBB346:
 270              		.loc 8 141 17 view .LVU59
 271 0046 6248     		ldr	r0, .L26+16
 272 0048 FFF7FEFF 		bl	_ZN10cRBG_Frame8setFrameEP3RGBP9FIFO_Datatt
 273              	.LVL10:
 274              		.loc 8 141 17 view .LVU60
 275              	.LBE346:
 276              	.LBE348:
  37:TestTFT.cpp   **** 	__Display.setRotation(Rotation::Degre_90);
 277              		.loc 6 37 2 is_stmt 1 view .LVU61
 278              	.LBB349:
 279              	.LBI349:
 142:GFX.h         ****     }
 143:GFX.h         ****     
 144:GFX.h         ****     // --------------------------------------------------------------------------
 145:GFX.h         ****     // Changer l'orientation de l'écran
ARM GAS  C:\Users\pbant\AppData\Local\Temp\ccAmOMRv.s 			page 20


 146:GFX.h         ****     void setRotation(Rotation r)
 280              		.loc 8 146 10 view .LVU62
 281              	.LBB350:
 147:GFX.h         ****     {
 148:GFX.h         ****         setFrameRotation(r);
 282              		.loc 8 148 9 view .LVU63
 283              		.loc 8 148 25 is_stmt 0 view .LVU64
 284 004c 0121     		movs	r1, #1
 285 004e 6048     		ldr	r0, .L26+16
 286 0050 FFF7FEFF 		bl	_ZN10cRBG_Frame16setFrameRotationE8Rotation
 287              	.LVL11:
 288              		.loc 8 148 25 view .LVU65
 289              	.LBE350:
 290              	.LBE349:
  39:TestTFT.cpp   **** 	cColor TabColor[] = {
 291              		.loc 6 39 2 is_stmt 1 view .LVU66
  40:TestTFT.cpp   **** 		cColor(255, 0, 0),
 292              		.loc 6 40 2 view .LVU67
 293              	.LBB351:
 294              	.LBI351:
 109:Frame.h       ****         m_R = R;
 295              		.loc 7 109 5 view .LVU68
 296              	.LBE351:
 110:Frame.h       ****         m_G = G;
 297              		.loc 7 110 9 view .LVU69
 298              		.loc 7 111 9 view .LVU70
 112:Frame.h       ****         m_B = B;
 299              		.loc 7 112 9 view .LVU71
 113:Frame.h       ****         m_Trans = Trans;
 300              		.loc 7 113 9 view .LVU72
 301              	.LBB352:
 302              	.LBI309:
 109:Frame.h       ****         m_R = R;
 303              		.loc 7 109 5 view .LVU73
 304              	.LBB316:
 305              	.LBB313:
 110:Frame.h       ****         m_G = G;
 306              		.loc 7 110 9 view .LVU74
 307              	.LBE313:
 308              	.LBE316:
 309              	.LBE352:
 310              	.LBB353:
 311              	.LBB354:
 312              	.LBB355:
 112:Frame.h       ****         m_Trans = Trans;
 313              		.loc 7 112 13 is_stmt 0 view .LVU75
 314 0054 AB23     		movs	r3, #171
 315              	.LBE355:
 316              	.LBE354:
 317              	.LBE353:
 318              	.LBB362:
 319              	.LBB363:
 320              	.LBB364:
 111:Frame.h       ****         m_B = B;
 321              		.loc 7 111 13 view .LVU76
 322 0056 E120     		movs	r0, #225
 110:Frame.h       ****         m_G = G;
ARM GAS  C:\Users\pbant\AppData\Local\Temp\ccAmOMRv.s 			page 21


 323              		.loc 7 110 13 view .LVU77
 324 0058 3422     		movs	r2, #52
 112:Frame.h       ****         m_Trans = Trans;
 325              		.loc 7 112 13 view .LVU78
 326 005a EB21     		movs	r1, #235
 327              	.LBE364:
 328              	.LBE363:
 329              	.LBE362:
 330              	.LBB371:
 331              	.LBB359:
 332              	.LBB356:
 333 005c 8DF83A30 		strb	r3, [sp, #58]
 334              	.LBE356:
 335              	.LBE359:
 336              	.LBE371:
 337              	.LBB372:
 338              	.LBB368:
 339              	.LBB365:
 111:Frame.h       ****         m_B = B;
 340              		.loc 7 111 13 view .LVU79
 341 0060 8DF83500 		strb	r0, [sp, #53]
 342              	.LBE365:
 343              	.LBE368:
 344              	.LBE372:
 345              	.LBB373:
 346              	.LBB374:
 347              	.LBB375:
 110:Frame.h       ****         m_G = G;
 348              		.loc 7 110 13 view .LVU80
 349 0064 5F20     		movs	r0, #95
 350              	.LBE375:
 351              	.LBE374:
 352              	.LBE373:
 353              	.LBB384:
 354              	.LBB385:
 355              	.LBB386:
 111:Frame.h       ****         m_B = B;
 356              		.loc 7 111 13 view .LVU81
 357 0066 8DF84530 		strb	r3, [sp, #69]
 358              	.LBE386:
 359              	.LBE385:
 360              	.LBE384:
 361              	.LBB393:
 362              	.LBB394:
 363              	.LBB395:
 364 006a 5923     		movs	r3, #89
 365              	.LBE395:
 366              	.LBE394:
 367              	.LBE393:
 368              	.LBB404:
 369              	.LBB369:
 370              	.LBB366:
 110:Frame.h       ****         m_G = G;
 371              		.loc 7 110 13 view .LVU82
 372 006c 8DF83420 		strb	r2, [sp, #52]
 112:Frame.h       ****         m_Trans = Trans;
 373              		.loc 7 112 13 view .LVU83
ARM GAS  C:\Users\pbant\AppData\Local\Temp\ccAmOMRv.s 			page 22


 374 0070 8DF83610 		strb	r1, [sp, #54]
 375              	.LBE366:
 376              	.LBE369:
 377              	.LBE404:
 378              	.LBB405:
 379              	.LBB360:
 380              	.LBB357:
 110:Frame.h       ****         m_G = G;
 381              		.loc 7 110 13 view .LVU84
 382 0074 8DF83820 		strb	r2, [sp, #56]
 111:Frame.h       ****         m_B = B;
 383              		.loc 7 111 13 view .LVU85
 384 0078 8DF83910 		strb	r1, [sp, #57]
 385              	.LBE357:
 386              	.LBE360:
 387              	.LBE405:
 388              	.LBB406:
 389              	.LBB380:
 390              	.LBB376:
 391 007c 8DF83D10 		strb	r1, [sp, #61]
 112:Frame.h       ****         m_Trans = Trans;
 392              		.loc 7 112 13 view .LVU86
 393 0080 8DF83E20 		strb	r2, [sp, #62]
 394              	.LBE376:
 395              	.LBE380:
 396              	.LBE406:
 397              	.LBB407:
 398              	.LBB326:
 399              	.LBB322:
 111:Frame.h       ****         m_B = B;
 400              		.loc 7 111 13 view .LVU87
 401 0084 8DF84110 		strb	r1, [sp, #65]
 112:Frame.h       ****         m_Trans = Trans;
 402              		.loc 7 112 13 view .LVU88
 403 0088 8DF84220 		strb	r2, [sp, #66]
 404              	.LBE322:
 405              	.LBE326:
 406              	.LBE407:
 407              	.LBB408:
 408              	.LBB390:
 409              	.LBB387:
 110:Frame.h       ****         m_G = G;
 410              		.loc 7 110 13 view .LVU89
 411 008c 8DF84410 		strb	r1, [sp, #68]
 112:Frame.h       ****         m_Trans = Trans;
 412              		.loc 7 112 13 view .LVU90
 413 0090 8DF84620 		strb	r2, [sp, #70]
 414              	.LBE387:
 415              	.LBE390:
 416              	.LBE408:
 417              	.LBB409:
 418              	.LBB400:
 419              	.LBB396:
 110:Frame.h       ****         m_G = G;
 420              		.loc 7 110 13 view .LVU91
 421 0094 8DF84810 		strb	r1, [sp, #72]
 111:Frame.h       ****         m_B = B;
ARM GAS  C:\Users\pbant\AppData\Local\Temp\ccAmOMRv.s 			page 23


 422              		.loc 7 111 13 view .LVU92
 423 0098 8DF84930 		strb	r3, [sp, #73]
 424              	.LBE396:
 425              	.LBE400:
 426              	.LBE409:
  57:TestTFT.cpp   **** 
 427              		.loc 6 57 27 view .LVU93
 428 009c 6423     		movs	r3, #100
 429              	.LBB410:
 430              	.LBB401:
 431              	.LBB397:
 112:Frame.h       ****         m_Trans = Trans;
 432              		.loc 7 112 13 view .LVU94
 433 009e 8DF84A20 		strb	r2, [sp, #74]
 434              	.LBE397:
 435              	.LBE401:
 436              	.LBE410:
 437              	.LBB411:
 438              	.LBB381:
 439              	.LBB377:
 110:Frame.h       ****         m_G = G;
 440              		.loc 7 110 13 view .LVU95
 441 00a2 8DF83C00 		strb	r0, [sp, #60]
 442 00a6 DFF82891 		ldr	r9, .L26+16
 443              	.LBE377:
 444              	.LBE381:
 445              	.LBE411:
 446              	.LBB412:
 447              	.LBB317:
 448              	.LBB314:
 449 00aa 8DF82CA0 		strb	r10, [sp, #44]
 111:Frame.h       ****         m_B = B;
 450              		.loc 7 111 9 is_stmt 1 view .LVU96
 111:Frame.h       ****         m_B = B;
 451              		.loc 7 111 13 is_stmt 0 view .LVU97
 452 00ae 8DF82D40 		strb	r4, [sp, #45]
 112:Frame.h       ****         m_Trans = Trans;
 453              		.loc 7 112 9 is_stmt 1 view .LVU98
 112:Frame.h       ****         m_Trans = Trans;
 454              		.loc 7 112 13 is_stmt 0 view .LVU99
 455 00b2 8DF82EA0 		strb	r10, [sp, #46]
 456              		.loc 7 113 9 is_stmt 1 view .LVU100
 457              		.loc 7 113 17 is_stmt 0 view .LVU101
 458 00b6 8DF82F40 		strb	r4, [sp, #47]
 459              	.LVL12:
 460              		.loc 7 113 17 view .LVU102
 461              	.LBE314:
 462              	.LBE317:
 463              	.LBE412:
 464              	.LBB413:
 465              	.LBI413:
 109:Frame.h       ****         m_R = R;
 466              		.loc 7 109 5 is_stmt 1 view .LVU103
 467              	.LBB414:
 468              	.LBB415:
 110:Frame.h       ****         m_G = G;
 469              		.loc 7 110 9 view .LVU104
ARM GAS  C:\Users\pbant\AppData\Local\Temp\ccAmOMRv.s 			page 24


 110:Frame.h       ****         m_G = G;
 470              		.loc 7 110 13 is_stmt 0 view .LVU105
 471 00ba 8DF830A0 		strb	r10, [sp, #48]
 111:Frame.h       ****         m_B = B;
 472              		.loc 7 111 9 is_stmt 1 view .LVU106
 111:Frame.h       ****         m_B = B;
 473              		.loc 7 111 13 is_stmt 0 view .LVU107
 474 00be 8DF831A0 		strb	r10, [sp, #49]
 112:Frame.h       ****         m_Trans = Trans;
 475              		.loc 7 112 9 is_stmt 1 view .LVU108
 112:Frame.h       ****         m_Trans = Trans;
 476              		.loc 7 112 13 is_stmt 0 view .LVU109
 477 00c2 8DF83240 		strb	r4, [sp, #50]
 478              		.loc 7 113 9 is_stmt 1 view .LVU110
 479              		.loc 7 113 17 is_stmt 0 view .LVU111
 480 00c6 8DF83340 		strb	r4, [sp, #51]
 481              	.LVL13:
 482              		.loc 7 113 17 view .LVU112
 483              	.LBE415:
 484              	.LBE414:
 485              	.LBE413:
 486              	.LBB416:
 487              	.LBI362:
 109:Frame.h       ****         m_R = R;
 488              		.loc 7 109 5 is_stmt 1 view .LVU113
 489              	.LBB370:
 490              	.LBB367:
 110:Frame.h       ****         m_G = G;
 491              		.loc 7 110 9 view .LVU114
 111:Frame.h       ****         m_B = B;
 492              		.loc 7 111 9 view .LVU115
 112:Frame.h       ****         m_Trans = Trans;
 493              		.loc 7 112 9 view .LVU116
 494              		.loc 7 113 9 view .LVU117
 495              		.loc 7 113 17 is_stmt 0 view .LVU118
 496 00ca 8DF83740 		strb	r4, [sp, #55]
 497              	.LVL14:
 498              		.loc 7 113 17 view .LVU119
 499              	.LBE367:
 500              	.LBE370:
 501              	.LBE416:
 502              	.LBB417:
 503              	.LBI353:
 109:Frame.h       ****         m_R = R;
 504              		.loc 7 109 5 is_stmt 1 view .LVU120
 505              	.LBB361:
 506              	.LBB358:
 110:Frame.h       ****         m_G = G;
 507              		.loc 7 110 9 view .LVU121
 111:Frame.h       ****         m_B = B;
 508              		.loc 7 111 9 view .LVU122
 112:Frame.h       ****         m_Trans = Trans;
 509              		.loc 7 112 9 view .LVU123
 510              		.loc 7 113 9 view .LVU124
 511              		.loc 7 113 17 is_stmt 0 view .LVU125
 512 00ce 8DF83B40 		strb	r4, [sp, #59]
 513              	.LVL15:
ARM GAS  C:\Users\pbant\AppData\Local\Temp\ccAmOMRv.s 			page 25


 514              		.loc 7 113 17 view .LVU126
 515              	.LBE358:
 516              	.LBE361:
 517              	.LBE417:
 518              	.LBB418:
 519              	.LBI373:
 109:Frame.h       ****         m_R = R;
 520              		.loc 7 109 5 is_stmt 1 view .LVU127
 521              	.LBB382:
 522              	.LBB378:
 110:Frame.h       ****         m_G = G;
 523              		.loc 7 110 9 view .LVU128
 111:Frame.h       ****         m_B = B;
 524              		.loc 7 111 9 view .LVU129
 112:Frame.h       ****         m_Trans = Trans;
 525              		.loc 7 112 9 view .LVU130
 526              		.loc 7 113 9 view .LVU131
 527              		.loc 7 113 9 is_stmt 0 view .LVU132
 528              	.LBE378:
 529              	.LBE382:
 530              	.LBE418:
 531              	.LBB419:
 532              	.LBI319:
 109:Frame.h       ****         m_R = R;
 533              		.loc 7 109 5 is_stmt 1 view .LVU133
 534              	.LBB327:
 535              	.LBB323:
 110:Frame.h       ****         m_G = G;
 536              		.loc 7 110 9 view .LVU134
 537              	.LBE323:
 538              	.LBE327:
 539              	.LBE419:
 540              	.LBB420:
 541              	.LBB383:
 542              	.LBB379:
 543              		.loc 7 113 17 is_stmt 0 view .LVU135
 544 00d2 8DF83F40 		strb	r4, [sp, #63]
 545              	.LBE379:
 546              	.LBE383:
 547              	.LBE420:
 548              	.LBB421:
 549              	.LBB328:
 550              	.LBB324:
 551 00d6 8DF84340 		strb	r4, [sp, #67]
 552              	.LBE324:
 553              	.LBE328:
 554              	.LBE421:
 555              	.LBB422:
 556              	.LBB391:
 557              	.LBB388:
 558 00da 8DF84740 		strb	r4, [sp, #71]
 559              	.LBE388:
 560              	.LBE391:
 561              	.LBE422:
 562              	.LBB423:
 563              	.LBB402:
 564              	.LBB398:
ARM GAS  C:\Users\pbant\AppData\Local\Temp\ccAmOMRv.s 			page 26


 565 00de 8DF84B40 		strb	r4, [sp, #75]
 566              	.LBE398:
 567              	.LBE402:
 568              	.LBE423:
 569              	.LBB424:
 570              	.LBB329:
 571              	.LBB325:
 110:Frame.h       ****         m_G = G;
 572              		.loc 7 110 13 view .LVU136
 573 00e2 8DF84060 		strb	r6, [sp, #64]
 111:Frame.h       ****         m_B = B;
 574              		.loc 7 111 9 is_stmt 1 view .LVU137
 112:Frame.h       ****         m_Trans = Trans;
 575              		.loc 7 112 9 view .LVU138
 576              		.loc 7 113 9 view .LVU139
 577              	.LVL16:
 578              		.loc 7 113 9 is_stmt 0 view .LVU140
 579              	.LBE325:
 580              	.LBE329:
 581              	.LBE424:
 582              	.LBB425:
 583              	.LBI384:
 109:Frame.h       ****         m_R = R;
 584              		.loc 7 109 5 is_stmt 1 view .LVU141
 585              	.LBB392:
 586              	.LBB389:
 110:Frame.h       ****         m_G = G;
 587              		.loc 7 110 9 view .LVU142
 111:Frame.h       ****         m_B = B;
 588              		.loc 7 111 9 view .LVU143
 112:Frame.h       ****         m_Trans = Trans;
 589              		.loc 7 112 9 view .LVU144
 590              		.loc 7 113 9 view .LVU145
 591              		.loc 7 113 9 is_stmt 0 view .LVU146
 592              	.LBE389:
 593              	.LBE392:
 594              	.LBE425:
 595              	.LBB426:
 596              	.LBI393:
 109:Frame.h       ****         m_R = R;
 597              		.loc 7 109 5 is_stmt 1 view .LVU147
 598              	.LBB403:
 599              	.LBB399:
 110:Frame.h       ****         m_G = G;
 600              		.loc 7 110 9 view .LVU148
 111:Frame.h       ****         m_B = B;
 601              		.loc 7 111 9 view .LVU149
 112:Frame.h       ****         m_Trans = Trans;
 602              		.loc 7 112 9 view .LVU150
 603              		.loc 7 113 9 view .LVU151
 604              		.loc 7 113 9 is_stmt 0 view .LVU152
 605              	.LBE399:
 606              	.LBE403:
 607              	.LBE426:
 608              	.LBB427:
 609              	.LBI427:
 109:Frame.h       ****         m_R = R;
ARM GAS  C:\Users\pbant\AppData\Local\Temp\ccAmOMRv.s 			page 27


 610              		.loc 7 109 5 is_stmt 1 view .LVU153
 611              	.LBB428:
 612              	.LBB429:
 110:Frame.h       ****         m_G = G;
 613              		.loc 7 110 9 view .LVU154
 110:Frame.h       ****         m_G = G;
 614              		.loc 7 110 13 is_stmt 0 view .LVU155
 615 00e6 8DF84C10 		strb	r1, [sp, #76]
 111:Frame.h       ****         m_B = B;
 616              		.loc 7 111 9 is_stmt 1 view .LVU156
 111:Frame.h       ****         m_B = B;
 617              		.loc 7 111 13 is_stmt 0 view .LVU157
 618 00ea 8DF84D20 		strb	r2, [sp, #77]
 112:Frame.h       ****         m_Trans = Trans;
 619              		.loc 7 112 9 is_stmt 1 view .LVU158
 620              		.loc 7 113 9 view .LVU159
 621              	.LBE429:
 622              	.LBE428:
 623              	.LBE427:
 624              	.LBB434:
 625              	.LBB337:
 626              	.LBB333:
 111:Frame.h       ****         m_B = B;
 627              		.loc 7 111 13 is_stmt 0 view .LVU160
 628 00ee 8DF85120 		strb	r2, [sp, #81]
 629              	.LBE333:
 630              	.LBE337:
 631              	.LBE434:
 632              	.LBB435:
 633              	.LBB436:
 634              	.LBB437:
 110:Frame.h       ****         m_G = G;
 635              		.loc 7 110 13 view .LVU161
 636 00f2 8DF85420 		strb	r2, [sp, #84]
 111:Frame.h       ****         m_B = B;
 637              		.loc 7 111 13 view .LVU162
 638 00f6 8DF85520 		strb	r2, [sp, #85]
 639              	.LBE437:
 640              	.LBE436:
 641              	.LBE435:
  57:TestTFT.cpp   **** 
 642              		.loc 6 57 27 view .LVU163
 643 00fa 364A     		ldr	r2, .L26+20
 644              	.LBB442:
 645              	.LBB432:
 646              	.LBB430:
 112:Frame.h       ****         m_Trans = Trans;
 647              		.loc 7 112 13 view .LVU164
 648 00fc 8DF84E00 		strb	r0, [sp, #78]
 649              	.LBE430:
 650              	.LBE432:
 651              	.LBE442:
  57:TestTFT.cpp   **** 
 652              		.loc 6 57 27 view .LVU165
 653 0100 4846     		mov	r0, r9
 654              	.LBB443:
 655              	.LBB338:
ARM GAS  C:\Users\pbant\AppData\Local\Temp\ccAmOMRv.s 			page 28


 656              	.LBB334:
 112:Frame.h       ****         m_Trans = Trans;
 657              		.loc 7 112 13 view .LVU166
 658 0102 8DF85210 		strb	r1, [sp, #82]
 659              	.LBE334:
 660              	.LBE338:
 661              	.LBE443:
 662              	.LBB444:
 663              	.LBB440:
 664              	.LBB438:
 665 0106 8DF85610 		strb	r1, [sp, #86]
 666              	.LBE438:
 667              	.LBE440:
 668              	.LBE444:
  57:TestTFT.cpp   **** 
 669              		.loc 6 57 27 view .LVU167
 670 010a 6E21     		movs	r1, #110
 671 010c 0192     		str	r2, [sp, #4]
 672 010e 8C22     		movs	r2, #140
 673 0110 0093     		str	r3, [sp]
 674 0112 DFF8CCB0 		ldr	fp, .L26+32
 675              	.LBB445:
 676              	.LBB339:
 677              	.LBB335:
 110:Frame.h       ****         m_G = G;
 678              		.loc 7 110 13 view .LVU168
 679 0116 8DF85050 		strb	r5, [sp, #80]
 680              	.LBE335:
 681              	.LBE339:
 682              	.LBE445:
 683              	.LBB446:
 684              	.LBB433:
 685              	.LBB431:
 686              		.loc 7 113 17 view .LVU169
 687 011a 8DF84F40 		strb	r4, [sp, #79]
 688              	.LVL17:
 689              		.loc 7 113 17 view .LVU170
 690              	.LBE431:
 691              	.LBE433:
 692              	.LBE446:
 693              	.LBB447:
 694              	.LBI330:
 109:Frame.h       ****         m_R = R;
 695              		.loc 7 109 5 is_stmt 1 view .LVU171
 696              	.LBB340:
 697              	.LBB336:
 110:Frame.h       ****         m_G = G;
 698              		.loc 7 110 9 view .LVU172
 111:Frame.h       ****         m_B = B;
 699              		.loc 7 111 9 view .LVU173
 112:Frame.h       ****         m_Trans = Trans;
 700              		.loc 7 112 9 view .LVU174
 701              		.loc 7 113 9 view .LVU175
 702              		.loc 7 113 17 is_stmt 0 view .LVU176
 703 011e 8DF85340 		strb	r4, [sp, #83]
 704              	.LVL18:
 705              		.loc 7 113 17 view .LVU177
ARM GAS  C:\Users\pbant\AppData\Local\Temp\ccAmOMRv.s 			page 29


 706              	.LBE336:
 707              	.LBE340:
 708              	.LBE447:
 709              	.LBB448:
 710              	.LBI435:
 109:Frame.h       ****         m_R = R;
 711              		.loc 7 109 5 is_stmt 1 view .LVU178
 712              	.LBB441:
 713              	.LBB439:
 110:Frame.h       ****         m_G = G;
 714              		.loc 7 110 9 view .LVU179
 111:Frame.h       ****         m_B = B;
 715              		.loc 7 111 9 view .LVU180
 112:Frame.h       ****         m_Trans = Trans;
 716              		.loc 7 112 9 view .LVU181
 717              		.loc 7 113 9 view .LVU182
 718              		.loc 7 113 17 is_stmt 0 view .LVU183
 719 0122 8DF85740 		strb	r4, [sp, #87]
 720              	.LVL19:
 721              		.loc 7 113 17 view .LVU184
 722              	.LBE439:
 723              	.LBE441:
 724              	.LBE448:
  55:TestTFT.cpp   **** 	uint16_t y = 140;
 725              		.loc 6 55 2 is_stmt 1 view .LVU185
  56:TestTFT.cpp   **** 	__Display.drawR8G8B8Image(x, y, 100, 100, Pap_map);
 726              		.loc 6 56 2 view .LVU186
  57:TestTFT.cpp   **** 
 727              		.loc 6 57 2 view .LVU187
  57:TestTFT.cpp   **** 
 728              		.loc 6 57 27 is_stmt 0 view .LVU188
 729 0126 CDE9024A 		strd	r4, r10, [sp, #8]
 730 012a FFF7FEFF 		bl	_ZN4cGFX15drawR8G8B8ImageEttttPKh
 731              	.LVL20:
  59:TestTFT.cpp   **** 	uint8_t CtColor = 0;
 732              		.loc 6 59 2 is_stmt 1 view .LVU189
 733              	.LBB449:
 734              	.LBI449:
 109:Frame.h       ****         m_R = R;
 735              		.loc 7 109 5 view .LVU190
 736              	.LBE449:
 110:Frame.h       ****         m_G = G;
 737              		.loc 7 110 9 view .LVU191
 111:Frame.h       ****         m_B = B;
 738              		.loc 7 111 9 view .LVU192
 112:Frame.h       ****         m_Trans = Trans;
 739              		.loc 7 112 9 view .LVU193
 740              		.loc 7 113 9 view .LVU194
 741              		.loc 6 60 2 view .LVU195
 742              	.L20:
  61:TestTFT.cpp   **** 	
  62:TestTFT.cpp   **** 	while(1) {
 743              		.loc 6 62 2 view .LVU196
 744              	.LBB450:
  63:TestTFT.cpp   **** 		x = 30;
 745              		.loc 6 63 3 view .LVU197
  64:TestTFT.cpp   **** 		y = 50;
ARM GAS  C:\Users\pbant\AppData\Local\Temp\ccAmOMRv.s 			page 30


 746              		.loc 6 64 3 view .LVU198
  65:TestTFT.cpp   **** 
  66:TestTFT.cpp   **** 		Color = TabColor[CtColor];
 747              		.loc 6 66 3 view .LVU199
  67:TestTFT.cpp   **** 		__Display.setCursor(x, y);
 748              		.loc 6 67 3 view .LVU200
 749              	.LBB451:
 750              	.LBI451:
 149:GFX.h         ****     }
 150:GFX.h         ****     
 151:GFX.h         ****     // --------------------------------------------------------------------------
 152:GFX.h         ****     // Transmette les modifications de la frame à l'écran
 153:GFX.h         ****     inline void FlushFrame() { cRBG_Frame::FlushFrame();}
 154:GFX.h         **** 
 155:GFX.h         ****     // ==========================================================================
 156:GFX.h         ****     // Dessiner des formes
 157:GFX.h         ****     // ==========================================================================
 158:GFX.h         ****     // Tracer un rectange vide 
 159:GFX.h         ****     void drawRect(uint16_t x, uint16_t y, int16_t dx, int16_t dy, cColor Color);
 160:GFX.h         ****     // Tracer un rectangle plein
 161:GFX.h         ****     void drawFillRect(uint16_t x, uint16_t y, int16_t dx, int16_t dy, cColor Color);
 162:GFX.h         ****     // Trace une ligne
 163:GFX.h         ****     void drawLine(uint16_t x, uint16_t y, uint16_t dx, uint16_t dy, cColor Color);
 164:GFX.h         ****     // Tracer un cercle vide
 165:GFX.h         ****     void drawCircle(uint16_t centerX, uint16_t centerY, uint16_t radius, cColor Color);
 166:GFX.h         ****     // Tracer un cercle plein
 167:GFX.h         ****     void drawFillCircle(uint16_t centerX, uint16_t centerY, uint16_t radius, cColor Color);
 168:GFX.h         ****     // Tracer une image 8bits par couleurs
 169:GFX.h         ****     void drawR8G8B8Image(uint16_t x, uint16_t y, uint16_t dx, uint16_t dy, const uint8_t *pImg);
 170:GFX.h         **** 
 171:GFX.h         ****     // ==========================================================================
 172:GFX.h         ****     // Dessiner du texte
 173:GFX.h         ****     // ==========================================================================
 174:GFX.h         ****     // Positionnement du cuseur
 175:GFX.h         ****     inline void setCursor(uint16_t x, uint16_t y){
 751              		.loc 8 175 17 view .LVU201
 752              	.LBB452:
 176:GFX.h         ****         m_xCursor = x;
 753              		.loc 8 176 9 view .LVU202
 177:GFX.h         ****         m_yCursor = y;
 754              		.loc 8 177 9 view .LVU203
 176:GFX.h         ****         m_xCursor = x;
 755              		.loc 8 176 19 is_stmt 0 view .LVU204
 756 012e 2A4C     		ldr	r4, .L26+24
 757              	.LBE452:
 758              	.LBE451:
 759              	.LBB453:
 760              	.LBB454:
 178:GFX.h         ****     };
 179:GFX.h         ****     
 180:GFX.h         ****     // Configuration de la fonte
 181:GFX.h         ****     inline void setFont(cFont *pFont){ m_pFont = pFont; };
 182:GFX.h         **** 
 183:GFX.h         ****     // Configuration de la couleur du texte
 184:GFX.h         ****     inline void setTextFrontColor(cColor Color) { m_TextFrontColor = Color;}
 185:GFX.h         ****     
 186:GFX.h         ****     // Configuration de la couleur de l'arrière plan du texte
ARM GAS  C:\Users\pbant\AppData\Local\Temp\ccAmOMRv.s 			page 31


 187:GFX.h         ****     inline void setTextBackColor(cColor Color) { m_TextBackColor = Color; }
 761              		.loc 8 187 66 view .LVU205
 762 0130 4FF07F43 		mov	r3, #-16777216
 763              	.LBE454:
 764              	.LBE453:
  68:TestTFT.cpp   **** 		__Display.setFont(&Vanilla20);
  69:TestTFT.cpp   **** 
  70:TestTFT.cpp   **** 		__Display.setTextFrontColor(Color);
  71:TestTFT.cpp   **** 		__Display.setTextBackColor(cColor(0,0,0));
  72:TestTFT.cpp   **** 		__Display.drawTransText("Bonjour !");
 765              		.loc 6 72 26 view .LVU206
 766 0134 2949     		ldr	r1, .L26+28
 767 0136 0022     		movs	r2, #0
 768 0138 2548     		ldr	r0, .L26+16
 769 013a 4E1C     		adds	r6, r1, #1
 770              	.LBB457:
 771              	.LBB455:
 772              		.loc 8 187 66 view .LVU207
 773 013c C9F8E430 		str	r3, [r9, #228]
 774              	.LBE455:
 775              	.LBE457:
 776              	.LBB458:
 777              	.LBB459:
 184:GFX.h         ****     
 778              		.loc 8 184 68 view .LVU208
 779 0140 89F8E2A0 		strb	r10, [r9, #226]
 780 0144 89F8E380 		strb	r8, [r9, #227]
 781              	.LBE459:
 782              	.LBE458:
 783              	.LBB462:
 784              	.LBB463:
 181:GFX.h         **** 
 785              		.loc 8 181 48 view .LVU209
 786 0148 C9E9364B 		strd	r4, fp, [r9, #216]
 787              	.LBE463:
 788              	.LBE462:
  70:TestTFT.cpp   **** 		__Display.setTextBackColor(cColor(0,0,0));
 789              		.loc 6 70 3 is_stmt 1 view .LVU210
 790              	.LVL21:
 791              	.LBB464:
 792              	.LBI458:
 184:GFX.h         ****     
 793              		.loc 8 184 17 view .LVU211
 794              	.LBB460:
 184:GFX.h         ****     
 795              		.loc 8 184 51 view .LVU212
 184:GFX.h         ****     
 796              		.loc 8 184 51 is_stmt 0 view .LVU213
 797              	.LBE460:
 798              	.LBE464:
  71:TestTFT.cpp   **** 		__Display.drawTransText("Bonjour !");
 799              		.loc 6 71 3 is_stmt 1 view .LVU214
 800              	.LBB465:
 801              	.LBI465:
 109:Frame.h       ****         m_R = R;
 802              		.loc 7 109 5 view .LVU215
 803              	.LBE465:
ARM GAS  C:\Users\pbant\AppData\Local\Temp\ccAmOMRv.s 			page 32


 804              	.LBE450:
 110:Frame.h       ****         m_G = G;
 805              		.loc 7 110 9 view .LVU216
 111:Frame.h       ****         m_B = B;
 806              		.loc 7 111 9 view .LVU217
 112:Frame.h       ****         m_Trans = Trans;
 807              		.loc 7 112 9 view .LVU218
 808              		.loc 7 113 9 view .LVU219
 809              	.LBB537:
 810              	.LBB466:
 811              	.LBI453:
 812              		.loc 8 187 17 view .LVU220
 813              	.LBB456:
 814              		.loc 8 187 50 view .LVU221
 815              		.loc 8 187 50 is_stmt 0 view .LVU222
 816              	.LBE456:
 817              	.LBE466:
 818              		.loc 6 72 3 is_stmt 1 view .LVU223
 819              	.LBB467:
 820              	.LBB461:
 184:GFX.h         ****     
 821              		.loc 8 184 68 is_stmt 0 view .LVU224
 822 014c 029C     		ldr	r4, [sp, #8]
 823 014e 89F8E040 		strb	r4, [r9, #224]
 824 0152 039C     		ldr	r4, [sp, #12]
 825 0154 89F8E140 		strb	r4, [r9, #225]
 826              	.LBE461:
 827              	.LBE467:
 828              		.loc 6 72 26 view .LVU225
 829 0158 FFF7FEFF 		bl	_ZN4cGFX13drawTransTextEPKcb
 830              	.LVL22:
  73:TestTFT.cpp   **** 		__Display.drawLine(x,y+1, x+Vanilla20.getTextWidth("Bonjour !"), y+1, Color);	
 831              		.loc 6 73 3 is_stmt 1 view .LVU226
 832              	.LBB468:
 833              	.LBI468:
  57:GFX.h         ****     {
 834              		.loc 8 57 14 view .LVU227
 835              	.LBB469:
  59:GFX.h         ****         uint16_t result = 0;
 836              		.loc 8 59 9 view .LVU228
  60:GFX.h         ****         while (*pText != '\0')
 837              		.loc 8 60 9 view .LVU229
  61:GFX.h         ****         {
 838              		.loc 8 61 9 view .LVU230
  61:GFX.h         ****         {
 839              		.loc 8 61 23 view .LVU231
 840              	.LBB470:
 841              	.LBB471:
  52:GFX.h         ****     }
 842              		.loc 8 52 18 is_stmt 0 view .LVU232
 843 015c DBF80030 		ldr	r3, [fp]
  52:GFX.h         ****     }
 844              		.loc 8 52 50 view .LVU233
 845 0160 3146     		mov	r1, r6
 846 0162 6F24     		movs	r4, #111
 847              	.LBE471:
 848              	.LBE470:
ARM GAS  C:\Users\pbant\AppData\Local\Temp\ccAmOMRv.s 			page 33


  61:GFX.h         ****         {
 849              		.loc 8 61 16 view .LVU234
 850 0164 4222     		movs	r2, #66
 851              	.LBB475:
 852              	.LBB472:
  52:GFX.h         ****     }
 853              		.loc 8 52 27 view .LVU235
 854 0166 5D68     		ldr	r5, [r3, #4]
  52:GFX.h         ****     }
 855              		.loc 8 52 50 view .LVU236
 856 0168 1889     		ldrh	r0, [r3, #8]
 857              	.LBE472:
 858              	.LBE475:
  60:GFX.h         ****         while (*pText != '\0')
 859              		.loc 8 60 18 view .LVU237
 860 016a 0023     		movs	r3, #0
 861 016c 01E0     		b	.L16
 862              	.LVL23:
 863              	.L23:
  61:GFX.h         ****         {
 864              		.loc 8 61 16 view .LVU238
 865 016e 11F8014F 		ldrb	r4, [r1, #1]!	@ zero_extendqisi2
 866              	.LVL24:
 867              	.L16:
  63:GFX.h         ****         }
 868              		.loc 8 63 13 is_stmt 1 view .LVU239
 869              	.LBB476:
 870              	.LBI470:
  50:GFX.h         ****     {
 871              		.loc 8 50 13 view .LVU240
 872              	.LBB473:
  52:GFX.h         ****     }
 873              		.loc 8 52 9 view .LVU241
  52:GFX.h         ****     }
 874              		.loc 8 52 39 is_stmt 0 view .LVU242
 875 0172 A2EB000C 		sub	ip, r2, r0
 876              	.LBE473:
 877              	.LBE476:
  61:GFX.h         ****         {
 878              		.loc 8 61 16 view .LVU243
 879 0176 2246     		mov	r2, r4
 880              	.LBB477:
 881              	.LBB474:
  52:GFX.h         ****     }
 882              		.loc 8 52 59 view .LVU244
 883 0178 05EBCC0C 		add	ip, r5, ip, lsl #3
 884              	.LBE474:
 885              	.LBE477:
  63:GFX.h         ****         }
 886              		.loc 8 63 20 view .LVU245
 887 017c 9CF804C0 		ldrb	ip, [ip, #4]	@ zero_extendqisi2
 888 0180 6344     		add	r3, r3, ip
 889              	.LVL25:
  63:GFX.h         ****         }
 890              		.loc 8 63 20 view .LVU246
 891 0182 9BB2     		uxth	r3, r3
 892              	.LVL26:
ARM GAS  C:\Users\pbant\AppData\Local\Temp\ccAmOMRv.s 			page 34


  61:GFX.h         ****         {
 893              		.loc 8 61 9 is_stmt 1 view .LVU247
  61:GFX.h         ****         {
 894              		.loc 8 61 23 view .LVU248
  61:GFX.h         ****         {
 895              		.loc 8 61 23 is_stmt 0 view .LVU249
 896 0184 002C     		cmp	r4, #0
 897 0186 F2D1     		bne	.L23
  65:GFX.h         ****     }
 898              		.loc 8 65 9 is_stmt 1 view .LVU250
 899              	.LVL27:
  65:GFX.h         ****     }
 900              		.loc 8 65 9 is_stmt 0 view .LVU251
 901              	.LBE469:
 902              	.LBE468:
 903              		.loc 6 73 21 view .LVU252
 904 0188 029A     		ldr	r2, [sp, #8]
 905 018a 1E33     		adds	r3, r3, #30
 906 018c 8DF812A0 		strb	r10, [sp, #18]
 907 0190 1E21     		movs	r1, #30
 908 0192 8DF81020 		strb	r2, [sp, #16]
 909 0196 9BB2     		uxth	r3, r3
 910 0198 039A     		ldr	r2, [sp, #12]
 911 019a 8DF81380 		strb	r8, [sp, #19]
 912 019e 8DF81120 		strb	r2, [sp, #17]
 913 01a2 3322     		movs	r2, #51
 914 01a4 049D     		ldr	r5, [sp, #16]
 915 01a6 0A48     		ldr	r0, .L26+16
 916 01a8 CDE90025 		strd	r2, r5, [sp]
 917              	.LVL28:
 918              		.loc 6 73 21 view .LVU253
 919 01ac FFF7FEFF 		bl	_ZN4cGFX8drawLineEtttt6cColor
 920              	.LVL29:
  74:TestTFT.cpp   **** 		__Display.drawLine(x,y+2, x+Vanilla20.getTextWidth("Bonjour !"), y+2, Color);	
 921              		.loc 6 74 3 is_stmt 1 view .LVU254
 922              	.LBB478:
 923              	.LBI478:
  57:GFX.h         ****     {
 924              		.loc 8 57 14 view .LVU255
 925              	.LBB479:
  61:GFX.h         ****         {
 926              		.loc 8 61 9 view .LVU256
  61:GFX.h         ****         {
 927              		.loc 8 61 23 view .LVU257
 928              	.LBB480:
 929              	.LBB481:
  52:GFX.h         ****     }
 930              		.loc 8 52 18 is_stmt 0 view .LVU258
 931 01b0 DBF80030 		ldr	r3, [fp]
  52:GFX.h         ****     }
 932              		.loc 8 52 50 view .LVU259
 933 01b4 6F25     		movs	r5, #111
 934              	.LBE481:
 935              	.LBE480:
  61:GFX.h         ****         {
 936              		.loc 8 61 16 view .LVU260
 937 01b6 4222     		movs	r2, #66
ARM GAS  C:\Users\pbant\AppData\Local\Temp\ccAmOMRv.s 			page 35


 938              	.LBB485:
 939              	.LBB482:
  52:GFX.h         ****     }
 940              		.loc 8 52 27 view .LVU261
 941 01b8 5868     		ldr	r0, [r3, #4]
  52:GFX.h         ****     }
 942              		.loc 8 52 50 view .LVU262
 943 01ba 1989     		ldrh	r1, [r3, #8]
 944 01bc 14E0     		b	.L18
 945              	.L27:
 946 01be 00BF     		.align	2
 947              	.L26:
 948 01c0 00000000 		.word	.LANCHOR0
 949 01c4 00000000 		.word	_Z13AudioCallbackPKPKfPPfj
 950 01c8 00000000 		.word	__Fifo
 951 01cc 00000000 		.word	__FrameBuff
 952 01d0 00000000 		.word	.LANCHOR1
 953 01d4 00000000 		.word	_ZL7Pap_map
 954 01d8 1E003200 		.word	3276830
 955 01dc 00000000 		.word	.LC0
 956 01e0 00000000 		.word	.LANCHOR2
 957              	.LVL30:
 958              	.L24:
  52:GFX.h         ****     }
 959              		.loc 8 52 50 view .LVU263
 960              	.LBE482:
 961              	.LBE485:
  61:GFX.h         ****         {
 962              		.loc 8 61 16 view .LVU264
 963 01e4 16F8015F 		ldrb	r5, [r6, #1]!	@ zero_extendqisi2
 964              	.LVL31:
 965              	.L18:
  63:GFX.h         ****         }
 966              		.loc 8 63 13 is_stmt 1 view .LVU265
 967              	.LBB486:
 968              	.LBI480:
  50:GFX.h         ****     {
 969              		.loc 8 50 13 view .LVU266
 970              	.LBB483:
  52:GFX.h         ****     }
 971              		.loc 8 52 9 view .LVU267
  52:GFX.h         ****     }
 972              		.loc 8 52 39 is_stmt 0 view .LVU268
 973 01e8 531A     		subs	r3, r2, r1
 974              	.LBE483:
 975              	.LBE486:
  61:GFX.h         ****         {
 976              		.loc 8 61 16 view .LVU269
 977 01ea 2A46     		mov	r2, r5
 978              	.LBB487:
 979              	.LBB484:
  52:GFX.h         ****     }
 980              		.loc 8 52 59 view .LVU270
 981 01ec 00EBC303 		add	r3, r0, r3, lsl #3
 982              	.LBE484:
 983              	.LBE487:
  63:GFX.h         ****         }
ARM GAS  C:\Users\pbant\AppData\Local\Temp\ccAmOMRv.s 			page 36


 984              		.loc 8 63 20 view .LVU271
 985 01f0 1B79     		ldrb	r3, [r3, #4]	@ zero_extendqisi2
 986 01f2 1C44     		add	r4, r4, r3
 987              	.LVL32:
  63:GFX.h         ****         }
 988              		.loc 8 63 20 view .LVU272
 989 01f4 A4B2     		uxth	r4, r4
 990              	.LVL33:
  61:GFX.h         ****         {
 991              		.loc 8 61 9 is_stmt 1 view .LVU273
  61:GFX.h         ****         {
 992              		.loc 8 61 23 view .LVU274
  61:GFX.h         ****         {
 993              		.loc 8 61 23 is_stmt 0 view .LVU275
 994 01f6 002D     		cmp	r5, #0
 995 01f8 F4D1     		bne	.L24
  65:GFX.h         ****     }
 996              		.loc 8 65 9 is_stmt 1 view .LVU276
 997              	.LVL34:
  65:GFX.h         ****     }
 998              		.loc 8 65 9 is_stmt 0 view .LVU277
 999              	.LBE479:
 1000              	.LBE478:
 1001              		.loc 6 74 21 view .LVU278
 1002 01fa 049E     		ldr	r6, [sp, #16]
 1003 01fc 3422     		movs	r2, #52
 1004 01fe 1E34     		adds	r4, r4, #30
 1005 0200 1E21     		movs	r1, #30
 1006 0202 6B48     		ldr	r0, .L28
  75:TestTFT.cpp   **** 		
  76:TestTFT.cpp   **** 		y = y + 20;
  77:TestTFT.cpp   **** 		uint16_t dx = 50;
  78:TestTFT.cpp   **** 		uint16_t dy = 60;
  79:TestTFT.cpp   **** 
  80:TestTFT.cpp   **** 		__Display.drawRect(x, y, dx, dy, Color);
 1007              		.loc 6 80 21 view .LVU279
 1008 0204 4FF03C0A 		mov	r10, #60
  74:TestTFT.cpp   **** 		
 1009              		.loc 6 74 21 view .LVU280
 1010 0208 A3B2     		uxth	r3, r4
 1011 020a CDE90026 		strd	r2, r6, [sp]
 1012 020e FFF7FEFF 		bl	_ZN4cGFX8drawLineEtttt6cColor
 1013              	.LVL35:
  76:TestTFT.cpp   **** 		uint16_t dx = 50;
 1014              		.loc 6 76 3 is_stmt 1 view .LVU281
  77:TestTFT.cpp   **** 		uint16_t dy = 60;
 1015              		.loc 6 77 3 view .LVU282
  78:TestTFT.cpp   **** 
 1016              		.loc 6 78 3 view .LVU283
 1017              		.loc 6 80 3 view .LVU284
 1018              		.loc 6 80 21 is_stmt 0 view .LVU285
 1019 0212 049C     		ldr	r4, [sp, #16]
 1020 0214 3223     		movs	r3, #50
 1021 0216 4622     		movs	r2, #70
 1022 0218 1E21     		movs	r1, #30
 1023 021a 6548     		ldr	r0, .L28
 1024 021c CDE900A4 		strd	r10, r4, [sp]
ARM GAS  C:\Users\pbant\AppData\Local\Temp\ccAmOMRv.s 			page 37


 1025 0220 FFF7FEFF 		bl	_ZN4cGFX8drawRectEttss6cColor
 1026              	.LVL36:
  81:TestTFT.cpp   **** 		__Display.drawLine(x, y, x+dx, y+dy, Color);
 1027              		.loc 6 81 3 is_stmt 1 view .LVU286
 1028              		.loc 6 81 21 is_stmt 0 view .LVU287
 1029 0224 8224     		movs	r4, #130
 1030 0226 049E     		ldr	r6, [sp, #16]
 1031 0228 4622     		movs	r2, #70
 1032 022a 5023     		movs	r3, #80
 1033 022c 1E21     		movs	r1, #30
 1034 022e 6048     		ldr	r0, .L28
  82:TestTFT.cpp   **** 		__Display.drawLine(x, y+dy, x+dx, y, Color);
 1035              		.loc 6 82 21 view .LVU288
 1036 0230 9046     		mov	r8, r2
  81:TestTFT.cpp   **** 		__Display.drawLine(x, y, x+dx, y+dy, Color);
 1037              		.loc 6 81 21 view .LVU289
 1038 0232 CDE90046 		strd	r4, r6, [sp]
 1039 0236 FFF7FEFF 		bl	_ZN4cGFX8drawLineEtttt6cColor
 1040              	.LVL37:
 1041              		.loc 6 82 3 is_stmt 1 view .LVU290
 1042              		.loc 6 82 21 is_stmt 0 view .LVU291
 1043 023a 049E     		ldr	r6, [sp, #16]
 1044 023c 2246     		mov	r2, r4
 1045 023e 5023     		movs	r3, #80
 1046 0240 1E21     		movs	r1, #30
 1047 0242 5B48     		ldr	r0, .L28
 1048 0244 CDE90086 		strd	r8, r6, [sp]
 1049 0248 FFF7FEFF 		bl	_ZN4cGFX8drawLineEtttt6cColor
 1050              	.LVL38:
  83:TestTFT.cpp   **** 
  84:TestTFT.cpp   **** 		x = x + 50 + 20;
 1051              		.loc 6 84 3 is_stmt 1 view .LVU292
  85:TestTFT.cpp   **** 
  86:TestTFT.cpp   **** 		__Display.drawFillRect(x, y, dx, dy, Color);
 1052              		.loc 6 86 3 view .LVU293
 1053              		.loc 6 86 25 is_stmt 0 view .LVU294
 1054 024c 0498     		ldr	r0, [sp, #16]
 1055              	.LBB488:
 1056              	.LBB489:
 1057              	.LBB490:
 1058              		.loc 7 113 17 view .LVU295
 1059 024e FF26     		movs	r6, #255
 1060              	.LBE490:
 1061              	.LBE489:
 1062              	.LBE488:
 1063              		.loc 6 86 25 view .LVU296
 1064 0250 3223     		movs	r3, #50
 1065 0252 4246     		mov	r2, r8
 1066 0254 6421     		movs	r1, #100
 1067 0256 CDE900A0 		strd	r10, r0, [sp]
 1068 025a 5548     		ldr	r0, .L28
  87:TestTFT.cpp   **** 		__Display.drawLine(x, y, x+dx, y+dy, cColor(0,0,0));
  88:TestTFT.cpp   **** 		__Display.drawLine(x, y+dy, x+dx, y, cColor(0,0,0));
  89:TestTFT.cpp   **** 
  90:TestTFT.cpp   **** 		x = x + 50 + 45;
  91:TestTFT.cpp   **** 		y = y + 25;
  92:TestTFT.cpp   **** 		dx = 25;
ARM GAS  C:\Users\pbant\AppData\Local\Temp\ccAmOMRv.s 			page 38


  93:TestTFT.cpp   **** 
  94:TestTFT.cpp   **** 		__Display.drawCircle(x, y, dx, Color);
  95:TestTFT.cpp   **** 		__Display.drawLine(x-dx, y, x+dx, y, Color);
 1069              		.loc 6 95 21 view .LVU297
 1070 025c 4FF05F0A 		mov	r10, #95
  86:TestTFT.cpp   **** 		__Display.drawLine(x, y, x+dx, y+dy, cColor(0,0,0));
 1071              		.loc 6 86 25 view .LVU298
 1072 0260 FFF7FEFF 		bl	_ZN4cGFX12drawFillRectEttss6cColor
 1073              	.LVL39:
  87:TestTFT.cpp   **** 		__Display.drawLine(x, y, x+dx, y+dy, cColor(0,0,0));
 1074              		.loc 6 87 3 is_stmt 1 view .LVU299
 1075              	.LBB497:
 1076              	.LBI488:
 109:Frame.h       ****         m_R = R;
 1077              		.loc 7 109 5 view .LVU300
 1078              	.LBB494:
 1079              	.LBB491:
 110:Frame.h       ****         m_G = G;
 1080              		.loc 7 110 9 view .LVU301
 110:Frame.h       ****         m_G = G;
 1081              		.loc 7 110 13 is_stmt 0 view .LVU302
 1082 0264 8DF81450 		strb	r5, [sp, #20]
 111:Frame.h       ****         m_B = B;
 1083              		.loc 7 111 9 is_stmt 1 view .LVU303
 111:Frame.h       ****         m_B = B;
 1084              		.loc 7 111 13 is_stmt 0 view .LVU304
 1085 0268 8DF81550 		strb	r5, [sp, #21]
 112:Frame.h       ****         m_Trans = Trans;
 1086              		.loc 7 112 9 is_stmt 1 view .LVU305
 1087              	.LBE491:
 1088              	.LBE494:
 1089              	.LBE497:
  87:TestTFT.cpp   **** 		__Display.drawLine(x, y+dy, x+dx, y, cColor(0,0,0));
 1090              		.loc 6 87 21 is_stmt 0 view .LVU306
 1091 026c 9623     		movs	r3, #150
 1092              	.LBB498:
 1093              	.LBB495:
 1094              	.LBB492:
 112:Frame.h       ****         m_Trans = Trans;
 1095              		.loc 7 112 13 view .LVU307
 1096 026e 8DF81650 		strb	r5, [sp, #22]
 1097              		.loc 7 113 9 is_stmt 1 view .LVU308
 1098              	.LBE492:
 1099              	.LBE495:
 1100              	.LBE498:
  87:TestTFT.cpp   **** 		__Display.drawLine(x, y+dy, x+dx, y, cColor(0,0,0));
 1101              		.loc 6 87 21 is_stmt 0 view .LVU309
 1102 0272 4246     		mov	r2, r8
 1103              	.LBB499:
 1104              	.LBB496:
 1105              	.LBB493:
 1106              		.loc 7 113 17 view .LVU310
 1107 0274 8DF81760 		strb	r6, [sp, #23]
 1108              	.LVL40:
 1109              		.loc 7 113 17 view .LVU311
 1110              	.LBE493:
 1111              	.LBE496:
ARM GAS  C:\Users\pbant\AppData\Local\Temp\ccAmOMRv.s 			page 39


 1112              	.LBE499:
  87:TestTFT.cpp   **** 		__Display.drawLine(x, y+dy, x+dx, y, cColor(0,0,0));
 1113              		.loc 6 87 21 view .LVU312
 1114 0278 6421     		movs	r1, #100
 1115 027a 0598     		ldr	r0, [sp, #20]
 1116 027c CDE90040 		strd	r4, r0, [sp]
 1117 0280 4B48     		ldr	r0, .L28
 1118 0282 FFF7FEFF 		bl	_ZN4cGFX8drawLineEtttt6cColor
 1119              	.LVL41:
  88:TestTFT.cpp   **** 
 1120              		.loc 6 88 3 is_stmt 1 view .LVU313
 1121              	.LBB500:
 1122              	.LBI500:
 109:Frame.h       ****         m_R = R;
 1123              		.loc 7 109 5 view .LVU314
 1124              	.LBB501:
 1125              	.LBB502:
 110:Frame.h       ****         m_G = G;
 1126              		.loc 7 110 9 view .LVU315
 110:Frame.h       ****         m_G = G;
 1127              		.loc 7 110 13 is_stmt 0 view .LVU316
 1128 0286 8DF81450 		strb	r5, [sp, #20]
 111:Frame.h       ****         m_B = B;
 1129              		.loc 7 111 9 is_stmt 1 view .LVU317
 111:Frame.h       ****         m_B = B;
 1130              		.loc 7 111 13 is_stmt 0 view .LVU318
 1131 028a 8DF81550 		strb	r5, [sp, #21]
 112:Frame.h       ****         m_Trans = Trans;
 1132              		.loc 7 112 9 is_stmt 1 view .LVU319
 1133              	.LBE502:
 1134              	.LBE501:
 1135              	.LBE500:
  88:TestTFT.cpp   **** 
 1136              		.loc 6 88 21 is_stmt 0 view .LVU320
 1137 028e 2246     		mov	r2, r4
 1138              	.LBB507:
 1139              	.LBB505:
 1140              	.LBB503:
 112:Frame.h       ****         m_Trans = Trans;
 1141              		.loc 7 112 13 view .LVU321
 1142 0290 8DF81650 		strb	r5, [sp, #22]
 1143              		.loc 7 113 9 is_stmt 1 view .LVU322
 1144              	.LBE503:
 1145              	.LBE505:
 1146              	.LBE507:
  88:TestTFT.cpp   **** 
 1147              		.loc 6 88 21 is_stmt 0 view .LVU323
 1148 0294 9623     		movs	r3, #150
 1149              	.LBB508:
 1150              	.LBB506:
 1151              	.LBB504:
 1152              		.loc 7 113 17 view .LVU324
 1153 0296 8DF81760 		strb	r6, [sp, #23]
 1154              	.LVL42:
 1155              		.loc 7 113 17 view .LVU325
 1156              	.LBE504:
 1157              	.LBE506:
ARM GAS  C:\Users\pbant\AppData\Local\Temp\ccAmOMRv.s 			page 40


 1158              	.LBE508:
  88:TestTFT.cpp   **** 
 1159              		.loc 6 88 21 view .LVU326
 1160 029a 6421     		movs	r1, #100
 1161 029c 059C     		ldr	r4, [sp, #20]
 1162 029e 4448     		ldr	r0, .L28
 1163 02a0 CDE90084 		strd	r8, r4, [sp]
 1164 02a4 FFF7FEFF 		bl	_ZN4cGFX8drawLineEtttt6cColor
 1165              	.LVL43:
  90:TestTFT.cpp   **** 		y = y + 25;
 1166              		.loc 6 90 3 is_stmt 1 view .LVU327
  91:TestTFT.cpp   **** 		dx = 25;
 1167              		.loc 6 91 3 view .LVU328
  92:TestTFT.cpp   **** 
 1168              		.loc 6 92 3 view .LVU329
  94:TestTFT.cpp   **** 		__Display.drawLine(x-dx, y, x+dx, y, Color);
 1169              		.loc 6 94 3 view .LVU330
  94:TestTFT.cpp   **** 		__Display.drawLine(x-dx, y, x+dx, y, Color);
 1170              		.loc 6 94 23 is_stmt 0 view .LVU331
 1171 02a8 049C     		ldr	r4, [sp, #16]
 1172 02aa 1923     		movs	r3, #25
 1173 02ac 5246     		mov	r2, r10
 1174 02ae C321     		movs	r1, #195
 1175 02b0 3F48     		ldr	r0, .L28
 1176 02b2 0094     		str	r4, [sp]
 1177 02b4 FFF7FEFF 		bl	_ZN4cGFX10drawCircleEttt6cColor
 1178              	.LVL44:
 1179              		.loc 6 95 3 is_stmt 1 view .LVU332
 1180              		.loc 6 95 21 is_stmt 0 view .LVU333
 1181 02b8 049C     		ldr	r4, [sp, #16]
 1182 02ba DC23     		movs	r3, #220
 1183 02bc 5246     		mov	r2, r10
 1184 02be AA21     		movs	r1, #170
 1185 02c0 3B48     		ldr	r0, .L28
 1186 02c2 CDE900A4 		strd	r10, r4, [sp]
 1187 02c6 FFF7FEFF 		bl	_ZN4cGFX8drawLineEtttt6cColor
 1188              	.LVL45:
  96:TestTFT.cpp   **** 		__Display.drawLine(x, y-dx, x, y+dx, Color);
 1189              		.loc 6 96 3 is_stmt 1 view .LVU334
 1190              		.loc 6 96 21 is_stmt 0 view .LVU335
 1191 02ca C323     		movs	r3, #195
 1192 02cc 0498     		ldr	r0, [sp, #16]
 1193 02ce 7821     		movs	r1, #120
 1194 02d0 4246     		mov	r2, r8
 1195 02d2 0091     		str	r1, [sp]
 1196 02d4 1946     		mov	r1, r3
 1197 02d6 0190     		str	r0, [sp, #4]
 1198 02d8 3548     		ldr	r0, .L28
 1199 02da FFF7FEFF 		bl	_ZN4cGFX8drawLineEtttt6cColor
 1200              	.LVL46:
  97:TestTFT.cpp   **** 
  98:TestTFT.cpp   **** 		x = x + 20 + 50;
 1201              		.loc 6 98 3 is_stmt 1 view .LVU336
  99:TestTFT.cpp   **** 
 100:TestTFT.cpp   **** 		__Display.drawFillCircle(x, y, dx, Color);
 1202              		.loc 6 100 3 view .LVU337
 1203              		.loc 6 100 27 is_stmt 0 view .LVU338
ARM GAS  C:\Users\pbant\AppData\Local\Temp\ccAmOMRv.s 			page 41


 1204 02de 0498     		ldr	r0, [sp, #16]
 1205 02e0 1923     		movs	r3, #25
 1206 02e2 5246     		mov	r2, r10
 1207 02e4 40F20911 		movw	r1, #265
 1208 02e8 0090     		str	r0, [sp]
 1209 02ea 3148     		ldr	r0, .L28
 1210 02ec FFF7FEFF 		bl	_ZN4cGFX14drawFillCircleEttt6cColor
 1211              	.LVL47:
 101:TestTFT.cpp   **** 		__Display.drawLine(x-dx, y, x+dx, y, cColor(0,0,0));
 1212              		.loc 6 101 3 is_stmt 1 view .LVU339
 1213              	.LBB509:
 1214              	.LBI509:
 109:Frame.h       ****         m_R = R;
 1215              		.loc 7 109 5 view .LVU340
 1216              	.LBB510:
 1217              	.LBB511:
 110:Frame.h       ****         m_G = G;
 1218              		.loc 7 110 9 view .LVU341
 110:Frame.h       ****         m_G = G;
 1219              		.loc 7 110 13 is_stmt 0 view .LVU342
 1220 02f0 8DF81450 		strb	r5, [sp, #20]
 111:Frame.h       ****         m_B = B;
 1221              		.loc 7 111 9 is_stmt 1 view .LVU343
 111:Frame.h       ****         m_B = B;
 1222              		.loc 7 111 13 is_stmt 0 view .LVU344
 1223 02f4 8DF81550 		strb	r5, [sp, #21]
 112:Frame.h       ****         m_Trans = Trans;
 1224              		.loc 7 112 9 is_stmt 1 view .LVU345
 1225              	.LBE511:
 1226              	.LBE510:
 1227              	.LBE509:
 1228              		.loc 6 101 21 is_stmt 0 view .LVU346
 1229 02f8 4FF49173 		mov	r3, #290
 1230              	.LBB516:
 1231              	.LBB514:
 1232              	.LBB512:
 112:Frame.h       ****         m_Trans = Trans;
 1233              		.loc 7 112 13 view .LVU347
 1234 02fc 8DF81650 		strb	r5, [sp, #22]
 1235              		.loc 7 113 9 is_stmt 1 view .LVU348
 1236              	.LBE512:
 1237              	.LBE514:
 1238              	.LBE516:
 1239              		.loc 6 101 21 is_stmt 0 view .LVU349
 1240 0300 5246     		mov	r2, r10
 1241              	.LBB517:
 1242              	.LBB515:
 1243              	.LBB513:
 1244              		.loc 7 113 17 view .LVU350
 1245 0302 8DF81760 		strb	r6, [sp, #23]
 1246              	.LVL48:
 1247              		.loc 7 113 17 view .LVU351
 1248              	.LBE513:
 1249              	.LBE515:
 1250              	.LBE517:
 1251              		.loc 6 101 21 view .LVU352
 1252 0306 F021     		movs	r1, #240
ARM GAS  C:\Users\pbant\AppData\Local\Temp\ccAmOMRv.s 			page 42


 1253 0308 0598     		ldr	r0, [sp, #20]
 1254 030a CDE900A0 		strd	r10, r0, [sp]
 1255 030e 2848     		ldr	r0, .L28
 1256 0310 FFF7FEFF 		bl	_ZN4cGFX8drawLineEtttt6cColor
 1257              	.LVL49:
 102:TestTFT.cpp   **** 		__Display.drawLine(x, y-dx, x, y+dx, cColor(0,0,0));
 1258              		.loc 6 102 3 is_stmt 1 view .LVU353
 1259              	.LBB518:
 1260              	.LBI518:
 109:Frame.h       ****         m_R = R;
 1261              		.loc 7 109 5 view .LVU354
 1262              	.LBB519:
 1263              	.LBB520:
 110:Frame.h       ****         m_G = G;
 1264              		.loc 7 110 9 view .LVU355
 110:Frame.h       ****         m_G = G;
 1265              		.loc 7 110 13 is_stmt 0 view .LVU356
 1266 0314 8DF81450 		strb	r5, [sp, #20]
 111:Frame.h       ****         m_B = B;
 1267              		.loc 7 111 9 is_stmt 1 view .LVU357
 111:Frame.h       ****         m_B = B;
 1268              		.loc 7 111 13 is_stmt 0 view .LVU358
 1269 0318 8DF81550 		strb	r5, [sp, #21]
 112:Frame.h       ****         m_Trans = Trans;
 1270              		.loc 7 112 9 is_stmt 1 view .LVU359
 1271              	.LBE520:
 1272              	.LBE519:
 1273              	.LBE518:
 1274              		.loc 6 102 21 is_stmt 0 view .LVU360
 1275 031c 40F20913 		movw	r3, #265
 1276              	.LBB525:
 1277              	.LBB523:
 1278              	.LBB521:
 112:Frame.h       ****         m_Trans = Trans;
 1279              		.loc 7 112 13 view .LVU361
 1280 0320 8DF81650 		strb	r5, [sp, #22]
 1281              		.loc 7 113 9 is_stmt 1 view .LVU362
 1282              	.LBE521:
 1283              	.LBE523:
 1284              	.LBE525:
 1285              		.loc 6 102 21 is_stmt 0 view .LVU363
 1286 0324 4246     		mov	r2, r8
 1287              	.LBB526:
 1288              	.LBB524:
 1289              	.LBB522:
 1290              		.loc 7 113 17 view .LVU364
 1291 0326 8DF81760 		strb	r6, [sp, #23]
 1292              	.LVL50:
 1293              		.loc 7 113 17 view .LVU365
 1294              	.LBE522:
 1295              	.LBE524:
 1296              	.LBE526:
 1297              		.loc 6 102 21 view .LVU366
 1298 032a 1946     		mov	r1, r3
 1299 032c 059C     		ldr	r4, [sp, #20]
 1300 032e 2048     		ldr	r0, .L28
 1301 0330 0194     		str	r4, [sp, #4]
ARM GAS  C:\Users\pbant\AppData\Local\Temp\ccAmOMRv.s 			page 43


 1302 0332 7824     		movs	r4, #120
 1303 0334 0094     		str	r4, [sp]
 1304 0336 FFF7FEFF 		bl	_ZN4cGFX8drawLineEtttt6cColor
 1305              	.LVL51:
 103:TestTFT.cpp   **** 
 104:TestTFT.cpp   **** 		char Buff[20];
 1306              		.loc 6 104 3 is_stmt 1 view .LVU367
 105:TestTFT.cpp   **** 		
 106:TestTFT.cpp   **** 		__Display.setCursor(30, 200);
 1307              		.loc 6 106 3 view .LVU368
 1308              	.LBB527:
 1309              	.LBI527:
 175:GFX.h         ****         m_xCursor = x;
 1310              		.loc 8 175 17 view .LVU369
 1311              	.LBB528:
 176:GFX.h         ****         m_yCursor = y;
 1312              		.loc 8 176 9 view .LVU370
 177:GFX.h         ****     };
 1313              		.loc 8 177 9 view .LVU371
 176:GFX.h         ****         m_yCursor = y;
 1314              		.loc 8 176 19 is_stmt 0 view .LVU372
 1315 033a 1E4B     		ldr	r3, .L28+4
 1316              	.LBE528:
 1317              	.LBE527:
 107:TestTFT.cpp   **** 		sprintf(Buff, "%02d", CtColor);
 1318              		.loc 6 107 10 view .LVU373
 1319 033c 3A46     		mov	r2, r7
 1320 033e 1E49     		ldr	r1, .L28+8
 1321 0340 05A8     		add	r0, sp, #20
 1322              	.LBB530:
 1323              	.LBB529:
 176:GFX.h         ****         m_yCursor = y;
 1324              		.loc 8 176 19 view .LVU374
 1325 0342 C9F8D830 		str	r3, [r9, #216]
 1326              	.LVL52:
 176:GFX.h         ****         m_yCursor = y;
 1327              		.loc 8 176 19 view .LVU375
 1328              	.LBE529:
 1329              	.LBE530:
 1330              		.loc 6 107 3 is_stmt 1 view .LVU376
 1331              		.loc 6 107 10 is_stmt 0 view .LVU377
 1332 0346 FFF7FEFF 		bl	sprintf
 1333              	.LVL53:
 108:TestTFT.cpp   **** 		__Display.drawText(Buff,true);
 1334              		.loc 6 108 3 is_stmt 1 view .LVU378
 1335              		.loc 6 108 21 is_stmt 0 view .LVU379
 1336 034a 0122     		movs	r2, #1
 1337 034c 05A9     		add	r1, sp, #20
 1338 034e 1848     		ldr	r0, .L28
 1339 0350 FFF7FEFF 		bl	_ZN4cGFX8drawTextEPKcb
 1340              	.LVL54:
 109:TestTFT.cpp   **** 		
 110:TestTFT.cpp   **** 		CtColor += 1;
 1341              		.loc 6 110 3 is_stmt 1 view .LVU380
 1342              		.loc 6 110 11 is_stmt 0 view .LVU381
 1343 0354 7A1C     		adds	r2, r7, #1
 1344 0356 D2B2     		uxtb	r2, r2
ARM GAS  C:\Users\pbant\AppData\Local\Temp\ccAmOMRv.s 			page 44


 1345              	.LVL55:
 111:TestTFT.cpp   **** 		if(CtColor >= TabColorMax) CtColor = 0;
 1346              		.loc 6 111 3 is_stmt 1 view .LVU382
 1347 0358 0B2A     		cmp	r2, #11
 1348 035a 19D9     		bls	.L25
 1349 035c B046     		mov	r8, r6
 1350 035e AA46     		mov	r10, r5
 1351 0360 2A46     		mov	r2, r5
 1352              	.LVL56:
 1353              		.loc 6 111 3 is_stmt 0 view .LVU383
 1354 0362 0395     		str	r5, [sp, #12]
 1355 0364 0296     		str	r6, [sp, #8]
 1356              	.L19:
 1357              	.LVL57:
 112:TestTFT.cpp   **** 		
 113:TestTFT.cpp   **** 		__Display.setCursor(30, 200);
 1358              		.loc 6 113 3 is_stmt 1 view .LVU384
 1359              	.LBB531:
 1360              	.LBI531:
 175:GFX.h         ****         m_xCursor = x;
 1361              		.loc 8 175 17 view .LVU385
 1362              	.LBB532:
 176:GFX.h         ****         m_yCursor = y;
 1363              		.loc 8 176 9 view .LVU386
 177:GFX.h         ****     };
 1364              		.loc 8 177 9 view .LVU387
 176:GFX.h         ****         m_yCursor = y;
 1365              		.loc 8 176 19 is_stmt 0 view .LVU388
 1366 0366 134B     		ldr	r3, .L28+4
 1367              	.LBE532:
 1368              	.LBE531:
 114:TestTFT.cpp   **** 		sprintf(Buff, "%02d", CtColor);
 1369              		.loc 6 114 10 view .LVU389
 1370 0368 05A8     		add	r0, sp, #20
 1371 036a 1349     		ldr	r1, .L28+8
 1372              	.LBE537:
 115:TestTFT.cpp   **** 		__Display.drawText(Buff);
 116:TestTFT.cpp   **** 
 117:TestTFT.cpp   **** 		__Display.FlushFrame();
 118:TestTFT.cpp   **** 
 119:TestTFT.cpp   **** 		System::Delay(1500);
 120:TestTFT.cpp   **** 	}
 1373              		.loc 6 120 2 view .LVU390
 1374 036c 2F46     		mov	r7, r5
 1375              	.LBB538:
 1376              	.LBB534:
 1377              	.LBB533:
 176:GFX.h         ****         m_yCursor = y;
 1378              		.loc 8 176 19 view .LVU391
 1379 036e C9F8D830 		str	r3, [r9, #216]
 1380              	.LVL58:
 176:GFX.h         ****         m_yCursor = y;
 1381              		.loc 8 176 19 view .LVU392
 1382              	.LBE533:
 1383              	.LBE534:
 114:TestTFT.cpp   **** 		sprintf(Buff, "%02d", CtColor);
 1384              		.loc 6 114 3 is_stmt 1 view .LVU393
ARM GAS  C:\Users\pbant\AppData\Local\Temp\ccAmOMRv.s 			page 45


 114:TestTFT.cpp   **** 		sprintf(Buff, "%02d", CtColor);
 1385              		.loc 6 114 10 is_stmt 0 view .LVU394
 1386 0372 FFF7FEFF 		bl	sprintf
 1387              	.LVL59:
 115:TestTFT.cpp   **** 		__Display.drawText(Buff);
 1388              		.loc 6 115 3 is_stmt 1 view .LVU395
 115:TestTFT.cpp   **** 		__Display.drawText(Buff);
 1389              		.loc 6 115 21 is_stmt 0 view .LVU396
 1390 0376 0022     		movs	r2, #0
 1391 0378 05A9     		add	r1, sp, #20
 1392 037a 0D48     		ldr	r0, .L28
 1393 037c FFF7FEFF 		bl	_ZN4cGFX8drawTextEPKcb
 1394              	.LVL60:
 117:TestTFT.cpp   **** 
 1395              		.loc 6 117 3 is_stmt 1 view .LVU397
 1396              	.LBB535:
 1397              	.LBI535:
 153:GFX.h         **** 
 1398              		.loc 8 153 17 view .LVU398
 1399              	.LBB536:
 153:GFX.h         **** 
 1400              		.loc 8 153 32 view .LVU399
 153:GFX.h         **** 
 1401              		.loc 8 153 54 is_stmt 0 view .LVU400
 1402 0380 0B48     		ldr	r0, .L28
 1403 0382 FFF7FEFF 		bl	_ZN10cRBG_Frame10FlushFrameEv
 1404              	.LVL61:
 153:GFX.h         **** 
 1405              		.loc 8 153 54 view .LVU401
 1406              	.LBE536:
 1407              	.LBE535:
 119:TestTFT.cpp   **** 	}
 1408              		.loc 6 119 3 is_stmt 1 view .LVU402
 119:TestTFT.cpp   **** 	}
 1409              		.loc 6 119 16 is_stmt 0 view .LVU403
 1410 0386 40F2DC50 		movw	r0, #1500
 1411 038a FFF7FEFF 		bl	_ZN5daisy6System5DelayEm
 1412              	.LVL62:
 1413              	.LBE538:
  62:TestTFT.cpp   **** 		x = 30;
 1414              		.loc 6 62 2 is_stmt 1 view .LVU404
 1415              		.loc 6 120 2 is_stmt 0 view .LVU405
 1416 038e CEE6     		b	.L20
 1417              	.LVL63:
 1418              	.L25:
 1419              	.LBB539:
  66:TestTFT.cpp   **** 		__Display.setCursor(x, y);
 1420              		.loc 6 66 9 view .LVU406
 1421 0390 16AB     		add	r3, sp, #88
 1422 0392 1546     		mov	r5, r2
 1423 0394 03EB8203 		add	r3, r3, r2, lsl #2
 1424 0398 13F8301C 		ldrb	r1, [r3, #-48]	@ zero_extendqisi2
 1425 039c 13F82EAC 		ldrb	r10, [r3, #-46]	@ zero_extendqisi2
 1426 03a0 0291     		str	r1, [sp, #8]
 1427 03a2 13F82F1C 		ldrb	r1, [r3, #-47]	@ zero_extendqisi2
 1428 03a6 13F82D8C 		ldrb	r8, [r3, #-45]	@ zero_extendqisi2
 1429 03aa 0391     		str	r1, [sp, #12]
ARM GAS  C:\Users\pbant\AppData\Local\Temp\ccAmOMRv.s 			page 46


 1430 03ac DBE7     		b	.L19
 1431              	.L29:
 1432 03ae 00BF     		.align	2
 1433              	.L28:
 1434 03b0 00000000 		.word	.LANCHOR1
 1435 03b4 1E00C800 		.word	13107230
 1436 03b8 0C000000 		.word	.LC1
 1437              	.LBE539:
 1438              		.cfi_endproc
 1439              	.LFE4753:
 1441              		.section	.text.startup._GLOBAL__sub_I_hw,"ax",%progbits
 1442              		.align	1
 1443              		.p2align 2,,3
 1444              		.syntax unified
 1445              		.thumb
 1446              		.thumb_func
 1447              		.fpu fpv5-d16
 1449              	_GLOBAL__sub_I_hw:
 1450              	.LFB5316:
 121:TestTFT.cpp   **** }
 1451              		.loc 6 121 1 is_stmt 1 view -0
 1452              		.cfi_startproc
 1453              		@ args = 0, pretend = 0, frame = 0
 1454              		@ frame_needed = 0, uses_anonymous_args = 0
 1455              	.LBB608:
 1456              	.LBI608:
 1457              		.loc 6 121 1 view .LVU408
 1458              	.LVL64:
 1459              	.LBB609:
 1460              	.LBB610:
 1461              	.LBI610:
  21:../../../../Desktop/DaisyExamples/libDaisy//src/daisy_seed.h ****     ~DaisySeed() {}
 1462              		.loc 1 21 5 view .LVU409
 1463              	.LBB611:
 1464              	.LBB612:
 1465              	.LBI612:
 1466              		.file 9 "../../../../Desktop/DaisyExamples/libDaisy//src/per/qspi.h"
   1:../../../../Desktop/DaisyExamples/libDaisy//src/per/qspi.h **** #ifndef DSY_QSPI
   2:../../../../Desktop/DaisyExamples/libDaisy//src/per/qspi.h **** #define DSY_QSPI /**< Macro */
   3:../../../../Desktop/DaisyExamples/libDaisy//src/per/qspi.h **** 
   4:../../../../Desktop/DaisyExamples/libDaisy//src/per/qspi.h **** #ifndef UNIT_TEST // for unit tests, a dummy implementation
   5:../../../../Desktop/DaisyExamples/libDaisy//src/per/qspi.h **** 
   6:../../../../Desktop/DaisyExamples/libDaisy//src/per/qspi.h **** #include <cstdint>
   7:../../../../Desktop/DaisyExamples/libDaisy//src/per/qspi.h **** #include "daisy_core.h" // Added for dsy_gpio_pin typedef
   8:../../../../Desktop/DaisyExamples/libDaisy//src/per/qspi.h **** 
   9:../../../../Desktop/DaisyExamples/libDaisy//src/per/qspi.h **** #define DSY_QSPI_TEXT       \
  10:../../../../Desktop/DaisyExamples/libDaisy//src/per/qspi.h ****     __attribute__((section( \
  11:../../../../Desktop/DaisyExamples/libDaisy//src/per/qspi.h ****         ".qspiflash_text"))) /**< used for reading memory in memory_mapped mode. */
  12:../../../../Desktop/DaisyExamples/libDaisy//src/per/qspi.h **** #define DSY_QSPI_DATA       \
  13:../../../../Desktop/DaisyExamples/libDaisy//src/per/qspi.h ****     __attribute__((section( \
  14:../../../../Desktop/DaisyExamples/libDaisy//src/per/qspi.h ****         ".qspiflash_data"))) /**< used for reading memory in memory_mapped mode. */
  15:../../../../Desktop/DaisyExamples/libDaisy//src/per/qspi.h **** #define DSY_QSPI_BSS        \
  16:../../../../Desktop/DaisyExamples/libDaisy//src/per/qspi.h ****     __attribute__((section( \
  17:../../../../Desktop/DaisyExamples/libDaisy//src/per/qspi.h ****         ".qspiflash_bss"))) /**< used for reading memory in memory_mapped mode. */
  18:../../../../Desktop/DaisyExamples/libDaisy//src/per/qspi.h **** 
  19:../../../../Desktop/DaisyExamples/libDaisy//src/per/qspi.h **** namespace daisy
  20:../../../../Desktop/DaisyExamples/libDaisy//src/per/qspi.h **** {
ARM GAS  C:\Users\pbant\AppData\Local\Temp\ccAmOMRv.s 			page 47


  21:../../../../Desktop/DaisyExamples/libDaisy//src/per/qspi.h **** /** @addtogroup serial
  22:../../../../Desktop/DaisyExamples/libDaisy//src/per/qspi.h **** @{
  23:../../../../Desktop/DaisyExamples/libDaisy//src/per/qspi.h **** */
  24:../../../../Desktop/DaisyExamples/libDaisy//src/per/qspi.h **** 
  25:../../../../Desktop/DaisyExamples/libDaisy//src/per/qspi.h **** /** 
  26:../../../../Desktop/DaisyExamples/libDaisy//src/per/qspi.h ****  Driver for QSPI peripheral to interface with external flash memory. \n 
  27:../../../../Desktop/DaisyExamples/libDaisy//src/per/qspi.h ****     Currently supported QSPI Devices: \n 
  28:../../../../Desktop/DaisyExamples/libDaisy//src/per/qspi.h ****     * IS25LP080D
  29:../../../../Desktop/DaisyExamples/libDaisy//src/per/qspi.h **** */
  30:../../../../Desktop/DaisyExamples/libDaisy//src/per/qspi.h **** class QSPIHandle
  31:../../../../Desktop/DaisyExamples/libDaisy//src/per/qspi.h **** {
  32:../../../../Desktop/DaisyExamples/libDaisy//src/per/qspi.h ****   public:
  33:../../../../Desktop/DaisyExamples/libDaisy//src/per/qspi.h ****     enum Result
  34:../../../../Desktop/DaisyExamples/libDaisy//src/per/qspi.h ****     {
  35:../../../../Desktop/DaisyExamples/libDaisy//src/per/qspi.h ****         OK = 0,
  36:../../../../Desktop/DaisyExamples/libDaisy//src/per/qspi.h ****         ERR
  37:../../../../Desktop/DaisyExamples/libDaisy//src/per/qspi.h ****     };
  38:../../../../Desktop/DaisyExamples/libDaisy//src/per/qspi.h **** 
  39:../../../../Desktop/DaisyExamples/libDaisy//src/per/qspi.h ****     /** Indicates the current status of the module. 
  40:../../../../Desktop/DaisyExamples/libDaisy//src/per/qspi.h ****          *  Warnings are indicated by a leading W.
  41:../../../../Desktop/DaisyExamples/libDaisy//src/per/qspi.h ****          *  Errors are indicated by a leading E and cause an immediate exit.
  42:../../../../Desktop/DaisyExamples/libDaisy//src/per/qspi.h ****          * 
  43:../../../../Desktop/DaisyExamples/libDaisy//src/per/qspi.h ****          *  \param GOOD - No errors have been reported.
  44:../../../../Desktop/DaisyExamples/libDaisy//src/per/qspi.h ****          *  \param E_HAL_ERROR - HAL code did not return HAL_OK.
  45:../../../../Desktop/DaisyExamples/libDaisy//src/per/qspi.h ****          *  \param E_SWITCHING_MODES - An error was encountered while switching QSPI peripheral mod
  46:../../../../Desktop/DaisyExamples/libDaisy//src/per/qspi.h ****          *  \param E_INVALID_MODE - QSPI should not be written to while the program is executing fr
  47:../../../../Desktop/DaisyExamples/libDaisy//src/per/qspi.h ****          */
  48:../../../../Desktop/DaisyExamples/libDaisy//src/per/qspi.h ****     enum Status
  49:../../../../Desktop/DaisyExamples/libDaisy//src/per/qspi.h ****     {
  50:../../../../Desktop/DaisyExamples/libDaisy//src/per/qspi.h ****         GOOD = 0,
  51:../../../../Desktop/DaisyExamples/libDaisy//src/per/qspi.h ****         E_HAL_ERROR,
  52:../../../../Desktop/DaisyExamples/libDaisy//src/per/qspi.h ****         E_SWITCHING_MODES,
  53:../../../../Desktop/DaisyExamples/libDaisy//src/per/qspi.h ****         E_INVALID_MODE,
  54:../../../../Desktop/DaisyExamples/libDaisy//src/per/qspi.h ****     };
  55:../../../../Desktop/DaisyExamples/libDaisy//src/per/qspi.h **** 
  56:../../../../Desktop/DaisyExamples/libDaisy//src/per/qspi.h ****     /** Configuration structure for interfacing with QSPI Driver */
  57:../../../../Desktop/DaisyExamples/libDaisy//src/per/qspi.h ****     struct Config
  58:../../../../Desktop/DaisyExamples/libDaisy//src/per/qspi.h ****     {
  59:../../../../Desktop/DaisyExamples/libDaisy//src/per/qspi.h ****         /** Flash Devices supported. (Both of these are more-or-less the same, just different sizes
  60:../../../../Desktop/DaisyExamples/libDaisy//src/per/qspi.h ****         enum Device
  61:../../../../Desktop/DaisyExamples/libDaisy//src/per/qspi.h ****         {
  62:../../../../Desktop/DaisyExamples/libDaisy//src/per/qspi.h ****             IS25LP080D,  /**< & */
  63:../../../../Desktop/DaisyExamples/libDaisy//src/per/qspi.h ****             IS25LP064A,  /**< & */
  64:../../../../Desktop/DaisyExamples/libDaisy//src/per/qspi.h ****             DEVICE_LAST, /**< & */
  65:../../../../Desktop/DaisyExamples/libDaisy//src/per/qspi.h ****         };
  66:../../../../Desktop/DaisyExamples/libDaisy//src/per/qspi.h **** 
  67:../../../../Desktop/DaisyExamples/libDaisy//src/per/qspi.h ****         /** 
  68:../../../../Desktop/DaisyExamples/libDaisy//src/per/qspi.h ****         Modes of operation.
  69:../../../../Desktop/DaisyExamples/libDaisy//src/per/qspi.h ****         Memory Mapped mode: QSPI configured so that the QSPI can be
  70:../../../../Desktop/DaisyExamples/libDaisy//src/per/qspi.h ****         read from starting address 0x90000000. Writing is not
  71:../../../../Desktop/DaisyExamples/libDaisy//src/per/qspi.h ****         possible in this mode. \n 
  72:../../../../Desktop/DaisyExamples/libDaisy//src/per/qspi.h ****         Indirect Polling mode: Device driver enabled. 
  73:../../../../Desktop/DaisyExamples/libDaisy//src/per/qspi.h ****         */
  74:../../../../Desktop/DaisyExamples/libDaisy//src/per/qspi.h ****         enum Mode
  75:../../../../Desktop/DaisyExamples/libDaisy//src/per/qspi.h ****         {
  76:../../../../Desktop/DaisyExamples/libDaisy//src/per/qspi.h ****             MEMORY_MAPPED,    /**< & */
  77:../../../../Desktop/DaisyExamples/libDaisy//src/per/qspi.h ****             INDIRECT_POLLING, /**< & */
ARM GAS  C:\Users\pbant\AppData\Local\Temp\ccAmOMRv.s 			page 48


  78:../../../../Desktop/DaisyExamples/libDaisy//src/per/qspi.h ****             MODE_LAST,
  79:../../../../Desktop/DaisyExamples/libDaisy//src/per/qspi.h ****         };
  80:../../../../Desktop/DaisyExamples/libDaisy//src/per/qspi.h **** 
  81:../../../../Desktop/DaisyExamples/libDaisy//src/per/qspi.h ****         //SCK,  CE# (active low)
  82:../../../../Desktop/DaisyExamples/libDaisy//src/per/qspi.h ****         struct
  83:../../../../Desktop/DaisyExamples/libDaisy//src/per/qspi.h ****         {
  84:../../../../Desktop/DaisyExamples/libDaisy//src/per/qspi.h ****             dsy_gpio_pin io0; /**< & */
  85:../../../../Desktop/DaisyExamples/libDaisy//src/per/qspi.h ****             dsy_gpio_pin io1; /**< & */
  86:../../../../Desktop/DaisyExamples/libDaisy//src/per/qspi.h ****             dsy_gpio_pin io2; /**< & */
  87:../../../../Desktop/DaisyExamples/libDaisy//src/per/qspi.h ****             dsy_gpio_pin io3; /**< & */
  88:../../../../Desktop/DaisyExamples/libDaisy//src/per/qspi.h ****             dsy_gpio_pin clk; /**< & */
  89:../../../../Desktop/DaisyExamples/libDaisy//src/per/qspi.h ****             dsy_gpio_pin ncs; /**< & */
  90:../../../../Desktop/DaisyExamples/libDaisy//src/per/qspi.h ****         } pin_config;
  91:../../../../Desktop/DaisyExamples/libDaisy//src/per/qspi.h **** 
  92:../../../../Desktop/DaisyExamples/libDaisy//src/per/qspi.h ****         Device device;
  93:../../../../Desktop/DaisyExamples/libDaisy//src/per/qspi.h ****         Mode   mode;
  94:../../../../Desktop/DaisyExamples/libDaisy//src/per/qspi.h ****     };
  95:../../../../Desktop/DaisyExamples/libDaisy//src/per/qspi.h **** 
  96:../../../../Desktop/DaisyExamples/libDaisy//src/per/qspi.h ****     /** 
  97:../../../../Desktop/DaisyExamples/libDaisy//src/per/qspi.h ****         Initializes QSPI peripheral, and Resets, and prepares memory for access.
  98:../../../../Desktop/DaisyExamples/libDaisy//src/per/qspi.h ****         \param config should be populated with the mode, device and pin_config before calling this 
  99:../../../../Desktop/DaisyExamples/libDaisy//src/per/qspi.h ****         \return Result::OK or Result::ERR
 100:../../../../Desktop/DaisyExamples/libDaisy//src/per/qspi.h ****         */
 101:../../../../Desktop/DaisyExamples/libDaisy//src/per/qspi.h ****     Result Init(const Config& config);
 102:../../../../Desktop/DaisyExamples/libDaisy//src/per/qspi.h **** 
 103:../../../../Desktop/DaisyExamples/libDaisy//src/per/qspi.h ****     /** Returns the current config. */
 104:../../../../Desktop/DaisyExamples/libDaisy//src/per/qspi.h ****     const Config& GetConfig() const;
 105:../../../../Desktop/DaisyExamples/libDaisy//src/per/qspi.h **** 
 106:../../../../Desktop/DaisyExamples/libDaisy//src/per/qspi.h ****     // Couldn't this just be called before anything else in init? That
 107:../../../../Desktop/DaisyExamples/libDaisy//src/per/qspi.h ****     // would make manually calling it unnecessary.
 108:../../../../Desktop/DaisyExamples/libDaisy//src/per/qspi.h ****     /** 
 109:../../../../Desktop/DaisyExamples/libDaisy//src/per/qspi.h ****         Deinitializes the peripheral
 110:../../../../Desktop/DaisyExamples/libDaisy//src/per/qspi.h ****         This should be called before reinitializing QSPI in a different mode.
 111:../../../../Desktop/DaisyExamples/libDaisy//src/per/qspi.h ****         \return Result::OK or Result::ERR
 112:../../../../Desktop/DaisyExamples/libDaisy//src/per/qspi.h ****         */
 113:../../../../Desktop/DaisyExamples/libDaisy//src/per/qspi.h ****     Result DeInit();
 114:../../../../Desktop/DaisyExamples/libDaisy//src/per/qspi.h **** 
 115:../../../../Desktop/DaisyExamples/libDaisy//src/per/qspi.h ****     /** 
 116:../../../../Desktop/DaisyExamples/libDaisy//src/per/qspi.h ****         Writes a single page to to the specified address on the QSPI chip.
 117:../../../../Desktop/DaisyExamples/libDaisy//src/per/qspi.h ****         For IS25LP*, page size is 256 bytes.
 118:../../../../Desktop/DaisyExamples/libDaisy//src/per/qspi.h ****         \param address Address to write to
 119:../../../../Desktop/DaisyExamples/libDaisy//src/per/qspi.h ****         \param size Buffer size
 120:../../../../Desktop/DaisyExamples/libDaisy//src/per/qspi.h ****         \param buffer Buffer to write
 121:../../../../Desktop/DaisyExamples/libDaisy//src/per/qspi.h ****         \return Result::OK or Result::ERR
 122:../../../../Desktop/DaisyExamples/libDaisy//src/per/qspi.h ****         */
 123:../../../../Desktop/DaisyExamples/libDaisy//src/per/qspi.h ****     Result WritePage(uint32_t address, uint32_t size, uint8_t* buffer);
 124:../../../../Desktop/DaisyExamples/libDaisy//src/per/qspi.h **** 
 125:../../../../Desktop/DaisyExamples/libDaisy//src/per/qspi.h ****     /** 
 126:../../../../Desktop/DaisyExamples/libDaisy//src/per/qspi.h ****         Writes data in buffer to to the QSPI. Starting at address to address+size 
 127:../../../../Desktop/DaisyExamples/libDaisy//src/per/qspi.h ****         \param address Address to write to
 128:../../../../Desktop/DaisyExamples/libDaisy//src/per/qspi.h ****         \param size Buffer size
 129:../../../../Desktop/DaisyExamples/libDaisy//src/per/qspi.h ****         \param buffer Buffer to write
 130:../../../../Desktop/DaisyExamples/libDaisy//src/per/qspi.h ****         \return Result::OK or Result::ERR
 131:../../../../Desktop/DaisyExamples/libDaisy//src/per/qspi.h ****         */
 132:../../../../Desktop/DaisyExamples/libDaisy//src/per/qspi.h ****     Result Write(uint32_t address, uint32_t size, uint8_t* buffer);
 133:../../../../Desktop/DaisyExamples/libDaisy//src/per/qspi.h **** 
 134:../../../../Desktop/DaisyExamples/libDaisy//src/per/qspi.h ****     /** 
ARM GAS  C:\Users\pbant\AppData\Local\Temp\ccAmOMRv.s 			page 49


 135:../../../../Desktop/DaisyExamples/libDaisy//src/per/qspi.h ****         Erases the area specified on the chip.
 136:../../../../Desktop/DaisyExamples/libDaisy//src/per/qspi.h ****         Erasures will happen by 4K, 32K or 64K increments.
 137:../../../../Desktop/DaisyExamples/libDaisy//src/per/qspi.h ****         Smallest erase possible is 4kB at a time. (on IS25LP*)
 138:../../../../Desktop/DaisyExamples/libDaisy//src/per/qspi.h ****         \param start_addr Address to begin erasing from
 139:../../../../Desktop/DaisyExamples/libDaisy//src/per/qspi.h ****         \param end_addr  Address to stop erasing at
 140:../../../../Desktop/DaisyExamples/libDaisy//src/per/qspi.h ****         \return Result::OK or Result::ERR
 141:../../../../Desktop/DaisyExamples/libDaisy//src/per/qspi.h ****         */
 142:../../../../Desktop/DaisyExamples/libDaisy//src/per/qspi.h ****     Result Erase(uint32_t start_addr, uint32_t end_addr);
 143:../../../../Desktop/DaisyExamples/libDaisy//src/per/qspi.h **** 
 144:../../../../Desktop/DaisyExamples/libDaisy//src/per/qspi.h ****     /**  
 145:../../../../Desktop/DaisyExamples/libDaisy//src/per/qspi.h ****          Erases a single sector of the chip.  
 146:../../../../Desktop/DaisyExamples/libDaisy//src/per/qspi.h ****         TODO: Document the size of this function. 
 147:../../../../Desktop/DaisyExamples/libDaisy//src/per/qspi.h ****         \param address Address of sector to erase
 148:../../../../Desktop/DaisyExamples/libDaisy//src/per/qspi.h ****         \return Result::OK or Result::ERR
 149:../../../../Desktop/DaisyExamples/libDaisy//src/per/qspi.h ****         */
 150:../../../../Desktop/DaisyExamples/libDaisy//src/per/qspi.h ****     Result EraseSector(uint32_t address);
 151:../../../../Desktop/DaisyExamples/libDaisy//src/per/qspi.h **** 
 152:../../../../Desktop/DaisyExamples/libDaisy//src/per/qspi.h ****     /** Returns the current class status. Useful for debugging.
 153:../../../../Desktop/DaisyExamples/libDaisy//src/per/qspi.h ****      *  \returns Status
 154:../../../../Desktop/DaisyExamples/libDaisy//src/per/qspi.h ****      */
 155:../../../../Desktop/DaisyExamples/libDaisy//src/per/qspi.h ****     Status GetStatus();
 156:../../../../Desktop/DaisyExamples/libDaisy//src/per/qspi.h **** 
 157:../../../../Desktop/DaisyExamples/libDaisy//src/per/qspi.h ****     /** Returns a pointer to the actual memory used 
 158:../../../../Desktop/DaisyExamples/libDaisy//src/per/qspi.h ****      *  The memory at this address is read-only
 159:../../../../Desktop/DaisyExamples/libDaisy//src/per/qspi.h ****      *  to write to it use the Write function.
 160:../../../../Desktop/DaisyExamples/libDaisy//src/per/qspi.h ****      * 
 161:../../../../Desktop/DaisyExamples/libDaisy//src/per/qspi.h ****      *  \param offset returns the pointer starting this 
 162:../../../../Desktop/DaisyExamples/libDaisy//src/per/qspi.h ****      *                many bytes into the memory
 163:../../../../Desktop/DaisyExamples/libDaisy//src/per/qspi.h ****     */
 164:../../../../Desktop/DaisyExamples/libDaisy//src/per/qspi.h ****     void* GetData(uint32_t offset = 0);
 165:../../../../Desktop/DaisyExamples/libDaisy//src/per/qspi.h **** 
 166:../../../../Desktop/DaisyExamples/libDaisy//src/per/qspi.h ****     QSPIHandle() : pimpl_(nullptr) {}
 1467              		.loc 9 166 5 view .LVU410
 1468              	.LBE612:
 1469              	.LBE611:
 1470              	.LBE610:
 1471              	.LBE609:
 1472              	.LBE608:
 1473              		.loc 6 121 1 is_stmt 0 view .LVU411
 1474 0000 38B5     		push	{r3, r4, r5, lr}
 1475              		.cfi_def_cfa_offset 16
 1476              		.cfi_offset 3, -16
 1477              		.cfi_offset 4, -12
 1478              		.cfi_offset 5, -8
 1479              		.cfi_offset 14, -4
 1480              	.LBB749:
 1481              	.LBB745:
 1482              	.LBB633:
 1483              	.LBB631:
 1484              	.LBB617:
 1485              	.LBB613:
 1486              	.LBB614:
 1487              		.loc 9 166 34 view .LVU412
 1488 0002 2648     		ldr	r0, .L38
 1489 0004 0023     		movs	r3, #0
 1490              	.LBE614:
 1491              	.LBE613:
ARM GAS  C:\Users\pbant\AppData\Local\Temp\ccAmOMRv.s 			page 50


 1492              	.LBE617:
 1493              	.LBE631:
 1494              	.LBE633:
  11:TestTFT.cpp   **** 
 1495              		.loc 6 11 11 view .LVU413
 1496 0006 264A     		ldr	r2, .L38+4
 1497 0008 2649     		ldr	r1, .L38+8
 1498              	.LBB634:
 1499              	.LBB632:
 1500              	.LBB618:
 1501              	.LBB616:
 1502              	.LBB615:
 1503              		.loc 9 166 34 view .LVU414
 1504 000a 0360     		str	r3, [r0]
 1505              	.LVL65:
 1506              		.loc 9 166 34 view .LVU415
 1507              	.LBE615:
 1508              	.LBE616:
 1509              	.LBE618:
 1510              	.LBB619:
 1511              	.LBI619:
  95:../../../../Desktop/DaisyExamples/libDaisy//src/hid/audio.h ****     ~AudioHandle() {}
 1512              		.loc 5 95 5 is_stmt 1 view .LVU416
 1513              	.LBB620:
 1514              	.LBB621:
  95:../../../../Desktop/DaisyExamples/libDaisy//src/hid/audio.h ****     ~AudioHandle() {}
 1515              		.loc 5 95 35 is_stmt 0 view .LVU417
 1516 000c 4361     		str	r3, [r0, #20]
 1517              	.LVL66:
  95:../../../../Desktop/DaisyExamples/libDaisy//src/hid/audio.h ****     ~AudioHandle() {}
 1518              		.loc 5 95 35 view .LVU418
 1519              	.LBE621:
 1520              	.LBE620:
 1521              	.LBE619:
 1522              	.LBB622:
 1523              	.LBI622:
 109:../../../../Desktop/DaisyExamples/libDaisy//src/per/adc.h ****     ~AdcHandle() {}
 1524              		.loc 4 109 5 is_stmt 1 view .LVU419
 109:../../../../Desktop/DaisyExamples/libDaisy//src/per/adc.h ****     ~AdcHandle() {}
 1525              		.loc 4 109 5 is_stmt 0 view .LVU420
 1526              	.LBE622:
 1527              	.LBB623:
 1528              	.LBI623:
 1529              		.file 10 "../../../../Desktop/DaisyExamples/libDaisy//src/per/dac.h"
   1:../../../../Desktop/DaisyExamples/libDaisy//src/per/dac.h **** #pragma once
   2:../../../../Desktop/DaisyExamples/libDaisy//src/per/dac.h **** #ifndef DSY_DAC_H
   3:../../../../Desktop/DaisyExamples/libDaisy//src/per/dac.h **** #define DSY_DAC_H
   4:../../../../Desktop/DaisyExamples/libDaisy//src/per/dac.h **** 
   5:../../../../Desktop/DaisyExamples/libDaisy//src/per/dac.h **** #include "daisy_core.h"
   6:../../../../Desktop/DaisyExamples/libDaisy//src/per/dac.h **** 
   7:../../../../Desktop/DaisyExamples/libDaisy//src/per/dac.h **** namespace daisy
   8:../../../../Desktop/DaisyExamples/libDaisy//src/per/dac.h **** {
   9:../../../../Desktop/DaisyExamples/libDaisy//src/per/dac.h **** /** @brief DAC handle for Built-in DAC Peripheral 
  10:../../../../Desktop/DaisyExamples/libDaisy//src/per/dac.h ****  *  @ingroup per_analog
  11:../../../../Desktop/DaisyExamples/libDaisy//src/per/dac.h ****  ** 
  12:../../../../Desktop/DaisyExamples/libDaisy//src/per/dac.h ****  ** For now only Normal Mode is supported,
  13:../../../../Desktop/DaisyExamples/libDaisy//src/per/dac.h ****  ** Sample and hold mode provides reduced power consumption, but requires a bit more setup.
ARM GAS  C:\Users\pbant\AppData\Local\Temp\ccAmOMRv.s 			page 51


  14:../../../../Desktop/DaisyExamples/libDaisy//src/per/dac.h ****  **
  15:../../../../Desktop/DaisyExamples/libDaisy//src/per/dac.h ****  ** For now connecting the DAC through other internal peripherals is also not supported.
  16:../../../../Desktop/DaisyExamples/libDaisy//src/per/dac.h ****  **
  17:../../../../Desktop/DaisyExamples/libDaisy//src/per/dac.h ****  ** Since the DAC channels have dedicated pins we don't need to pass in a pin config like with
  18:../../../../Desktop/DaisyExamples/libDaisy//src/per/dac.h ****  ** other modules. However, it is still important to not try to use the DAC pins for anything else.
  19:../../../../Desktop/DaisyExamples/libDaisy//src/per/dac.h ****  ** DAC Channel 1 is on PA4, and DAC Channel 2 is on PA5
  20:../../../../Desktop/DaisyExamples/libDaisy//src/per/dac.h ****  ***/
  21:../../../../Desktop/DaisyExamples/libDaisy//src/per/dac.h **** class DacHandle
  22:../../../../Desktop/DaisyExamples/libDaisy//src/per/dac.h **** {
  23:../../../../Desktop/DaisyExamples/libDaisy//src/per/dac.h ****   public:
  24:../../../../Desktop/DaisyExamples/libDaisy//src/per/dac.h ****     /** Return Values for the DacHandle class */
  25:../../../../Desktop/DaisyExamples/libDaisy//src/per/dac.h ****     enum class Result
  26:../../../../Desktop/DaisyExamples/libDaisy//src/per/dac.h ****     {
  27:../../../../Desktop/DaisyExamples/libDaisy//src/per/dac.h ****         OK,
  28:../../../../Desktop/DaisyExamples/libDaisy//src/per/dac.h ****         ERR,
  29:../../../../Desktop/DaisyExamples/libDaisy//src/per/dac.h ****     };
  30:../../../../Desktop/DaisyExamples/libDaisy//src/per/dac.h **** 
  31:../../../../Desktop/DaisyExamples/libDaisy//src/per/dac.h ****     /** Selects which channel(s) will be configured for use. */
  32:../../../../Desktop/DaisyExamples/libDaisy//src/per/dac.h ****     enum class Channel
  33:../../../../Desktop/DaisyExamples/libDaisy//src/per/dac.h ****     {
  34:../../../../Desktop/DaisyExamples/libDaisy//src/per/dac.h ****         ONE,
  35:../../../../Desktop/DaisyExamples/libDaisy//src/per/dac.h ****         TWO,
  36:../../../../Desktop/DaisyExamples/libDaisy//src/per/dac.h ****         BOTH,
  37:../../../../Desktop/DaisyExamples/libDaisy//src/per/dac.h ****     };
  38:../../../../Desktop/DaisyExamples/libDaisy//src/per/dac.h **** 
  39:../../../../Desktop/DaisyExamples/libDaisy//src/per/dac.h ****     /** Sets the Mode for the DAC channels.
  40:../../../../Desktop/DaisyExamples/libDaisy//src/per/dac.h ****      **
  41:../../../../Desktop/DaisyExamples/libDaisy//src/per/dac.h ****      ** Polling mode uses the blocking mode to transmit a single value at a time.
  42:../../../../Desktop/DaisyExamples/libDaisy//src/per/dac.h ****      **
  43:../../../../Desktop/DaisyExamples/libDaisy//src/per/dac.h ****      ** DMA mode uses a buffer, and periodically transmits it triggering a 
  44:../../../../Desktop/DaisyExamples/libDaisy//src/per/dac.h ****      ** callback to fill the buffer when it is ready for more samples.
  45:../../../../Desktop/DaisyExamples/libDaisy//src/per/dac.h ****      ***/
  46:../../../../Desktop/DaisyExamples/libDaisy//src/per/dac.h ****     enum class Mode
  47:../../../../Desktop/DaisyExamples/libDaisy//src/per/dac.h ****     {
  48:../../../../Desktop/DaisyExamples/libDaisy//src/per/dac.h ****         POLLING,
  49:../../../../Desktop/DaisyExamples/libDaisy//src/per/dac.h ****         DMA,
  50:../../../../Desktop/DaisyExamples/libDaisy//src/per/dac.h ****     };
  51:../../../../Desktop/DaisyExamples/libDaisy//src/per/dac.h **** 
  52:../../../../Desktop/DaisyExamples/libDaisy//src/per/dac.h ****     /** Sets the number of bits per sample transmitted out of the DAC.
  53:../../../../Desktop/DaisyExamples/libDaisy//src/per/dac.h ****      ** The output range will be: 0V - VDDA
  54:../../../../Desktop/DaisyExamples/libDaisy//src/per/dac.h ****      ** The resolution will be roughly: bitdepth / (VDDA - 0V) 
  55:../../../../Desktop/DaisyExamples/libDaisy//src/per/dac.h ****      ***/
  56:../../../../Desktop/DaisyExamples/libDaisy//src/per/dac.h ****     enum class BitDepth
  57:../../../../Desktop/DaisyExamples/libDaisy//src/per/dac.h ****     {
  58:../../../../Desktop/DaisyExamples/libDaisy//src/per/dac.h ****         BITS_8,
  59:../../../../Desktop/DaisyExamples/libDaisy//src/per/dac.h ****         BITS_12
  60:../../../../Desktop/DaisyExamples/libDaisy//src/per/dac.h ****     };
  61:../../../../Desktop/DaisyExamples/libDaisy//src/per/dac.h **** 
  62:../../../../Desktop/DaisyExamples/libDaisy//src/per/dac.h ****     /** Sets whether the DAC output is buffered for higher drive ability. */
  63:../../../../Desktop/DaisyExamples/libDaisy//src/per/dac.h ****     enum class BufferState
  64:../../../../Desktop/DaisyExamples/libDaisy//src/per/dac.h ****     {
  65:../../../../Desktop/DaisyExamples/libDaisy//src/per/dac.h ****         ENABLED,
  66:../../../../Desktop/DaisyExamples/libDaisy//src/per/dac.h ****         DISABLED,
  67:../../../../Desktop/DaisyExamples/libDaisy//src/per/dac.h ****     };
  68:../../../../Desktop/DaisyExamples/libDaisy//src/per/dac.h **** 
  69:../../../../Desktop/DaisyExamples/libDaisy//src/per/dac.h ****     /** Configuration structure for initializing the DAC structure. */
  70:../../../../Desktop/DaisyExamples/libDaisy//src/per/dac.h ****     struct Config
ARM GAS  C:\Users\pbant\AppData\Local\Temp\ccAmOMRv.s 			page 52


  71:../../../../Desktop/DaisyExamples/libDaisy//src/per/dac.h ****     {
  72:../../../../Desktop/DaisyExamples/libDaisy//src/per/dac.h ****         /** Target Samplerate in Hz used to configure the internal 
  73:../../../../Desktop/DaisyExamples/libDaisy//src/per/dac.h ****          ** timebase for DMA mode. Does nothing in POLLING mode.
  74:../../../../Desktop/DaisyExamples/libDaisy//src/per/dac.h ****          ** If the value is 0 at Init time this will default to 48000Hz 
  75:../../../../Desktop/DaisyExamples/libDaisy//src/per/dac.h ****          ** otherwise the driver will attempt meet the target.*/
  76:../../../../Desktop/DaisyExamples/libDaisy//src/per/dac.h ****         uint32_t target_samplerate;
  77:../../../../Desktop/DaisyExamples/libDaisy//src/per/dac.h **** 
  78:../../../../Desktop/DaisyExamples/libDaisy//src/per/dac.h ****         Channel     chn;
  79:../../../../Desktop/DaisyExamples/libDaisy//src/per/dac.h ****         Mode        mode;
  80:../../../../Desktop/DaisyExamples/libDaisy//src/per/dac.h ****         BitDepth    bitdepth;
  81:../../../../Desktop/DaisyExamples/libDaisy//src/per/dac.h ****         BufferState buff_state;
  82:../../../../Desktop/DaisyExamples/libDaisy//src/per/dac.h ****     };
  83:../../../../Desktop/DaisyExamples/libDaisy//src/per/dac.h **** 
  84:../../../../Desktop/DaisyExamples/libDaisy//src/per/dac.h ****     DacHandle() : pimpl_(nullptr) {}
 1530              		.loc 10 84 5 is_stmt 1 view .LVU421
 1531              	.LBB624:
 1532              	.LBB625:
 1533              		.loc 10 84 33 is_stmt 0 view .LVU422
 1534 000e 0362     		str	r3, [r0, #32]
 1535              	.LVL67:
 1536              		.loc 10 84 33 view .LVU423
 1537              	.LBE625:
 1538              	.LBE624:
 1539              	.LBE623:
 1540              	.LBB626:
 1541              	.LBI626:
  40:../../../../Desktop/DaisyExamples/libDaisy//src/hid/usb.h **** 
 1542              		.loc 3 40 5 is_stmt 1 view .LVU424
  40:../../../../Desktop/DaisyExamples/libDaisy//src/hid/usb.h **** 
 1543              		.loc 3 40 5 is_stmt 0 view .LVU425
 1544              	.LBE626:
 1545              	.LBB627:
 1546              	.LBI627:
  96:../../../../Desktop/DaisyExamples/libDaisy//src/sys/system.h ****     ~System() {}
 1547              		.loc 2 96 5 is_stmt 1 view .LVU426
  96:../../../../Desktop/DaisyExamples/libDaisy//src/sys/system.h ****     ~System() {}
 1548              		.loc 2 96 5 is_stmt 0 view .LVU427
 1549              	.LBE627:
 1550              	.LBB628:
 1551              	.LBI628:
 1552              		.file 11 "../../../../Desktop/DaisyExamples/libDaisy//src/per/sai.h"
   1:../../../../Desktop/DaisyExamples/libDaisy//src/per/sai.h **** #pragma once
   2:../../../../Desktop/DaisyExamples/libDaisy//src/per/sai.h **** #ifndef DSY_SAI_H
   3:../../../../Desktop/DaisyExamples/libDaisy//src/per/sai.h **** #define DSY_SAI_H
   4:../../../../Desktop/DaisyExamples/libDaisy//src/per/sai.h **** 
   5:../../../../Desktop/DaisyExamples/libDaisy//src/per/sai.h **** #include "daisy_core.h"
   6:../../../../Desktop/DaisyExamples/libDaisy//src/per/sai.h **** 
   7:../../../../Desktop/DaisyExamples/libDaisy//src/per/sai.h **** namespace daisy
   8:../../../../Desktop/DaisyExamples/libDaisy//src/per/sai.h **** {
   9:../../../../Desktop/DaisyExamples/libDaisy//src/per/sai.h **** /** 
  10:../../../../Desktop/DaisyExamples/libDaisy//src/per/sai.h ****  * Support for I2S Audio Protocol with different bit-depth, samplerate options
  11:../../../../Desktop/DaisyExamples/libDaisy//src/per/sai.h ****  * Allows for master or slave, as well as freedom of selecting direction, 
  12:../../../../Desktop/DaisyExamples/libDaisy//src/per/sai.h ****  * and other behavior for each peripheral, and block.
  13:../../../../Desktop/DaisyExamples/libDaisy//src/per/sai.h ****  * 
  14:../../../../Desktop/DaisyExamples/libDaisy//src/per/sai.h ****  * DMA Transfer commands must use buffers located within non-cached memory or use cache maintenance
  15:../../../../Desktop/DaisyExamples/libDaisy//src/per/sai.h ****  * To declare an unitialized global element in the DMA memory section:
  16:../../../../Desktop/DaisyExamples/libDaisy//src/per/sai.h ****  *    int32_t DSY_DMA_BUFFER_SECTOR my_buffer[96];
ARM GAS  C:\Users\pbant\AppData\Local\Temp\ccAmOMRv.s 			page 53


  17:../../../../Desktop/DaisyExamples/libDaisy//src/per/sai.h ****  *
  18:../../../../Desktop/DaisyExamples/libDaisy//src/per/sai.h ****  * Callback functions will be called once per half of the buffer. In the above example, 
  19:../../../../Desktop/DaisyExamples/libDaisy//src/per/sai.h ****  * the callback function would be called once for every 48 samples.
  20:../../../../Desktop/DaisyExamples/libDaisy//src/per/sai.h ****  * 
  21:../../../../Desktop/DaisyExamples/libDaisy//src/per/sai.h ****  * Use SAI Handle like this:
  22:../../../../Desktop/DaisyExamples/libDaisy//src/per/sai.h ****  * 
  23:../../../../Desktop/DaisyExamples/libDaisy//src/per/sai.h ****  *  SaiHandle::Config sai_config;
  24:../../../../Desktop/DaisyExamples/libDaisy//src/per/sai.h ****  *  sai_config.periph          = SaiHandle::Config::Peripheral::SAI_1;
  25:../../../../Desktop/DaisyExamples/libDaisy//src/per/sai.h ****  *  sai_config.sr              = SaiHandle::Config::SampleRate::SAI_48KHZ;
  26:../../../../Desktop/DaisyExamples/libDaisy//src/per/sai.h ****  *  sai_config.bit_depth       = SaiHandle::Config::BitDepth::SAI_24BIT;
  27:../../../../Desktop/DaisyExamples/libDaisy//src/per/sai.h ****  *  sai_config.a_sync          = SaiHandle::Config::Sync::MASTER;
  28:../../../../Desktop/DaisyExamples/libDaisy//src/per/sai.h ****  *  sai_config.b_sync          = SaiHandle::Config::Sync::SLAVE;
  29:../../../../Desktop/DaisyExamples/libDaisy//src/per/sai.h ****  *  sai_config.a_dir           = SaiHandle::Config::Direction::RECEIVE;
  30:../../../../Desktop/DaisyExamples/libDaisy//src/per/sai.h ****  *  sai_config.b_dir           = SaiHandle::Config::Direction::TRANSMIT;
  31:../../../../Desktop/DaisyExamples/libDaisy//src/per/sai.h ****  *  sai_config.pin_config.fs   = {DSY_GPIOE, 4};
  32:../../../../Desktop/DaisyExamples/libDaisy//src/per/sai.h ****  *  sai_config.pin_config.mclk = {DSY_GPIOE, 2};
  33:../../../../Desktop/DaisyExamples/libDaisy//src/per/sai.h ****  *  sai_config.pin_config.sck  = {DSY_GPIOE, 5};
  34:../../../../Desktop/DaisyExamples/libDaisy//src/per/sai.h ****  *  sai_config.pin_config.sa   = {DSY_GPIOE, 6};
  35:../../../../Desktop/DaisyExamples/libDaisy//src/per/sai.h ****  *  sai_config.pin_config.sb   = {DSY_GPIOE, 3};
  36:../../../../Desktop/DaisyExamples/libDaisy//src/per/sai.h ****  *  // Then Initialize
  37:../../../../Desktop/DaisyExamples/libDaisy//src/per/sai.h ****  *  SaiHandle sai;
  38:../../../../Desktop/DaisyExamples/libDaisy//src/per/sai.h ****  *  sai.Init(sai_config);
  39:../../../../Desktop/DaisyExamples/libDaisy//src/per/sai.h ****  *  // Now you can use it:
  40:../../../../Desktop/DaisyExamples/libDaisy//src/per/sai.h ****  *  sai.StartDma(. . .);
  41:../../../../Desktop/DaisyExamples/libDaisy//src/per/sai.h ****  */
  42:../../../../Desktop/DaisyExamples/libDaisy//src/per/sai.h **** class SaiHandle
  43:../../../../Desktop/DaisyExamples/libDaisy//src/per/sai.h **** {
  44:../../../../Desktop/DaisyExamples/libDaisy//src/per/sai.h ****   public:
  45:../../../../Desktop/DaisyExamples/libDaisy//src/per/sai.h ****     /** Contains settings for initialising an SAI Interface */
  46:../../../../Desktop/DaisyExamples/libDaisy//src/per/sai.h ****     struct Config
  47:../../../../Desktop/DaisyExamples/libDaisy//src/per/sai.h ****     {
  48:../../../../Desktop/DaisyExamples/libDaisy//src/per/sai.h ****         /** Specifies the internal peripheral to use (mapped to different hardware pins) */
  49:../../../../Desktop/DaisyExamples/libDaisy//src/per/sai.h ****         enum class Peripheral
  50:../../../../Desktop/DaisyExamples/libDaisy//src/per/sai.h ****         {
  51:../../../../Desktop/DaisyExamples/libDaisy//src/per/sai.h ****             SAI_1,
  52:../../../../Desktop/DaisyExamples/libDaisy//src/per/sai.h ****             SAI_2,
  53:../../../../Desktop/DaisyExamples/libDaisy//src/per/sai.h ****         };
  54:../../../../Desktop/DaisyExamples/libDaisy//src/per/sai.h **** 
  55:../../../../Desktop/DaisyExamples/libDaisy//src/per/sai.h ****         /** Rate at which samples will be streaming to/from the device. */
  56:../../../../Desktop/DaisyExamples/libDaisy//src/per/sai.h ****         enum class SampleRate
  57:../../../../Desktop/DaisyExamples/libDaisy//src/per/sai.h ****         {
  58:../../../../Desktop/DaisyExamples/libDaisy//src/per/sai.h ****             SAI_8KHZ,
  59:../../../../Desktop/DaisyExamples/libDaisy//src/per/sai.h ****             SAI_16KHZ,
  60:../../../../Desktop/DaisyExamples/libDaisy//src/per/sai.h ****             SAI_32KHZ,
  61:../../../../Desktop/DaisyExamples/libDaisy//src/per/sai.h ****             SAI_48KHZ,
  62:../../../../Desktop/DaisyExamples/libDaisy//src/per/sai.h ****             SAI_96KHZ,
  63:../../../../Desktop/DaisyExamples/libDaisy//src/per/sai.h ****         };
  64:../../../../Desktop/DaisyExamples/libDaisy//src/per/sai.h **** 
  65:../../../../Desktop/DaisyExamples/libDaisy//src/per/sai.h ****         /** Bit Depth that the hardware expects to be transferred to/from the device. */
  66:../../../../Desktop/DaisyExamples/libDaisy//src/per/sai.h ****         enum class BitDepth
  67:../../../../Desktop/DaisyExamples/libDaisy//src/per/sai.h ****         {
  68:../../../../Desktop/DaisyExamples/libDaisy//src/per/sai.h ****             SAI_16BIT,
  69:../../../../Desktop/DaisyExamples/libDaisy//src/per/sai.h ****             SAI_24BIT,
  70:../../../../Desktop/DaisyExamples/libDaisy//src/per/sai.h ****             SAI_32BIT,
  71:../../../../Desktop/DaisyExamples/libDaisy//src/per/sai.h ****         };
  72:../../../../Desktop/DaisyExamples/libDaisy//src/per/sai.h **** 
  73:../../../../Desktop/DaisyExamples/libDaisy//src/per/sai.h ****         /** Specifies whether a particular block is the master or the slave 
ARM GAS  C:\Users\pbant\AppData\Local\Temp\ccAmOMRv.s 			page 54


  74:../../../../Desktop/DaisyExamples/libDaisy//src/per/sai.h ****          ** If both are set to slave, no MCLK signal will be used, and it is
  75:../../../../Desktop/DaisyExamples/libDaisy//src/per/sai.h ****          ** expected that the codec will have its own xtal.
  76:../../../../Desktop/DaisyExamples/libDaisy//src/per/sai.h ****          */
  77:../../../../Desktop/DaisyExamples/libDaisy//src/per/sai.h ****         enum class Sync
  78:../../../../Desktop/DaisyExamples/libDaisy//src/per/sai.h ****         {
  79:../../../../Desktop/DaisyExamples/libDaisy//src/per/sai.h ****             MASTER,
  80:../../../../Desktop/DaisyExamples/libDaisy//src/per/sai.h ****             SLAVE,
  81:../../../../Desktop/DaisyExamples/libDaisy//src/per/sai.h ****         };
  82:../../../../Desktop/DaisyExamples/libDaisy//src/per/sai.h **** 
  83:../../../../Desktop/DaisyExamples/libDaisy//src/per/sai.h ****         /** Specifies the direction for each peripheral block. */
  84:../../../../Desktop/DaisyExamples/libDaisy//src/per/sai.h ****         enum class Direction
  85:../../../../Desktop/DaisyExamples/libDaisy//src/per/sai.h ****         {
  86:../../../../Desktop/DaisyExamples/libDaisy//src/per/sai.h ****             TRANSMIT,
  87:../../../../Desktop/DaisyExamples/libDaisy//src/per/sai.h ****             RECEIVE,
  88:../../../../Desktop/DaisyExamples/libDaisy//src/per/sai.h ****         };
  89:../../../../Desktop/DaisyExamples/libDaisy//src/per/sai.h **** 
  90:../../../../Desktop/DaisyExamples/libDaisy//src/per/sai.h ****         Peripheral periph;
  91:../../../../Desktop/DaisyExamples/libDaisy//src/per/sai.h ****         struct
  92:../../../../Desktop/DaisyExamples/libDaisy//src/per/sai.h ****         {
  93:../../../../Desktop/DaisyExamples/libDaisy//src/per/sai.h ****             dsy_gpio_pin mclk, fs, sck, sa, sb;
  94:../../../../Desktop/DaisyExamples/libDaisy//src/per/sai.h ****         } pin_config;
  95:../../../../Desktop/DaisyExamples/libDaisy//src/per/sai.h ****         SampleRate sr;
  96:../../../../Desktop/DaisyExamples/libDaisy//src/per/sai.h ****         BitDepth   bit_depth;
  97:../../../../Desktop/DaisyExamples/libDaisy//src/per/sai.h ****         Sync       a_sync, b_sync;
  98:../../../../Desktop/DaisyExamples/libDaisy//src/per/sai.h ****         Direction  a_dir, b_dir;
  99:../../../../Desktop/DaisyExamples/libDaisy//src/per/sai.h ****     };
 100:../../../../Desktop/DaisyExamples/libDaisy//src/per/sai.h **** 
 101:../../../../Desktop/DaisyExamples/libDaisy//src/per/sai.h ****     /** Return values for SAI functions */
 102:../../../../Desktop/DaisyExamples/libDaisy//src/per/sai.h ****     enum class Result
 103:../../../../Desktop/DaisyExamples/libDaisy//src/per/sai.h ****     {
 104:../../../../Desktop/DaisyExamples/libDaisy//src/per/sai.h ****         OK,
 105:../../../../Desktop/DaisyExamples/libDaisy//src/per/sai.h ****         ERR,
 106:../../../../Desktop/DaisyExamples/libDaisy//src/per/sai.h ****     };
 107:../../../../Desktop/DaisyExamples/libDaisy//src/per/sai.h **** 
 108:../../../../Desktop/DaisyExamples/libDaisy//src/per/sai.h ****     SaiHandle() : pimpl_(nullptr) {}
 1553              		.loc 11 108 5 is_stmt 1 view .LVU428
 1554              	.LBB629:
 1555              	.LBB630:
 1556              		.loc 11 108 33 is_stmt 0 view .LVU429
 1557 0010 C363     		str	r3, [r0, #60]
 1558              	.LVL68:
 1559              		.loc 11 108 33 view .LVU430
 1560              	.LBE630:
 1561              	.LBE629:
 1562              	.LBE628:
 1563              	.LBE632:
 1564              	.LBE634:
  11:TestTFT.cpp   **** 
 1565              		.loc 6 11 11 view .LVU431
 1566 0012 FFF7FEFF 		bl	__aeabi_atexit
 1567              	.LVL69:
 1568              	.LBB635:
 1569              	.LBI635:
 114:Frame.h       ****     }
 115:Frame.h       **** 
 116:Frame.h       ****     uint8_t m_R;
 117:Frame.h       ****     uint8_t m_G;
ARM GAS  C:\Users\pbant\AppData\Local\Temp\ccAmOMRv.s 			page 55


 118:Frame.h       ****     uint8_t m_B;
 119:Frame.h       ****     uint8_t m_Trans;
 120:Frame.h       **** };
 121:Frame.h       **** 
 122:Frame.h       **** //***********************************************************************************
 123:Frame.h       **** // RGB
 124:Frame.h       **** // Définition d'un pixel RGB 
 125:Frame.h       **** //*********************************************************************************** 
 126:Frame.h       **** struct RGB {
 127:Frame.h       ****     friend class cRBG_Frame;
 128:Frame.h       **** 	// --------------------------------------------------------------------------
 129:Frame.h       **** 	// Mise à jour d'un pixel et indication que le bloc a changé d'état
 130:Frame.h       ****     void inline set(cColor Color){
 131:Frame.h       ****         R = Color.m_R;
 132:Frame.h       ****         G = Color.m_G;
 133:Frame.h       ****         B = Color.m_B;
 134:Frame.h       ****         *m_pChange = true;
 135:Frame.h       ****     }
 136:Frame.h       **** 
 137:Frame.h       ****     // --------------------------------------------------------------------------
 138:Frame.h       **** 	// Lecture de la composante Rouge 
 139:Frame.h       ****     uint8_t inline getR(){
 140:Frame.h       ****         return R;
 141:Frame.h       ****     }
 142:Frame.h       ****     // --------------------------------------------------------------------------
 143:Frame.h       **** 	// Lecture de la composante Verte 
 144:Frame.h       ****     uint8_t inline getG(){
 145:Frame.h       ****         return G;
 146:Frame.h       ****     }
 147:Frame.h       **** 
 148:Frame.h       ****     // --------------------------------------------------------------------------
 149:Frame.h       **** 	// Lecture de la composante Bleue 
 150:Frame.h       ****     uint8_t inline getB(){
 151:Frame.h       ****         return B;
 152:Frame.h       ****     }
 153:Frame.h       **** 
 154:Frame.h       ****     // --------------------------------------------------------------------------
 155:Frame.h       ****     // Données de la classe
 156:Frame.h       ****     protected :
 157:Frame.h       ****     uint8_t R;          // Composante Rouge
 158:Frame.h       ****     uint8_t G;          // Composante Verte
 159:Frame.h       ****     uint8_t B;          // Composante Bleue
 160:Frame.h       ****     bool *m_pChange;    // Indicateur de changement d'état (pointe sur un tableau de bloc) 
 161:Frame.h       **** };
 162:Frame.h       **** 
 163:Frame.h       **** //***********************************************************************************
 164:Frame.h       **** // cRBG_Frame
 165:Frame.h       **** //  Gestion de la framme
 166:Frame.h       **** //*********************************************************************************** 
 167:Frame.h       **** 
 168:Frame.h       **** //   Pour le fonctionnement du DMA cette structure doit être instanciée dans la
 169:Frame.h       **** //   mémoire DMA_BUFFER_MEM_SECTION
 170:Frame.h       **** struct FIFO_Data {
 1570              		.loc 7 170 8 is_stmt 1 view .LVU432
 1571              	.LBB636:
 1572              		.loc 7 170 8 view .LVU433
 1573 0016 244B     		ldr	r3, .L38+12
ARM GAS  C:\Users\pbant\AppData\Local\Temp\ccAmOMRv.s 			page 56


 1574 0018 03F13201 		add	r1, r3, #50
 1575              	.LBE636:
 1576              	.LBE635:
  11:TestTFT.cpp   **** 
 1577              		.loc 6 11 11 is_stmt 0 view .LVU434
 1578 001c 1A46     		mov	r2, r3
 1579              	.L31:
 1580              	.LVL70:
 1581              	.LBB648:
 1582              	.LBB647:
 1583              	.LBB637:
 1584              	.LBI637:
  28:Frame.h       ****         m_Commande = TFT_CASET;
 1585              		.loc 7 28 5 is_stmt 1 view .LVU435
 1586              	.LBB638:
  29:Frame.h       ****     }
 1587              		.loc 7 29 9 view .LVU436
  29:Frame.h       ****     }
 1588              		.loc 7 29 20 is_stmt 0 view .LVU437
 1589 001e 2A20     		movs	r0, #42
 1590 0020 02F8050B 		strb	r0, [r2], #5
 1591              	.LVL71:
  29:Frame.h       ****     }
 1592              		.loc 7 29 20 view .LVU438
 1593              	.LBE638:
 1594              	.LBE637:
 1595              		.loc 7 170 8 is_stmt 1 view .LVU439
 1596              		.loc 7 170 8 view .LVU440
 1597 0024 8A42     		cmp	r2, r1
 1598 0026 FAD1     		bne	.L31
 1599 0028 1F4A     		ldr	r2, .L38+12
 1600              	.L32:
 1601              	.LVL72:
 1602              	.LBB639:
 1603              	.LBI639:
  58:Frame.h       ****         m_Commande = TFT_RASET;
 1604              		.loc 7 58 5 view .LVU441
 1605              	.LBB640:
  59:Frame.h       ****     }
 1606              		.loc 7 59 9 view .LVU442
 1607              	.LBE640:
 1608              	.LBE639:
 1609              		.loc 7 170 8 is_stmt 0 view .LVU443
 1610 002a 0532     		adds	r2, r2, #5
 1611              	.LVL73:
 1612              	.LBB643:
 1613              	.LBB641:
  59:Frame.h       ****     }
 1614              		.loc 7 59 20 view .LVU444
 1615 002c 2B20     		movs	r0, #43
 1616              	.LBE641:
 1617              	.LBE643:
 1618              		.loc 7 170 8 view .LVU445
 1619 002e 8A42     		cmp	r2, r1
 1620              	.LBB644:
 1621              	.LBB642:
  59:Frame.h       ****     }
ARM GAS  C:\Users\pbant\AppData\Local\Temp\ccAmOMRv.s 			page 57


 1622              		.loc 7 59 20 view .LVU446
 1623 0030 82F82D00 		strb	r0, [r2, #45]
 1624              	.LVL74:
  59:Frame.h       ****     }
 1625              		.loc 7 59 20 view .LVU447
 1626              	.LBE642:
 1627              	.LBE644:
 1628              		.loc 7 170 8 is_stmt 1 view .LVU448
 1629              		.loc 7 170 8 view .LVU449
 1630 0034 F9D1     		bne	.L32
 1631 0036 1D49     		ldr	r1, .L38+16
 1632              	.L33:
 1633              	.LVL75:
 1634              	.LBB645:
 1635              	.LBI645:
  89:Frame.h       ****         m_Commande = TFT_RAMWR;
 1636              		.loc 7 89 5 view .LVU450
 1637              	.LBB646:
  90:Frame.h       ****     }
 1638              		.loc 7 90 9 view .LVU451
  90:Frame.h       ****     }
 1639              		.loc 7 90 20 is_stmt 0 view .LVU452
 1640 0038 2C22     		movs	r2, #44
 1641 003a 83F86420 		strb	r2, [r3, #100]
 1642              	.LVL76:
  90:Frame.h       ****     }
 1643              		.loc 7 90 20 view .LVU453
 1644              	.LBE646:
 1645              	.LBE645:
 1646              		.loc 7 170 8 is_stmt 1 view .LVU454
 1647              		.loc 7 170 8 view .LVU455
 1648 003e 03F20163 		addw	r3, r3, #1537
 1649 0042 8B42     		cmp	r3, r1
 1650 0044 F8D1     		bne	.L33
 1651              	.LVL77:
 1652              		.loc 7 170 8 is_stmt 0 view .LVU456
 1653              	.LBE647:
 1654              	.LBE648:
 1655              	.LBB649:
 1656              	.LBI649:
 129:GFX.h         **** 
 1657              		.loc 8 129 5 is_stmt 1 view .LVU457
 1658              	.LBB650:
 1659              	.LBB651:
 1660              	.LBB652:
 1661              	.LBI652:
 171:Frame.h       ****     Cmd_CASET m_CmdCASET[SIZE_FIFO];
 172:Frame.h       ****     Cmd_RASET m_CmdRASET[SIZE_FIFO];
 173:Frame.h       ****     Cmd_RAMWR m_CmdRAWWR[SIZE_FIFO];
 174:Frame.h       **** };
 175:Frame.h       **** 
 176:Frame.h       **** // ================================
 177:Frame.h       **** // cRBG_Frame
 178:Frame.h       **** class cRBG_Frame  : protected TFT_SPI {
 179:Frame.h       ****     public:
 180:Frame.h       ****     // --------------------------------------------------------------------------
 181:Frame.h       ****     // Constructeur 
ARM GAS  C:\Users\pbant\AppData\Local\Temp\ccAmOMRv.s 			page 58


 182:Frame.h       ****     // FIFO_Data doit être instanciée dans la mémoire DMA_BUFFER_MEM_SECTION
 183:Frame.h       ****     cRBG_Frame(){
 1662              		.loc 7 183 5 view .LVU458
 1663              	.LBB653:
 1664              	.LBB654:
 1665              	.LBB655:
 1666              	.LBI655:
 1667              		.file 12 "TFT_SPI.h"
   1:TFT_SPI.h     **** //------------------------------------------------------------------------
   2:TFT_SPI.h     **** // Copyright(c) 2024 Dad Desing.
   3:TFT_SPI.h     **** //      Gestion d'une liaison SP vers un ecran 
   4:TFT_SPI.h     **** //------------------------------------------------------------------------
   5:TFT_SPI.h     **** #pragma once
   6:TFT_SPI.h     **** #include "daisy_seed.h"
   7:TFT_SPI.h     **** #include "per/spi.h"
   8:TFT_SPI.h     **** #include "per/gpio.h"
   9:TFT_SPI.h     **** #include "sys/system.h"
  10:TFT_SPI.h     **** #include "UserConfig.h"
  11:TFT_SPI.h     **** #include "ST7789_Defines.h"
  12:TFT_SPI.h     **** 
  13:TFT_SPI.h     **** using namespace daisy;
  14:TFT_SPI.h     **** extern DaisySeed hw;
  15:TFT_SPI.h     **** 
  16:TFT_SPI.h     **** enum class SPIMode {
  17:TFT_SPI.h     ****     Mode0,
  18:TFT_SPI.h     ****     Mode1,
  19:TFT_SPI.h     ****     Mode2,
  20:TFT_SPI.h     ****     Mode3
  21:TFT_SPI.h     **** };
  22:TFT_SPI.h     **** 
  23:TFT_SPI.h     **** enum class Rotation{
  24:TFT_SPI.h     ****     Degre_0,
  25:TFT_SPI.h     ****     Degre_90,
  26:TFT_SPI.h     ****     Degre_180,
  27:TFT_SPI.h     ****     Degre_270
  28:TFT_SPI.h     **** };
  29:TFT_SPI.h     **** 
  30:TFT_SPI.h     **** // Configuration des GPIO utilisés
  31:TFT_SPI.h     **** #define _TFT_SPI_PORT SpiHandle::Config::Peripheral::TFT_SPI_PORT
  32:TFT_SPI.h     **** #define _TFT_SPI_MODE SPIMode::TFT_SPI_MODE
  33:TFT_SPI.h     **** 
  34:TFT_SPI.h     **** // Configuration des GPIO utilisés
  35:TFT_SPI.h     **** #define _TFT_MOSI seed::TFT_MOSI
  36:TFT_SPI.h     **** #define _TFT_SCLK seed::TFT_SCLK
  37:TFT_SPI.h     **** #define _TFT_DC   seed::TFT_DC
  38:TFT_SPI.h     **** #define _TFT_RST  seed::TFT_RST 
  39:TFT_SPI.h     **** 
  40:TFT_SPI.h     **** //***********************************************************************************
  41:TFT_SPI.h     **** // TFT_SPI
  42:TFT_SPI.h     **** //  Gestion de la liaison SPI
  43:TFT_SPI.h     **** //*********************************************************************************** 
  44:TFT_SPI.h     **** class TFT_SPI {
 1668              		.loc 12 44 7 view .LVU459
 1669              	.LBB656:
 1670              	.LBI656:
 1671              		.file 13 "../../../../Desktop/DaisyExamples/libDaisy//src/per/spi.h"
   1:../../../../Desktop/DaisyExamples/libDaisy//src/per/spi.h **** #pragma once
ARM GAS  C:\Users\pbant\AppData\Local\Temp\ccAmOMRv.s 			page 59


   2:../../../../Desktop/DaisyExamples/libDaisy//src/per/spi.h **** #ifndef DSY_SPI_H
   3:../../../../Desktop/DaisyExamples/libDaisy//src/per/spi.h **** #define DSY_SPI_H
   4:../../../../Desktop/DaisyExamples/libDaisy//src/per/spi.h **** 
   5:../../../../Desktop/DaisyExamples/libDaisy//src/per/spi.h **** #include "daisy_core.h"
   6:../../../../Desktop/DaisyExamples/libDaisy//src/per/spi.h **** 
   7:../../../../Desktop/DaisyExamples/libDaisy//src/per/spi.h **** /* TODO:
   8:../../../../Desktop/DaisyExamples/libDaisy//src/per/spi.h **** - Add documentation
   9:../../../../Desktop/DaisyExamples/libDaisy//src/per/spi.h **** - Add IT
  10:../../../../Desktop/DaisyExamples/libDaisy//src/per/spi.h **** */
  11:../../../../Desktop/DaisyExamples/libDaisy//src/per/spi.h **** 
  12:../../../../Desktop/DaisyExamples/libDaisy//src/per/spi.h **** namespace daisy
  13:../../../../Desktop/DaisyExamples/libDaisy//src/per/spi.h **** {
  14:../../../../Desktop/DaisyExamples/libDaisy//src/per/spi.h **** /** @addtogroup serial
  15:../../../../Desktop/DaisyExamples/libDaisy//src/per/spi.h **** @{
  16:../../../../Desktop/DaisyExamples/libDaisy//src/per/spi.h **** */
  17:../../../../Desktop/DaisyExamples/libDaisy//src/per/spi.h **** 
  18:../../../../Desktop/DaisyExamples/libDaisy//src/per/spi.h **** /**  Handler for serial peripheral interface */
  19:../../../../Desktop/DaisyExamples/libDaisy//src/per/spi.h **** class SpiHandle
  20:../../../../Desktop/DaisyExamples/libDaisy//src/per/spi.h **** {
  21:../../../../Desktop/DaisyExamples/libDaisy//src/per/spi.h ****   public:
  22:../../../../Desktop/DaisyExamples/libDaisy//src/per/spi.h ****     struct Config
  23:../../../../Desktop/DaisyExamples/libDaisy//src/per/spi.h ****     {
  24:../../../../Desktop/DaisyExamples/libDaisy//src/per/spi.h ****         enum class Peripheral
  25:../../../../Desktop/DaisyExamples/libDaisy//src/per/spi.h ****         {
  26:../../../../Desktop/DaisyExamples/libDaisy//src/per/spi.h ****             SPI_1,
  27:../../../../Desktop/DaisyExamples/libDaisy//src/per/spi.h ****             SPI_2,
  28:../../../../Desktop/DaisyExamples/libDaisy//src/per/spi.h ****             SPI_3,
  29:../../../../Desktop/DaisyExamples/libDaisy//src/per/spi.h ****             SPI_4,
  30:../../../../Desktop/DaisyExamples/libDaisy//src/per/spi.h ****             SPI_5,
  31:../../../../Desktop/DaisyExamples/libDaisy//src/per/spi.h ****             SPI_6,
  32:../../../../Desktop/DaisyExamples/libDaisy//src/per/spi.h ****         };
  33:../../../../Desktop/DaisyExamples/libDaisy//src/per/spi.h **** 
  34:../../../../Desktop/DaisyExamples/libDaisy//src/per/spi.h ****         enum class Mode
  35:../../../../Desktop/DaisyExamples/libDaisy//src/per/spi.h ****         {
  36:../../../../Desktop/DaisyExamples/libDaisy//src/per/spi.h ****             MASTER,
  37:../../../../Desktop/DaisyExamples/libDaisy//src/per/spi.h ****             SLAVE,
  38:../../../../Desktop/DaisyExamples/libDaisy//src/per/spi.h ****         };
  39:../../../../Desktop/DaisyExamples/libDaisy//src/per/spi.h **** 
  40:../../../../Desktop/DaisyExamples/libDaisy//src/per/spi.h ****         enum class Direction
  41:../../../../Desktop/DaisyExamples/libDaisy//src/per/spi.h ****         {
  42:../../../../Desktop/DaisyExamples/libDaisy//src/per/spi.h ****             TWO_LINES,
  43:../../../../Desktop/DaisyExamples/libDaisy//src/per/spi.h ****             TWO_LINES_TX_ONLY,
  44:../../../../Desktop/DaisyExamples/libDaisy//src/per/spi.h ****             TWO_LINES_RX_ONLY,
  45:../../../../Desktop/DaisyExamples/libDaisy//src/per/spi.h ****             ONE_LINE,
  46:../../../../Desktop/DaisyExamples/libDaisy//src/per/spi.h ****         };
  47:../../../../Desktop/DaisyExamples/libDaisy//src/per/spi.h **** 
  48:../../../../Desktop/DaisyExamples/libDaisy//src/per/spi.h ****         enum class ClockPolarity
  49:../../../../Desktop/DaisyExamples/libDaisy//src/per/spi.h ****         {
  50:../../../../Desktop/DaisyExamples/libDaisy//src/per/spi.h ****             LOW,
  51:../../../../Desktop/DaisyExamples/libDaisy//src/per/spi.h ****             HIGH,
  52:../../../../Desktop/DaisyExamples/libDaisy//src/per/spi.h ****         };
  53:../../../../Desktop/DaisyExamples/libDaisy//src/per/spi.h **** 
  54:../../../../Desktop/DaisyExamples/libDaisy//src/per/spi.h ****         enum class ClockPhase
  55:../../../../Desktop/DaisyExamples/libDaisy//src/per/spi.h ****         {
  56:../../../../Desktop/DaisyExamples/libDaisy//src/per/spi.h ****             ONE_EDGE,
  57:../../../../Desktop/DaisyExamples/libDaisy//src/per/spi.h ****             TWO_EDGE,
  58:../../../../Desktop/DaisyExamples/libDaisy//src/per/spi.h ****         };
ARM GAS  C:\Users\pbant\AppData\Local\Temp\ccAmOMRv.s 			page 60


  59:../../../../Desktop/DaisyExamples/libDaisy//src/per/spi.h **** 
  60:../../../../Desktop/DaisyExamples/libDaisy//src/per/spi.h ****         enum class NSS
  61:../../../../Desktop/DaisyExamples/libDaisy//src/per/spi.h ****         {
  62:../../../../Desktop/DaisyExamples/libDaisy//src/per/spi.h ****             SOFT,
  63:../../../../Desktop/DaisyExamples/libDaisy//src/per/spi.h ****             HARD_INPUT,
  64:../../../../Desktop/DaisyExamples/libDaisy//src/per/spi.h ****             HARD_OUTPUT,
  65:../../../../Desktop/DaisyExamples/libDaisy//src/per/spi.h ****         };
  66:../../../../Desktop/DaisyExamples/libDaisy//src/per/spi.h **** 
  67:../../../../Desktop/DaisyExamples/libDaisy//src/per/spi.h ****         enum class BaudPrescaler
  68:../../../../Desktop/DaisyExamples/libDaisy//src/per/spi.h ****         {
  69:../../../../Desktop/DaisyExamples/libDaisy//src/per/spi.h ****             PS_2,
  70:../../../../Desktop/DaisyExamples/libDaisy//src/per/spi.h ****             PS_4,
  71:../../../../Desktop/DaisyExamples/libDaisy//src/per/spi.h ****             PS_8,
  72:../../../../Desktop/DaisyExamples/libDaisy//src/per/spi.h ****             PS_16,
  73:../../../../Desktop/DaisyExamples/libDaisy//src/per/spi.h ****             PS_32,
  74:../../../../Desktop/DaisyExamples/libDaisy//src/per/spi.h ****             PS_64,
  75:../../../../Desktop/DaisyExamples/libDaisy//src/per/spi.h ****             PS_128,
  76:../../../../Desktop/DaisyExamples/libDaisy//src/per/spi.h ****             PS_256,
  77:../../../../Desktop/DaisyExamples/libDaisy//src/per/spi.h ****         };
  78:../../../../Desktop/DaisyExamples/libDaisy//src/per/spi.h **** 
  79:../../../../Desktop/DaisyExamples/libDaisy//src/per/spi.h ****         struct
  80:../../../../Desktop/DaisyExamples/libDaisy//src/per/spi.h ****         {
  81:../../../../Desktop/DaisyExamples/libDaisy//src/per/spi.h ****             dsy_gpio_pin sclk; /**< & */
  82:../../../../Desktop/DaisyExamples/libDaisy//src/per/spi.h ****             dsy_gpio_pin miso; /**< & */
  83:../../../../Desktop/DaisyExamples/libDaisy//src/per/spi.h ****             dsy_gpio_pin mosi; /**< & */
  84:../../../../Desktop/DaisyExamples/libDaisy//src/per/spi.h ****             dsy_gpio_pin nss;  /**< & */
  85:../../../../Desktop/DaisyExamples/libDaisy//src/per/spi.h ****         } pin_config;
  86:../../../../Desktop/DaisyExamples/libDaisy//src/per/spi.h **** 
  87:../../../../Desktop/DaisyExamples/libDaisy//src/per/spi.h ****         Config()
  88:../../../../Desktop/DaisyExamples/libDaisy//src/per/spi.h ****         {
  89:../../../../Desktop/DaisyExamples/libDaisy//src/per/spi.h ****             // user must specify periph, mode, direction, nss, and pin_config
  90:../../../../Desktop/DaisyExamples/libDaisy//src/per/spi.h ****             datasize       = 8;
  91:../../../../Desktop/DaisyExamples/libDaisy//src/per/spi.h ****             clock_polarity = ClockPolarity::LOW;
  92:../../../../Desktop/DaisyExamples/libDaisy//src/per/spi.h ****             clock_phase    = ClockPhase::ONE_EDGE;
  93:../../../../Desktop/DaisyExamples/libDaisy//src/per/spi.h ****             baud_prescaler = BaudPrescaler::PS_8;
  94:../../../../Desktop/DaisyExamples/libDaisy//src/per/spi.h ****         }
  95:../../../../Desktop/DaisyExamples/libDaisy//src/per/spi.h **** 
  96:../../../../Desktop/DaisyExamples/libDaisy//src/per/spi.h ****         Peripheral    periph;
  97:../../../../Desktop/DaisyExamples/libDaisy//src/per/spi.h ****         Mode          mode;
  98:../../../../Desktop/DaisyExamples/libDaisy//src/per/spi.h ****         Direction     direction;
  99:../../../../Desktop/DaisyExamples/libDaisy//src/per/spi.h ****         unsigned long datasize;
 100:../../../../Desktop/DaisyExamples/libDaisy//src/per/spi.h ****         ClockPolarity clock_polarity;
 101:../../../../Desktop/DaisyExamples/libDaisy//src/per/spi.h ****         ClockPhase    clock_phase;
 102:../../../../Desktop/DaisyExamples/libDaisy//src/per/spi.h ****         NSS           nss;
 103:../../../../Desktop/DaisyExamples/libDaisy//src/per/spi.h ****         BaudPrescaler baud_prescaler;
 104:../../../../Desktop/DaisyExamples/libDaisy//src/per/spi.h ****     };
 105:../../../../Desktop/DaisyExamples/libDaisy//src/per/spi.h **** 
 106:../../../../Desktop/DaisyExamples/libDaisy//src/per/spi.h ****     SpiHandle() : pimpl_(nullptr) {}
 1672              		.loc 13 106 5 view .LVU460
 1673              		.loc 13 106 5 is_stmt 0 view .LVU461
 1674              	.LBE656:
 1675              	.LBB661:
 1676              	.LBI661:
  87:../../../../Desktop/DaisyExamples/libDaisy//src/per/spi.h ****         {
 1677              		.loc 13 87 9 is_stmt 1 view .LVU462
 1678              	.LBB662:
 1679              	.LBB663:
ARM GAS  C:\Users\pbant\AppData\Local\Temp\ccAmOMRv.s 			page 61


  90:../../../../Desktop/DaisyExamples/libDaisy//src/per/spi.h ****             clock_polarity = ClockPolarity::LOW;
 1680              		.loc 13 90 13 view .LVU463
  91:../../../../Desktop/DaisyExamples/libDaisy//src/per/spi.h ****             clock_phase    = ClockPhase::ONE_EDGE;
 1681              		.loc 13 91 13 view .LVU464
  92:../../../../Desktop/DaisyExamples/libDaisy//src/per/spi.h ****             baud_prescaler = BaudPrescaler::PS_8;
 1682              		.loc 13 92 13 view .LVU465
  93:../../../../Desktop/DaisyExamples/libDaisy//src/per/spi.h ****         }
 1683              		.loc 13 93 13 view .LVU466
  93:../../../../Desktop/DaisyExamples/libDaisy//src/per/spi.h ****         }
 1684              		.loc 13 93 13 is_stmt 0 view .LVU467
 1685              	.LBE663:
 1686              	.LBE662:
 1687              	.LBE661:
 1688              	.LBB672:
 1689              	.LBI672:
 1690              		.file 14 "../../../../Desktop/DaisyExamples/libDaisy//src/per/gpio.h"
   1:../../../../Desktop/DaisyExamples/libDaisy//src/per/gpio.h **** #pragma once
   2:../../../../Desktop/DaisyExamples/libDaisy//src/per/gpio.h **** #ifndef DSY_GPIO_H
   3:../../../../Desktop/DaisyExamples/libDaisy//src/per/gpio.h **** #define DSY_GPIO_H
   4:../../../../Desktop/DaisyExamples/libDaisy//src/per/gpio.h **** #include "daisy_core.h"
   5:../../../../Desktop/DaisyExamples/libDaisy//src/per/gpio.h **** 
   6:../../../../Desktop/DaisyExamples/libDaisy//src/per/gpio.h **** #ifdef __cplusplus
   7:../../../../Desktop/DaisyExamples/libDaisy//src/per/gpio.h **** 
   8:../../../../Desktop/DaisyExamples/libDaisy//src/per/gpio.h **** namespace daisy
   9:../../../../Desktop/DaisyExamples/libDaisy//src/per/gpio.h **** {
  10:../../../../Desktop/DaisyExamples/libDaisy//src/per/gpio.h **** /** @brief General Purpose I/O control 
  11:../../../../Desktop/DaisyExamples/libDaisy//src/per/gpio.h ****  *  @details peripheral control over a single GPIO
  12:../../../../Desktop/DaisyExamples/libDaisy//src/per/gpio.h ****  *  @ingroup peripheral
  13:../../../../Desktop/DaisyExamples/libDaisy//src/per/gpio.h ****  *   
  14:../../../../Desktop/DaisyExamples/libDaisy//src/per/gpio.h ****  *  Button Input (with internal Pullup resistor)
  15:../../../../Desktop/DaisyExamples/libDaisy//src/per/gpio.h ****  *  @include GPIO_Input.cpp 
  16:../../../../Desktop/DaisyExamples/libDaisy//src/per/gpio.h ****  * 
  17:../../../../Desktop/DaisyExamples/libDaisy//src/per/gpio.h ****  *  Output Example (perfect for blinking an LED)
  18:../../../../Desktop/DaisyExamples/libDaisy//src/per/gpio.h ****  *  @include GPIO_Output.cpp
  19:../../../../Desktop/DaisyExamples/libDaisy//src/per/gpio.h ****  * 
  20:../../../../Desktop/DaisyExamples/libDaisy//src/per/gpio.h **** */
  21:../../../../Desktop/DaisyExamples/libDaisy//src/per/gpio.h **** class GPIO
  22:../../../../Desktop/DaisyExamples/libDaisy//src/per/gpio.h **** {
  23:../../../../Desktop/DaisyExamples/libDaisy//src/per/gpio.h ****   public:
  24:../../../../Desktop/DaisyExamples/libDaisy//src/per/gpio.h ****     /** @brief Mode of operation for the specified GPIO */
  25:../../../../Desktop/DaisyExamples/libDaisy//src/per/gpio.h ****     enum class Mode
  26:../../../../Desktop/DaisyExamples/libDaisy//src/per/gpio.h ****     {
  27:../../../../Desktop/DaisyExamples/libDaisy//src/per/gpio.h ****         INPUT,     /**< Input for reading state of pin */
  28:../../../../Desktop/DaisyExamples/libDaisy//src/per/gpio.h ****         OUTPUT,    /**< Output w/ push-pull configuration */
  29:../../../../Desktop/DaisyExamples/libDaisy//src/per/gpio.h ****         OUTPUT_OD, /**< Output w/ open-drain configuration */
  30:../../../../Desktop/DaisyExamples/libDaisy//src/per/gpio.h ****         ANALOG,    /**< Analog for connection to ADC or DAC peripheral */
  31:../../../../Desktop/DaisyExamples/libDaisy//src/per/gpio.h ****     };
  32:../../../../Desktop/DaisyExamples/libDaisy//src/per/gpio.h **** 
  33:../../../../Desktop/DaisyExamples/libDaisy//src/per/gpio.h ****     /** @brief Configures whether an internal Pull up or Pull down resistor is used. 
  34:../../../../Desktop/DaisyExamples/libDaisy//src/per/gpio.h ****      *  
  35:../../../../Desktop/DaisyExamples/libDaisy//src/per/gpio.h ****      * Internal Pull up/down resistors are typically 40k ohms, and will be between
  36:../../../../Desktop/DaisyExamples/libDaisy//src/per/gpio.h ****      * 30k and 50k
  37:../../../../Desktop/DaisyExamples/libDaisy//src/per/gpio.h ****      * 
  38:../../../../Desktop/DaisyExamples/libDaisy//src/per/gpio.h ****      * When the Pin is configured in Analog mode, the pull up/down resistors are
  39:../../../../Desktop/DaisyExamples/libDaisy//src/per/gpio.h ****      * disabled by hardware. 
  40:../../../../Desktop/DaisyExamples/libDaisy//src/per/gpio.h ****      */
  41:../../../../Desktop/DaisyExamples/libDaisy//src/per/gpio.h ****     enum class Pull
ARM GAS  C:\Users\pbant\AppData\Local\Temp\ccAmOMRv.s 			page 62


  42:../../../../Desktop/DaisyExamples/libDaisy//src/per/gpio.h ****     {
  43:../../../../Desktop/DaisyExamples/libDaisy//src/per/gpio.h ****         NOPULL,   /**< No pull up resistor */
  44:../../../../Desktop/DaisyExamples/libDaisy//src/per/gpio.h ****         PULLUP,   /**< Internal pull up enabled */
  45:../../../../Desktop/DaisyExamples/libDaisy//src/per/gpio.h ****         PULLDOWN, /**< Internal pull down enabled*/
  46:../../../../Desktop/DaisyExamples/libDaisy//src/per/gpio.h ****     };
  47:../../../../Desktop/DaisyExamples/libDaisy//src/per/gpio.h **** 
  48:../../../../Desktop/DaisyExamples/libDaisy//src/per/gpio.h ****     /** @brief Output speed controls the drive strength, and slew rate of the pin */
  49:../../../../Desktop/DaisyExamples/libDaisy//src/per/gpio.h ****     enum class Speed
  50:../../../../Desktop/DaisyExamples/libDaisy//src/per/gpio.h ****     {
  51:../../../../Desktop/DaisyExamples/libDaisy//src/per/gpio.h ****         LOW,
  52:../../../../Desktop/DaisyExamples/libDaisy//src/per/gpio.h ****         MEDIUM,
  53:../../../../Desktop/DaisyExamples/libDaisy//src/per/gpio.h ****         HIGH,
  54:../../../../Desktop/DaisyExamples/libDaisy//src/per/gpio.h ****         VERY_HIGH,
  55:../../../../Desktop/DaisyExamples/libDaisy//src/per/gpio.h ****     };
  56:../../../../Desktop/DaisyExamples/libDaisy//src/per/gpio.h **** 
  57:../../../../Desktop/DaisyExamples/libDaisy//src/per/gpio.h ****     /** @brief Configuration for a given GPIO */
  58:../../../../Desktop/DaisyExamples/libDaisy//src/per/gpio.h ****     struct Config
  59:../../../../Desktop/DaisyExamples/libDaisy//src/per/gpio.h ****     {
  60:../../../../Desktop/DaisyExamples/libDaisy//src/per/gpio.h ****         Pin   pin;
  61:../../../../Desktop/DaisyExamples/libDaisy//src/per/gpio.h ****         Mode  mode;
  62:../../../../Desktop/DaisyExamples/libDaisy//src/per/gpio.h ****         Pull  pull;
  63:../../../../Desktop/DaisyExamples/libDaisy//src/per/gpio.h ****         Speed speed;
  64:../../../../Desktop/DaisyExamples/libDaisy//src/per/gpio.h **** 
  65:../../../../Desktop/DaisyExamples/libDaisy//src/per/gpio.h ****         /** Constructor with no arguments will prepare an invalid GPIO set as
  66:../../../../Desktop/DaisyExamples/libDaisy//src/per/gpio.h ****          *  an input, with no pullup. 
  67:../../../../Desktop/DaisyExamples/libDaisy//src/per/gpio.h ****          */
  68:../../../../Desktop/DaisyExamples/libDaisy//src/per/gpio.h ****         Config()
  69:../../../../Desktop/DaisyExamples/libDaisy//src/per/gpio.h ****         : pin(), mode(Mode::INPUT), pull(Pull::NOPULL), speed(Speed::LOW)
  70:../../../../Desktop/DaisyExamples/libDaisy//src/per/gpio.h ****         {
  71:../../../../Desktop/DaisyExamples/libDaisy//src/per/gpio.h ****         }
  72:../../../../Desktop/DaisyExamples/libDaisy//src/per/gpio.h ****     };
  73:../../../../Desktop/DaisyExamples/libDaisy//src/per/gpio.h **** 
  74:../../../../Desktop/DaisyExamples/libDaisy//src/per/gpio.h ****     GPIO() {}
 1691              		.loc 14 74 5 is_stmt 1 view .LVU468
 1692              	.LBB673:
 1693              	.LBB674:
 1694              	.LBI674:
  68:../../../../Desktop/DaisyExamples/libDaisy//src/per/gpio.h ****         : pin(), mode(Mode::INPUT), pull(Pull::NOPULL), speed(Speed::LOW)
 1695              		.loc 14 68 9 view .LVU469
 1696              	.LBB675:
 1697              	.LBB676:
 1698              	.LBB677:
 1699              	.LBI677:
 1700              		.file 15 "../../../../Desktop/DaisyExamples/libDaisy//src/daisy_core.h"
   1:../../../../Desktop/DaisyExamples/libDaisy//src/daisy_core.h **** #pragma once
   2:../../../../Desktop/DaisyExamples/libDaisy//src/daisy_core.h **** #ifndef DSY_CORE_HW_H
   3:../../../../Desktop/DaisyExamples/libDaisy//src/daisy_core.h **** #define DSY_CORE_HW_H /**< & */
   4:../../../../Desktop/DaisyExamples/libDaisy//src/daisy_core.h **** #include <stdint.h>
   5:../../../../Desktop/DaisyExamples/libDaisy//src/daisy_core.h **** #include <stdlib.h>
   6:../../../../Desktop/DaisyExamples/libDaisy//src/daisy_core.h **** 
   7:../../../../Desktop/DaisyExamples/libDaisy//src/daisy_core.h **** #if defined(_MSC_VER)
   8:../../../../Desktop/DaisyExamples/libDaisy//src/daisy_core.h **** #define FORCE_INLINE __forceinline /**< & */
   9:../../../../Desktop/DaisyExamples/libDaisy//src/daisy_core.h **** #elif defined(__clang__)
  10:../../../../Desktop/DaisyExamples/libDaisy//src/daisy_core.h **** #define FORCE_INLINE inline __attribute__((always_inline)) /**< & */
  11:../../../../Desktop/DaisyExamples/libDaisy//src/daisy_core.h **** #pragma clang diagnostic ignored "-Wduplicate-decl-specifier"
  12:../../../../Desktop/DaisyExamples/libDaisy//src/daisy_core.h **** #elif defined(__GNUC__)
  13:../../../../Desktop/DaisyExamples/libDaisy//src/daisy_core.h **** #define FORCE_INLINE inline __attribute__((always_inline)) /**< & */
ARM GAS  C:\Users\pbant\AppData\Local\Temp\ccAmOMRv.s 			page 63


  14:../../../../Desktop/DaisyExamples/libDaisy//src/daisy_core.h **** #else
  15:../../../../Desktop/DaisyExamples/libDaisy//src/daisy_core.h **** #error unknown compiler
  16:../../../../Desktop/DaisyExamples/libDaisy//src/daisy_core.h **** #endif
  17:../../../../Desktop/DaisyExamples/libDaisy//src/daisy_core.h **** 
  18:../../../../Desktop/DaisyExamples/libDaisy//src/daisy_core.h **** /** @addtogroup utility
  19:../../../../Desktop/DaisyExamples/libDaisy//src/daisy_core.h ****     @{
  20:../../../../Desktop/DaisyExamples/libDaisy//src/daisy_core.h **** */
  21:../../../../Desktop/DaisyExamples/libDaisy//src/daisy_core.h **** 
  22:../../../../Desktop/DaisyExamples/libDaisy//src/daisy_core.h **** /** Macro for area of memory that is configured as cacheless
  23:../../../../Desktop/DaisyExamples/libDaisy//src/daisy_core.h **** This should be used primarily for DMA buffers, and the like.
  24:../../../../Desktop/DaisyExamples/libDaisy//src/daisy_core.h **** */
  25:../../../../Desktop/DaisyExamples/libDaisy//src/daisy_core.h **** #define DMA_BUFFER_MEM_SECTION __attribute__((section(".sram1_bss")))
  26:../../../../Desktop/DaisyExamples/libDaisy//src/daisy_core.h **** /** 
  27:../../../../Desktop/DaisyExamples/libDaisy//src/daisy_core.h **** THE DTCM RAM section is also non-cached. However, is not suitable 
  28:../../../../Desktop/DaisyExamples/libDaisy//src/daisy_core.h **** for DMA transfers. Performance is on par with internal SRAM w/ 
  29:../../../../Desktop/DaisyExamples/libDaisy//src/daisy_core.h **** cache enabled.
  30:../../../../Desktop/DaisyExamples/libDaisy//src/daisy_core.h **** */
  31:../../../../Desktop/DaisyExamples/libDaisy//src/daisy_core.h **** #define DTCM_MEM_SECTION __attribute__((section(".dtcmram_bss")))
  32:../../../../Desktop/DaisyExamples/libDaisy//src/daisy_core.h **** 
  33:../../../../Desktop/DaisyExamples/libDaisy//src/daisy_core.h **** #define FBIPMAX 0.999985f             /**< close to 1.0f-LSB at 16 bit */
  34:../../../../Desktop/DaisyExamples/libDaisy//src/daisy_core.h **** #define FBIPMIN (-FBIPMAX)            /**< - (1 - LSB) */
  35:../../../../Desktop/DaisyExamples/libDaisy//src/daisy_core.h **** #define U82F_SCALE 0.0078740f         /**< 1 / 127 */
  36:../../../../Desktop/DaisyExamples/libDaisy//src/daisy_core.h **** #define F2U8_SCALE 127.0f             /**< 128 - 1 */
  37:../../../../Desktop/DaisyExamples/libDaisy//src/daisy_core.h **** #define S82F_SCALE 0.0078125f         /**< 1 / (2**7) */
  38:../../../../Desktop/DaisyExamples/libDaisy//src/daisy_core.h **** #define F2S8_SCALE 127.0f             /**< (2 ** 7) - 1 */
  39:../../../../Desktop/DaisyExamples/libDaisy//src/daisy_core.h **** #define S162F_SCALE 3.0517578125e-05f /**< 1 / (2** 15) */
  40:../../../../Desktop/DaisyExamples/libDaisy//src/daisy_core.h **** #define F2S16_SCALE 32767.0f          /**< (2 ** 15) - 1 */
  41:../../../../Desktop/DaisyExamples/libDaisy//src/daisy_core.h **** #define F2S24_SCALE 8388608.0f        /**< 2 ** 23 */
  42:../../../../Desktop/DaisyExamples/libDaisy//src/daisy_core.h **** #define S242F_SCALE 1.192092896e-07f  /**< 1 / (2 ** 23) */
  43:../../../../Desktop/DaisyExamples/libDaisy//src/daisy_core.h **** #define S24SIGN 0x800000              /**< 2 ** 23 */
  44:../../../../Desktop/DaisyExamples/libDaisy//src/daisy_core.h **** #define S322F_SCALE 4.6566129e-10f    /**< 1 / (2** 31) */
  45:../../../../Desktop/DaisyExamples/libDaisy//src/daisy_core.h **** #define F2S32_SCALE 2147483647.f      /**< (2 ** 31) - 1 */
  46:../../../../Desktop/DaisyExamples/libDaisy//src/daisy_core.h **** 
  47:../../../../Desktop/DaisyExamples/libDaisy//src/daisy_core.h **** 
  48:../../../../Desktop/DaisyExamples/libDaisy//src/daisy_core.h **** /** shorthand macro for simplifying the reading of the left 
  49:../../../../Desktop/DaisyExamples/libDaisy//src/daisy_core.h ****  *  channel of a non-interleaved output buffer named out */
  50:../../../../Desktop/DaisyExamples/libDaisy//src/daisy_core.h **** #define OUT_L out[0]
  51:../../../../Desktop/DaisyExamples/libDaisy//src/daisy_core.h **** 
  52:../../../../Desktop/DaisyExamples/libDaisy//src/daisy_core.h **** /** shorthand macro for simplifying the reading of the right 
  53:../../../../Desktop/DaisyExamples/libDaisy//src/daisy_core.h ****  *  channel of a non-interleaved output buffer named out */
  54:../../../../Desktop/DaisyExamples/libDaisy//src/daisy_core.h **** #define OUT_R out[1]
  55:../../../../Desktop/DaisyExamples/libDaisy//src/daisy_core.h **** 
  56:../../../../Desktop/DaisyExamples/libDaisy//src/daisy_core.h **** /** shorthand macro for simplifying the reading of the left 
  57:../../../../Desktop/DaisyExamples/libDaisy//src/daisy_core.h ****  *  channel of a non-interleaved input buffer named in */
  58:../../../../Desktop/DaisyExamples/libDaisy//src/daisy_core.h **** #define IN_L in[0]
  59:../../../../Desktop/DaisyExamples/libDaisy//src/daisy_core.h **** 
  60:../../../../Desktop/DaisyExamples/libDaisy//src/daisy_core.h **** /** shorthand macro for simplifying the reading of the right 
  61:../../../../Desktop/DaisyExamples/libDaisy//src/daisy_core.h ****  *  channel of a non-interleaved input buffer named in */
  62:../../../../Desktop/DaisyExamples/libDaisy//src/daisy_core.h **** #define IN_R in[1]
  63:../../../../Desktop/DaisyExamples/libDaisy//src/daisy_core.h **** 
  64:../../../../Desktop/DaisyExamples/libDaisy//src/daisy_core.h **** /** 
  65:../../../../Desktop/DaisyExamples/libDaisy//src/daisy_core.h ****     Computes cube.
  66:../../../../Desktop/DaisyExamples/libDaisy//src/daisy_core.h ****     \param x Number to be cubed
  67:../../../../Desktop/DaisyExamples/libDaisy//src/daisy_core.h ****     \return x ^ 3
  68:../../../../Desktop/DaisyExamples/libDaisy//src/daisy_core.h **** */
  69:../../../../Desktop/DaisyExamples/libDaisy//src/daisy_core.h **** FORCE_INLINE float cube(float x)
  70:../../../../Desktop/DaisyExamples/libDaisy//src/daisy_core.h **** {
ARM GAS  C:\Users\pbant\AppData\Local\Temp\ccAmOMRv.s 			page 64


  71:../../../../Desktop/DaisyExamples/libDaisy//src/daisy_core.h ****     return (x * x) * x;
  72:../../../../Desktop/DaisyExamples/libDaisy//src/daisy_core.h **** }
  73:../../../../Desktop/DaisyExamples/libDaisy//src/daisy_core.h **** 
  74:../../../../Desktop/DaisyExamples/libDaisy//src/daisy_core.h **** /** 
  75:../../../../Desktop/DaisyExamples/libDaisy//src/daisy_core.h ****     Converts unsigned 8-bit to float
  76:../../../../Desktop/DaisyExamples/libDaisy//src/daisy_core.h ****     \param x Number to be scaled.
  77:../../../../Desktop/DaisyExamples/libDaisy//src/daisy_core.h ****     \return Scaled number.
  78:../../../../Desktop/DaisyExamples/libDaisy//src/daisy_core.h **** */
  79:../../../../Desktop/DaisyExamples/libDaisy//src/daisy_core.h **** FORCE_INLINE float u82f(uint8_t x)
  80:../../../../Desktop/DaisyExamples/libDaisy//src/daisy_core.h **** {
  81:../../../../Desktop/DaisyExamples/libDaisy//src/daisy_core.h ****     return ((float)x - 127.f) * U82F_SCALE;
  82:../../../../Desktop/DaisyExamples/libDaisy//src/daisy_core.h **** }
  83:../../../../Desktop/DaisyExamples/libDaisy//src/daisy_core.h **** 
  84:../../../../Desktop/DaisyExamples/libDaisy//src/daisy_core.h **** /**
  85:../../../../Desktop/DaisyExamples/libDaisy//src/daisy_core.h ****     Converts float to unsigned 8-bit
  86:../../../../Desktop/DaisyExamples/libDaisy//src/daisy_core.h **** */
  87:../../../../Desktop/DaisyExamples/libDaisy//src/daisy_core.h **** FORCE_INLINE uint8_t f2u8(float x)
  88:../../../../Desktop/DaisyExamples/libDaisy//src/daisy_core.h **** {
  89:../../../../Desktop/DaisyExamples/libDaisy//src/daisy_core.h ****     x = x <= FBIPMIN ? FBIPMIN : x;
  90:../../../../Desktop/DaisyExamples/libDaisy//src/daisy_core.h ****     x = x >= FBIPMAX ? FBIPMAX : x;
  91:../../../../Desktop/DaisyExamples/libDaisy//src/daisy_core.h ****     return (uint8_t)((x * F2U8_SCALE) + F2U8_SCALE);
  92:../../../../Desktop/DaisyExamples/libDaisy//src/daisy_core.h **** }
  93:../../../../Desktop/DaisyExamples/libDaisy//src/daisy_core.h **** 
  94:../../../../Desktop/DaisyExamples/libDaisy//src/daisy_core.h **** 
  95:../../../../Desktop/DaisyExamples/libDaisy//src/daisy_core.h **** /** 
  96:../../../../Desktop/DaisyExamples/libDaisy//src/daisy_core.h ****     Converts Signed 8-bit to float
  97:../../../../Desktop/DaisyExamples/libDaisy//src/daisy_core.h ****     \param x Number to be scaled.
  98:../../../../Desktop/DaisyExamples/libDaisy//src/daisy_core.h ****     \return Scaled number.
  99:../../../../Desktop/DaisyExamples/libDaisy//src/daisy_core.h **** */
 100:../../../../Desktop/DaisyExamples/libDaisy//src/daisy_core.h **** FORCE_INLINE float s82f(int8_t x)
 101:../../../../Desktop/DaisyExamples/libDaisy//src/daisy_core.h **** {
 102:../../../../Desktop/DaisyExamples/libDaisy//src/daisy_core.h ****     return (float)x * S82F_SCALE;
 103:../../../../Desktop/DaisyExamples/libDaisy//src/daisy_core.h **** }
 104:../../../../Desktop/DaisyExamples/libDaisy//src/daisy_core.h **** 
 105:../../../../Desktop/DaisyExamples/libDaisy//src/daisy_core.h **** /**
 106:../../../../Desktop/DaisyExamples/libDaisy//src/daisy_core.h ****     Converts float to Signed 8-bit
 107:../../../../Desktop/DaisyExamples/libDaisy//src/daisy_core.h **** */
 108:../../../../Desktop/DaisyExamples/libDaisy//src/daisy_core.h **** FORCE_INLINE int8_t f2s8(float x)
 109:../../../../Desktop/DaisyExamples/libDaisy//src/daisy_core.h **** {
 110:../../../../Desktop/DaisyExamples/libDaisy//src/daisy_core.h ****     x = x <= FBIPMIN ? FBIPMIN : x;
 111:../../../../Desktop/DaisyExamples/libDaisy//src/daisy_core.h ****     x = x >= FBIPMAX ? FBIPMAX : x;
 112:../../../../Desktop/DaisyExamples/libDaisy//src/daisy_core.h ****     return (int32_t)(x * F2S8_SCALE);
 113:../../../../Desktop/DaisyExamples/libDaisy//src/daisy_core.h **** }
 114:../../../../Desktop/DaisyExamples/libDaisy//src/daisy_core.h **** 
 115:../../../../Desktop/DaisyExamples/libDaisy//src/daisy_core.h **** /** 
 116:../../../../Desktop/DaisyExamples/libDaisy//src/daisy_core.h ****     Converts Signed 16-bit to float
 117:../../../../Desktop/DaisyExamples/libDaisy//src/daisy_core.h ****     \param x Number to be scaled.
 118:../../../../Desktop/DaisyExamples/libDaisy//src/daisy_core.h ****     \return Scaled number.
 119:../../../../Desktop/DaisyExamples/libDaisy//src/daisy_core.h **** */
 120:../../../../Desktop/DaisyExamples/libDaisy//src/daisy_core.h **** FORCE_INLINE float s162f(int16_t x)
 121:../../../../Desktop/DaisyExamples/libDaisy//src/daisy_core.h **** {
 122:../../../../Desktop/DaisyExamples/libDaisy//src/daisy_core.h ****     return (float)x * S162F_SCALE;
 123:../../../../Desktop/DaisyExamples/libDaisy//src/daisy_core.h **** }
 124:../../../../Desktop/DaisyExamples/libDaisy//src/daisy_core.h **** 
 125:../../../../Desktop/DaisyExamples/libDaisy//src/daisy_core.h **** /**
 126:../../../../Desktop/DaisyExamples/libDaisy//src/daisy_core.h ****     Converts float to Signed 16-bit
 127:../../../../Desktop/DaisyExamples/libDaisy//src/daisy_core.h **** */
ARM GAS  C:\Users\pbant\AppData\Local\Temp\ccAmOMRv.s 			page 65


 128:../../../../Desktop/DaisyExamples/libDaisy//src/daisy_core.h **** FORCE_INLINE int16_t f2s16(float x)
 129:../../../../Desktop/DaisyExamples/libDaisy//src/daisy_core.h **** {
 130:../../../../Desktop/DaisyExamples/libDaisy//src/daisy_core.h ****     x = x <= FBIPMIN ? FBIPMIN : x;
 131:../../../../Desktop/DaisyExamples/libDaisy//src/daisy_core.h ****     x = x >= FBIPMAX ? FBIPMAX : x;
 132:../../../../Desktop/DaisyExamples/libDaisy//src/daisy_core.h ****     return (int32_t)(x * F2S16_SCALE);
 133:../../../../Desktop/DaisyExamples/libDaisy//src/daisy_core.h **** }
 134:../../../../Desktop/DaisyExamples/libDaisy//src/daisy_core.h **** 
 135:../../../../Desktop/DaisyExamples/libDaisy//src/daisy_core.h **** /**
 136:../../../../Desktop/DaisyExamples/libDaisy//src/daisy_core.h ****     Converts Signed 24-bit to float
 137:../../../../Desktop/DaisyExamples/libDaisy//src/daisy_core.h ****  */
 138:../../../../Desktop/DaisyExamples/libDaisy//src/daisy_core.h **** FORCE_INLINE float s242f(int32_t x)
 139:../../../../Desktop/DaisyExamples/libDaisy//src/daisy_core.h **** {
 140:../../../../Desktop/DaisyExamples/libDaisy//src/daisy_core.h ****     x = (x ^ S24SIGN) - S24SIGN; //sign extend aka ((x<<8)>>8)
 141:../../../../Desktop/DaisyExamples/libDaisy//src/daisy_core.h ****     return (float)x * S242F_SCALE;
 142:../../../../Desktop/DaisyExamples/libDaisy//src/daisy_core.h **** }
 143:../../../../Desktop/DaisyExamples/libDaisy//src/daisy_core.h **** /**
 144:../../../../Desktop/DaisyExamples/libDaisy//src/daisy_core.h ****     Converts float to Signed 24-bit
 145:../../../../Desktop/DaisyExamples/libDaisy//src/daisy_core.h ****  */
 146:../../../../Desktop/DaisyExamples/libDaisy//src/daisy_core.h **** FORCE_INLINE int32_t f2s24(float x)
 147:../../../../Desktop/DaisyExamples/libDaisy//src/daisy_core.h **** {
 148:../../../../Desktop/DaisyExamples/libDaisy//src/daisy_core.h ****     x = x <= FBIPMIN ? FBIPMIN : x;
 149:../../../../Desktop/DaisyExamples/libDaisy//src/daisy_core.h ****     x = x >= FBIPMAX ? FBIPMAX : x;
 150:../../../../Desktop/DaisyExamples/libDaisy//src/daisy_core.h ****     return (int32_t)(x * F2S24_SCALE);
 151:../../../../Desktop/DaisyExamples/libDaisy//src/daisy_core.h **** }
 152:../../../../Desktop/DaisyExamples/libDaisy//src/daisy_core.h **** 
 153:../../../../Desktop/DaisyExamples/libDaisy//src/daisy_core.h **** /**
 154:../../../../Desktop/DaisyExamples/libDaisy//src/daisy_core.h ****     Converts Signed 32-bit to float
 155:../../../../Desktop/DaisyExamples/libDaisy//src/daisy_core.h ****  */
 156:../../../../Desktop/DaisyExamples/libDaisy//src/daisy_core.h **** FORCE_INLINE float s322f(int32_t x)
 157:../../../../Desktop/DaisyExamples/libDaisy//src/daisy_core.h **** {
 158:../../../../Desktop/DaisyExamples/libDaisy//src/daisy_core.h ****     return (float)x * S322F_SCALE;
 159:../../../../Desktop/DaisyExamples/libDaisy//src/daisy_core.h **** }
 160:../../../../Desktop/DaisyExamples/libDaisy//src/daisy_core.h **** /**
 161:../../../../Desktop/DaisyExamples/libDaisy//src/daisy_core.h ****     Converts float to Signed 24-bit
 162:../../../../Desktop/DaisyExamples/libDaisy//src/daisy_core.h ****  */
 163:../../../../Desktop/DaisyExamples/libDaisy//src/daisy_core.h **** FORCE_INLINE int32_t f2s32(float x)
 164:../../../../Desktop/DaisyExamples/libDaisy//src/daisy_core.h **** {
 165:../../../../Desktop/DaisyExamples/libDaisy//src/daisy_core.h ****     x = x <= FBIPMIN ? FBIPMIN : x;
 166:../../../../Desktop/DaisyExamples/libDaisy//src/daisy_core.h ****     x = x >= FBIPMAX ? FBIPMAX : x;
 167:../../../../Desktop/DaisyExamples/libDaisy//src/daisy_core.h ****     return (int32_t)(x * F2S32_SCALE);
 168:../../../../Desktop/DaisyExamples/libDaisy//src/daisy_core.h **** }
 169:../../../../Desktop/DaisyExamples/libDaisy//src/daisy_core.h **** 
 170:../../../../Desktop/DaisyExamples/libDaisy//src/daisy_core.h **** 
 171:../../../../Desktop/DaisyExamples/libDaisy//src/daisy_core.h **** /** Enums and a simple struct for defining a hardware pin on the MCU
 172:../../../../Desktop/DaisyExamples/libDaisy//src/daisy_core.h ****  *  These correlate with the stm32 datasheet, and are used to configure
 173:../../../../Desktop/DaisyExamples/libDaisy//src/daisy_core.h ****  *  the hardware.
 174:../../../../Desktop/DaisyExamples/libDaisy//src/daisy_core.h ****  * 
 175:../../../../Desktop/DaisyExamples/libDaisy//src/daisy_core.h ****  *  This along with the dsy_gpio_pin class should no longer be used.
 176:../../../../Desktop/DaisyExamples/libDaisy//src/daisy_core.h ****  *  They are available for backwards compatability. 
 177:../../../../Desktop/DaisyExamples/libDaisy//src/daisy_core.h ****  * 
 178:../../../../Desktop/DaisyExamples/libDaisy//src/daisy_core.h ****  *  Please use GPIOPort enum and the Pin struct instead.
 179:../../../../Desktop/DaisyExamples/libDaisy//src/daisy_core.h ****  */
 180:../../../../Desktop/DaisyExamples/libDaisy//src/daisy_core.h **** typedef enum
 181:../../../../Desktop/DaisyExamples/libDaisy//src/daisy_core.h **** {
 182:../../../../Desktop/DaisyExamples/libDaisy//src/daisy_core.h ****     DSY_GPIOA, /**< & */
 183:../../../../Desktop/DaisyExamples/libDaisy//src/daisy_core.h ****     DSY_GPIOB, /**< & */
 184:../../../../Desktop/DaisyExamples/libDaisy//src/daisy_core.h ****     DSY_GPIOC, /**< & */
ARM GAS  C:\Users\pbant\AppData\Local\Temp\ccAmOMRv.s 			page 66


 185:../../../../Desktop/DaisyExamples/libDaisy//src/daisy_core.h ****     DSY_GPIOD, /**< & */
 186:../../../../Desktop/DaisyExamples/libDaisy//src/daisy_core.h ****     DSY_GPIOE, /**< & */
 187:../../../../Desktop/DaisyExamples/libDaisy//src/daisy_core.h ****     DSY_GPIOF, /**< & */
 188:../../../../Desktop/DaisyExamples/libDaisy//src/daisy_core.h ****     DSY_GPIOG, /**< & */
 189:../../../../Desktop/DaisyExamples/libDaisy//src/daisy_core.h ****     DSY_GPIOH, /**< & */
 190:../../../../Desktop/DaisyExamples/libDaisy//src/daisy_core.h ****     DSY_GPIOI, /**< & */
 191:../../../../Desktop/DaisyExamples/libDaisy//src/daisy_core.h ****     DSY_GPIOJ, /**< & */
 192:../../../../Desktop/DaisyExamples/libDaisy//src/daisy_core.h ****     DSY_GPIOK, /**< & */
 193:../../../../Desktop/DaisyExamples/libDaisy//src/daisy_core.h ****     DSY_GPIOX, /** This is a non-existant port for unsupported bits of hardware. */
 194:../../../../Desktop/DaisyExamples/libDaisy//src/daisy_core.h ****     DSY_GPIO_LAST, /** Final enum member */
 195:../../../../Desktop/DaisyExamples/libDaisy//src/daisy_core.h **** } dsy_gpio_port;
 196:../../../../Desktop/DaisyExamples/libDaisy//src/daisy_core.h **** 
 197:../../../../Desktop/DaisyExamples/libDaisy//src/daisy_core.h **** /** Hardware define pins 
 198:../../../../Desktop/DaisyExamples/libDaisy//src/daisy_core.h ****  *  
 199:../../../../Desktop/DaisyExamples/libDaisy//src/daisy_core.h ****  *  The dsy_gpio_pin struct should no longer be used, and is only available for
 200:../../../../Desktop/DaisyExamples/libDaisy//src/daisy_core.h ****  *  backwards compatability.
 201:../../../../Desktop/DaisyExamples/libDaisy//src/daisy_core.h ****  * 
 202:../../../../Desktop/DaisyExamples/libDaisy//src/daisy_core.h ****  *  Please use Pin struct instead.
 203:../../../../Desktop/DaisyExamples/libDaisy//src/daisy_core.h ****  */
 204:../../../../Desktop/DaisyExamples/libDaisy//src/daisy_core.h **** typedef struct
 205:../../../../Desktop/DaisyExamples/libDaisy//src/daisy_core.h **** {
 206:../../../../Desktop/DaisyExamples/libDaisy//src/daisy_core.h ****     dsy_gpio_port port; /**< & */
 207:../../../../Desktop/DaisyExamples/libDaisy//src/daisy_core.h ****     uint8_t       pin;  /**< number 0-15 */
 208:../../../../Desktop/DaisyExamples/libDaisy//src/daisy_core.h **** } dsy_gpio_pin;
 209:../../../../Desktop/DaisyExamples/libDaisy//src/daisy_core.h **** 
 210:../../../../Desktop/DaisyExamples/libDaisy//src/daisy_core.h **** /** Helper for creating pins from port/pin combos easily
 211:../../../../Desktop/DaisyExamples/libDaisy//src/daisy_core.h ****  * 
 212:../../../../Desktop/DaisyExamples/libDaisy//src/daisy_core.h ****  *  The dsy_gpio_pin struct should no longer be used, and is only available for
 213:../../../../Desktop/DaisyExamples/libDaisy//src/daisy_core.h ****  *  backwards compatability.
 214:../../../../Desktop/DaisyExamples/libDaisy//src/daisy_core.h ****  * 
 215:../../../../Desktop/DaisyExamples/libDaisy//src/daisy_core.h ****  *  Please use Pin struct instead.
 216:../../../../Desktop/DaisyExamples/libDaisy//src/daisy_core.h **** */
 217:../../../../Desktop/DaisyExamples/libDaisy//src/daisy_core.h **** FORCE_INLINE dsy_gpio_pin dsy_pin(dsy_gpio_port port, uint8_t pin)
 218:../../../../Desktop/DaisyExamples/libDaisy//src/daisy_core.h **** {
 219:../../../../Desktop/DaisyExamples/libDaisy//src/daisy_core.h ****     dsy_gpio_pin p;
 220:../../../../Desktop/DaisyExamples/libDaisy//src/daisy_core.h ****     p.port = port;
 221:../../../../Desktop/DaisyExamples/libDaisy//src/daisy_core.h ****     p.pin  = pin;
 222:../../../../Desktop/DaisyExamples/libDaisy//src/daisy_core.h ****     return p;
 223:../../../../Desktop/DaisyExamples/libDaisy//src/daisy_core.h **** }
 224:../../../../Desktop/DaisyExamples/libDaisy//src/daisy_core.h **** 
 225:../../../../Desktop/DaisyExamples/libDaisy//src/daisy_core.h **** /** Helper for testing sameness of two dsy_gpio_pins
 226:../../../../Desktop/DaisyExamples/libDaisy//src/daisy_core.h ****  *  \return    1 if same, 0 if different
 227:../../../../Desktop/DaisyExamples/libDaisy//src/daisy_core.h ****  * 
 228:../../../../Desktop/DaisyExamples/libDaisy//src/daisy_core.h ****  *  The dsy_gpio_pin struct should no longer be used, and is only available for
 229:../../../../Desktop/DaisyExamples/libDaisy//src/daisy_core.h ****  *  backwards compatability.
 230:../../../../Desktop/DaisyExamples/libDaisy//src/daisy_core.h ****  * 
 231:../../../../Desktop/DaisyExamples/libDaisy//src/daisy_core.h ****  *  Please use Pin struct instead.
 232:../../../../Desktop/DaisyExamples/libDaisy//src/daisy_core.h ****  */
 233:../../../../Desktop/DaisyExamples/libDaisy//src/daisy_core.h **** FORCE_INLINE uint8_t dsy_pin_cmp(dsy_gpio_pin *a, dsy_gpio_pin *b)
 234:../../../../Desktop/DaisyExamples/libDaisy//src/daisy_core.h **** {
 235:../../../../Desktop/DaisyExamples/libDaisy//src/daisy_core.h ****     return ((a->port == b->port) && (a->pin == b->pin));
 236:../../../../Desktop/DaisyExamples/libDaisy//src/daisy_core.h **** }
 237:../../../../Desktop/DaisyExamples/libDaisy//src/daisy_core.h **** 
 238:../../../../Desktop/DaisyExamples/libDaisy//src/daisy_core.h **** #ifdef __cplusplus
 239:../../../../Desktop/DaisyExamples/libDaisy//src/daisy_core.h **** 
 240:../../../../Desktop/DaisyExamples/libDaisy//src/daisy_core.h **** namespace daisy
 241:../../../../Desktop/DaisyExamples/libDaisy//src/daisy_core.h **** {
ARM GAS  C:\Users\pbant\AppData\Local\Temp\ccAmOMRv.s 			page 67


 242:../../../../Desktop/DaisyExamples/libDaisy//src/daisy_core.h **** /** @brief GPIO Port names */
 243:../../../../Desktop/DaisyExamples/libDaisy//src/daisy_core.h **** enum GPIOPort
 244:../../../../Desktop/DaisyExamples/libDaisy//src/daisy_core.h **** {
 245:../../../../Desktop/DaisyExamples/libDaisy//src/daisy_core.h ****     PORTA, /**< Port A */
 246:../../../../Desktop/DaisyExamples/libDaisy//src/daisy_core.h ****     PORTB, /**< Port B */
 247:../../../../Desktop/DaisyExamples/libDaisy//src/daisy_core.h ****     PORTC, /**< Port C */
 248:../../../../Desktop/DaisyExamples/libDaisy//src/daisy_core.h ****     PORTD, /**< Port D */
 249:../../../../Desktop/DaisyExamples/libDaisy//src/daisy_core.h ****     PORTE, /**< Port E */
 250:../../../../Desktop/DaisyExamples/libDaisy//src/daisy_core.h ****     PORTF, /**< Port F */
 251:../../../../Desktop/DaisyExamples/libDaisy//src/daisy_core.h ****     PORTG, /**< Port G */
 252:../../../../Desktop/DaisyExamples/libDaisy//src/daisy_core.h ****     PORTH, /**< Port H */
 253:../../../../Desktop/DaisyExamples/libDaisy//src/daisy_core.h ****     PORTI, /**< Port I */
 254:../../../../Desktop/DaisyExamples/libDaisy//src/daisy_core.h ****     PORTJ, /**< Port J */
 255:../../../../Desktop/DaisyExamples/libDaisy//src/daisy_core.h ****     PORTK, /**< Port K */
 256:../../../../Desktop/DaisyExamples/libDaisy//src/daisy_core.h ****     PORTX, /**< Used as a dummy port to signal an invalid pin. */
 257:../../../../Desktop/DaisyExamples/libDaisy//src/daisy_core.h **** };
 258:../../../../Desktop/DaisyExamples/libDaisy//src/daisy_core.h **** 
 259:../../../../Desktop/DaisyExamples/libDaisy//src/daisy_core.h **** /** @brief representation of hardware port/pin combination */
 260:../../../../Desktop/DaisyExamples/libDaisy//src/daisy_core.h **** struct Pin
 261:../../../../Desktop/DaisyExamples/libDaisy//src/daisy_core.h **** {
 262:../../../../Desktop/DaisyExamples/libDaisy//src/daisy_core.h ****     GPIOPort port;
 263:../../../../Desktop/DaisyExamples/libDaisy//src/daisy_core.h ****     uint8_t  pin;
 264:../../../../Desktop/DaisyExamples/libDaisy//src/daisy_core.h **** 
 265:../../../../Desktop/DaisyExamples/libDaisy//src/daisy_core.h ****     /** @brief Constructor creates a valid pin. 
 266:../../../../Desktop/DaisyExamples/libDaisy//src/daisy_core.h ****      *  @param pt GPIOPort between PA, and PK corresponding to STM32 Port.
 267:../../../../Desktop/DaisyExamples/libDaisy//src/daisy_core.h ****      *  @param pn pin number in range of 0-15
 268:../../../../Desktop/DaisyExamples/libDaisy//src/daisy_core.h ****     */
 269:../../../../Desktop/DaisyExamples/libDaisy//src/daisy_core.h ****     constexpr Pin(const GPIOPort pt, const uint8_t pn) : port(pt), pin(pn) {}
 270:../../../../Desktop/DaisyExamples/libDaisy//src/daisy_core.h **** 
 271:../../../../Desktop/DaisyExamples/libDaisy//src/daisy_core.h ****     /** @brief Basic Constructor creates an invalid Pin object */
 272:../../../../Desktop/DaisyExamples/libDaisy//src/daisy_core.h ****     constexpr Pin() : port(PORTX), pin(255) {}
 1701              		.loc 15 272 15 view .LVU470
 1702              		.loc 15 272 15 is_stmt 0 view .LVU471
 1703              	.LBE677:
 1704              	.LBE676:
 1705              	.LBE675:
 1706              	.LBE674:
 1707              	.LBE673:
 1708              	.LBE672:
 1709              	.LBB686:
 1710              	.LBI686:
 1711              		.loc 14 74 5 is_stmt 1 view .LVU472
 1712              	.LBB687:
 1713              	.LBB688:
 1714              	.LBI688:
  68:../../../../Desktop/DaisyExamples/libDaisy//src/per/gpio.h ****         : pin(), mode(Mode::INPUT), pull(Pull::NOPULL), speed(Speed::LOW)
 1715              		.loc 14 68 9 view .LVU473
 1716              	.LBB689:
 1717              	.LBB690:
 1718              	.LBB691:
 1719              	.LBI691:
 1720              		.loc 15 272 15 view .LVU474
 1721              		.loc 15 272 15 is_stmt 0 view .LVU475
 1722              	.LBE691:
 1723              	.LBE690:
 1724              	.LBE689:
 1725              	.LBE688:
ARM GAS  C:\Users\pbant\AppData\Local\Temp\ccAmOMRv.s 			page 68


 1726              	.LBE687:
 1727              	.LBE686:
 1728              	.LBE655:
 184:Frame.h       ****         m_FIFO_in = 0;
 1729              		.loc 7 184 9 is_stmt 1 view .LVU476
 185:Frame.h       ****         m_FIFO_out = 0;
 1730              		.loc 7 185 9 view .LVU477
 186:Frame.h       ****         m_FIFO_NbElements = 0;
 1731              		.loc 7 186 9 view .LVU478
 187:Frame.h       ****         m_Busy = false;
 1732              		.loc 7 187 9 view .LVU479
 1733              		.loc 7 187 9 is_stmt 0 view .LVU480
 1734              	.LBE654:
 1735              	.LBE653:
 1736              	.LBE652:
 1737              	.LBB725:
 1738              	.LBI725:
 109:Frame.h       ****         m_R = R;
 1739              		.loc 7 109 5 is_stmt 1 view .LVU481
 1740              	.LBE725:
 1741              	.LBE651:
 1742              	.LBE650:
 1743              	.LBE649:
 1744              	.LBE745:
 1745              	.LBE749:
 110:Frame.h       ****         m_G = G;
 1746              		.loc 7 110 9 view .LVU482
 111:Frame.h       ****         m_B = B;
 1747              		.loc 7 111 9 view .LVU483
 112:Frame.h       ****         m_Trans = Trans;
 1748              		.loc 7 112 9 view .LVU484
 113:Frame.h       ****     }
 1749              		.loc 7 113 9 view .LVU485
 1750              	.LBB750:
 1751              	.LBB746:
 1752              	.LBB742:
 1753              	.LBB739:
 1754              	.LBB732:
 1755              	.LBB726:
 1756              	.LBI726:
 109:Frame.h       ****         m_R = R;
 1757              		.loc 7 109 5 view .LVU486
 1758              	.LBE726:
 1759              	.LBE732:
 1760              	.LBE739:
 1761              	.LBE742:
 1762              	.LBE746:
 1763              	.LBE750:
 110:Frame.h       ****         m_G = G;
 1764              		.loc 7 110 9 view .LVU487
 111:Frame.h       ****         m_B = B;
 1765              		.loc 7 111 9 view .LVU488
 112:Frame.h       ****         m_Trans = Trans;
 1766              		.loc 7 112 9 view .LVU489
 113:Frame.h       ****     }
 1767              		.loc 7 113 9 view .LVU490
 1768              	.LBB751:
ARM GAS  C:\Users\pbant\AppData\Local\Temp\ccAmOMRv.s 			page 69


 1769              	.LBB747:
 1770              	.LBB743:
 1771              	.LBB740:
 1772              	.LBB733:
 1773              	.LBB727:
 1774              	.LBB720:
 1775              	.LBB715:
 1776              	.LBB710:
 1777              	.LBB700:
 1778              	.LBB657:
 1779              	.LBB658:
 1780              		.loc 13 106 33 is_stmt 0 view .LVU491
 1781 0046 1A4B     		ldr	r3, .L38+20
 1782 0048 0022     		movs	r2, #0
 1783              	.LBE658:
 1784              	.LBE657:
 1785              	.LBE700:
 1786              	.LBB701:
 1787              	.LBB668:
 1788              	.LBB664:
  90:../../../../Desktop/DaisyExamples/libDaisy//src/per/spi.h ****             clock_polarity = ClockPolarity::LOW;
 1789              		.loc 13 90 28 view .LVU492
 1790 004a 0824     		movs	r4, #8
 1791              	.LBE664:
 1792              	.LBE668:
 1793              	.LBE701:
 1794              	.LBE710:
 1795              	.LBE715:
 1796              	.LBE720:
 1797              	.LBE727:
 1798              	.LBE733:
 129:GFX.h         **** 
 1799              		.loc 8 129 12 view .LVU493
 1800 004c 4FF60B71 		movw	r1, #65291
 1801              	.LBB734:
 1802              	.LBB728:
 1803              	.LBB721:
 1804              	.LBB716:
 1805              	.LBB711:
 1806              	.LBB702:
 1807              	.LBB669:
 1808              	.LBB665:
  93:../../../../Desktop/DaisyExamples/libDaisy//src/per/spi.h ****         }
 1809              		.loc 13 93 28 view .LVU494
 1810 0050 0220     		movs	r0, #2
 1811              	.LBE665:
 1812              	.LBE669:
 1813              	.LBE702:
 1814              	.LBE711:
 1815              	.LBE716:
 1816              	.LBE721:
 1817              	.LBE728:
 1818              	.LBE734:
 129:GFX.h         **** 
 1819              		.loc 8 129 12 view .LVU495
 1820 0052 4FF0FF35 		mov	r5, #-1
 1821              	.LBB735:
ARM GAS  C:\Users\pbant\AppData\Local\Temp\ccAmOMRv.s 			page 70


 1822              	.LBB729:
 1823              	.LBB722:
 1824              	.LBB717:
 1825              	.LBB712:
 1826              	.LBB703:
 1827              	.LBB660:
 1828              	.LBB659:
 1829              		.loc 13 106 33 view .LVU496
 1830 0056 1A60     		str	r2, [r3]
 1831              	.LBE659:
 1832              	.LBE660:
 1833              	.LBE703:
 1834              	.LBB704:
 1835              	.LBB670:
 1836              	.LBB666:
  93:../../../../Desktop/DaisyExamples/libDaisy//src/per/spi.h ****         }
 1837              		.loc 13 93 28 view .LVU497
 1838 0058 9862     		str	r0, [r3, #40]
  92:../../../../Desktop/DaisyExamples/libDaisy//src/per/spi.h ****             baud_prescaler = BaudPrescaler::PS_8;
 1839              		.loc 13 92 28 view .LVU498
 1840 005a 1A62     		str	r2, [r3, #32]
 1841              	.LBE666:
 1842              	.LBE670:
 1843              	.LBE704:
 1844              	.LBE712:
 1845              	.LBE717:
 1846              	.LBE722:
 1847              	.LBE729:
 1848              	.LBE735:
 129:GFX.h         **** 
 1849              		.loc 8 129 12 view .LVU499
 1850 005c 5A66     		str	r2, [r3, #100]
 1851              	.LBB736:
 1852 005e C3F8DC20 		str	r2, [r3, #220]
 1853              	.LBE736:
 1854              	.LBE740:
 1855              	.LBE743:
  17:TestTFT.cpp   **** 
 1856              		.loc 6 17 45 view .LVU500
 1857 0062 1448     		ldr	r0, .L38+24
 1858              	.LBB744:
 1859              	.LBB741:
 1860              	.LBB737:
 1861              	.LBB730:
 1862              	.LBB723:
 1863              	.LBB718:
 1864              	.LBB713:
 1865              	.LBB705:
 1866              	.LBB671:
 1867              	.LBB667:
  91:../../../../Desktop/DaisyExamples/libDaisy//src/per/spi.h ****             clock_phase    = ClockPhase::ONE_EDGE;
 1868              		.loc 13 91 28 view .LVU501
 1869 0064 C3E90642 		strd	r4, r2, [r3, #24]
 1870              	.LBE667:
 1871              	.LBE671:
 1872              	.LBE705:
 1873              	.LBE713:
ARM GAS  C:\Users\pbant\AppData\Local\Temp\ccAmOMRv.s 			page 71


 1874              	.LBE718:
 1875              	.LBE723:
 1876              	.LBE730:
 1877              	.LBE737:
 129:GFX.h         **** 
 1878              		.loc 8 129 12 view .LVU502
 1879 0068 4FF07F44 		mov	r4, #-16777216
 1880              	.LBB738:
 1881              	.LBB731:
 1882              	.LBB724:
 1883              	.LBB719:
 1884              	.LBB714:
 1885              	.LBB706:
 1886              	.LBB684:
 1887              	.LBB682:
 1888              	.LBB680:
 1889              	.LBB678:
  69:../../../../Desktop/DaisyExamples/libDaisy//src/per/gpio.h ****         {
 1890              		.loc 14 69 73 view .LVU503
 1891 006c C3E90B12 		strd	r1, r2, [r3, #44]
 1892              	.LBE678:
 1893              	.LBE680:
 1894              	.LBE682:
 1895              	.LBE684:
 1896              	.LBE706:
 1897              	.LBB707:
 1898              	.LBB698:
 1899              	.LBB696:
 1900              	.LBB694:
 1901              	.LBB692:
 1902 0070 C3E91012 		strd	r1, r2, [r3, #64]
 1903              	.LBE692:
 1904              	.LBE694:
 1905              	.LBE696:
 1906              	.LBE698:
 1907              	.LBE707:
 1908              	.LBB708:
 1909              	.LBB685:
 1910              	.LBB683:
 1911              	.LBB681:
 1912              	.LBB679:
 1913 0074 C3E90D22 		strd	r2, r2, [r3, #52]
 1914              	.LBE679:
 1915              	.LBE681:
 1916              	.LBE683:
 1917              	.LBE685:
 1918              	.LBE708:
 1919              	.LBB709:
 1920              	.LBB699:
 1921              	.LBB697:
 1922              	.LBB695:
 1923              	.LBB693:
 1924 0078 C3E91222 		strd	r2, r2, [r3, #72]
 1925              	.LBE693:
 1926              	.LBE695:
 1927              	.LBE697:
 1928              	.LBE699:
ARM GAS  C:\Users\pbant\AppData\Local\Temp\ccAmOMRv.s 			page 72


 1929              	.LBE709:
 1930              	.LBE714:
 1931              	.LBE719:
 1932              	.LBE724:
 1933              	.LBE731:
 1934              	.LBE738:
 129:GFX.h         **** 
 1935              		.loc 8 129 12 view .LVU504
 1936 007c C3E91522 		strd	r2, r2, [r3, #84]
 1937 0080 C3E91722 		strd	r2, r2, [r3, #92]
 1938 0084 C3E93322 		strd	r2, r2, [r3, #204]
 1939 0088 C3E93522 		strd	r2, r2, [r3, #212]
 1940 008c C3E93854 		strd	r5, r4, [r3, #224]
 1941              	.LVL78:
 129:GFX.h         **** 
 1942              		.loc 8 129 12 view .LVU505
 1943              	.LBE741:
 1944              	.LBE744:
  17:TestTFT.cpp   **** 
 1945              		.loc 6 17 45 view .LVU506
 1946 0090 0949     		ldr	r1, .L38+28
 1947              	.LBE747:
 1948              	.LBE751:
 1949              		.loc 6 121 1 view .LVU507
 1950 0092 BDE83840 		pop	{r3, r4, r5, lr}
 1951              		.cfi_restore 14
 1952              		.cfi_restore 5
 1953              		.cfi_restore 4
 1954              		.cfi_restore 3
 1955              		.cfi_def_cfa_offset 0
 1956              	.LBB752:
 1957              	.LBB748:
  17:TestTFT.cpp   **** 
 1958              		.loc 6 17 45 view .LVU508
 1959 0096 FFF7FEBF 		b	_ZN5cFontC1EPK7GFXfont
 1960              	.LVL79:
 1961              	.L39:
 1962 009a 00BF     		.align	2
 1963              	.L38:
 1964 009c 00000000 		.word	.LANCHOR0
 1965 00a0 00000000 		.word	__dso_handle
 1966 00a4 00000000 		.word	_ZN5daisy9DaisySeedD1Ev
 1967 00a8 00000000 		.word	__Fifo
 1968 00ac 0A3C0000 		.word	__Fifo+15370
 1969 00b0 00000000 		.word	.LANCHOR1
 1970 00b4 00000000 		.word	.LANCHOR2
 1971 00b8 00000000 		.word	.LANCHOR3
 1972              	.LBE748:
 1973              	.LBE752:
 1974              		.cfi_endproc
 1975              	.LFE5316:
 1977              		.section	.init_array,"aw",%init_array
 1978              		.align	2
 1979 0000 00000000 		.word	_GLOBAL__sub_I_hw(target1)
 1980              		.global	Vanilla20
 1981              		.global	__Display
 1982              		.global	__FrameBuff
ARM GAS  C:\Users\pbant\AppData\Local\Temp\ccAmOMRv.s 			page 73


 1983              		.global	__Fifo
 1984              		.global	hw
 1985              		.section	.bss.Vanilla20,"aw",%nobits
 1986              		.align	2
 1987              		.set	.LANCHOR2,. + 0
 1990              	Vanilla20:
 1991 0000 00000000 		.space	12
 1991      00000000 
 1991      00000000 
 1992              		.section	.bss.__Display,"aw",%nobits
 1993              		.align	2
 1994              		.set	.LANCHOR1,. + 0
 1997              	__Display:
 1998 0000 00000000 		.space	232
 1998      00000000 
 1998      00000000 
 1998      00000000 
 1998      00000000 
 1999              		.section	.bss.hw,"aw",%nobits
 2000              		.align	2
 2001              		.set	.LANCHOR0,. + 0
 2004              	hw:
 2005 0000 00000000 		.space	64
 2005      00000000 
 2005      00000000 
 2005      00000000 
 2005      00000000 
 2006              		.section	.rodata._ZL27VanillaExtractRegular20pt7b,"a"
 2007              		.align	2
 2008              		.set	.LANCHOR3,. + 0
 2011              	_ZL27VanillaExtractRegular20pt7b:
 2012 0000 00000000 		.word	_ZL34VanillaExtractRegular20pt7bBitmaps
 2013 0004 00000000 		.word	_ZL33VanillaExtractRegular20pt7bGlyphs
 2014 0008 2000     		.short	32
 2015 000a 7E00     		.short	126
 2016 000c 2A       		.byte	42
 2017 000d 000000   		.space	3
 2018              		.section	.rodata._ZL33VanillaExtractRegular20pt7bGlyphs,"a"
 2019              		.align	2
 2022              	_ZL33VanillaExtractRegular20pt7bGlyphs:
 2023 0000 0000     		.short	0
 2024 0002 01       		.byte	1
 2025 0003 01       		.byte	1
 2026 0004 11       		.byte	17
 2027 0005 00       		.byte	0
 2028 0006 00       		.byte	0
 2029 0007 00       		.space	1
 2030 0008 0100     		.short	1
 2031 000a 09       		.byte	9
 2032 000b 23       		.byte	35
 2033 000c 0B       		.byte	11
 2034 000d 00       		.byte	0
 2035 000e DE       		.byte	-34
 2036 000f 00       		.space	1
 2037 0010 2900     		.short	41
 2038 0012 0F       		.byte	15
 2039 0013 0E       		.byte	14
ARM GAS  C:\Users\pbant\AppData\Local\Temp\ccAmOMRv.s 			page 74


 2040 0014 12       		.byte	18
 2041 0015 01       		.byte	1
 2042 0016 DD       		.byte	-35
 2043 0017 00       		.space	1
 2044 0018 4400     		.short	68
 2045 001a 21       		.byte	33
 2046 001b 22       		.byte	34
 2047 001c 26       		.byte	38
 2048 001d 02       		.byte	2
 2049 001e DE       		.byte	-34
 2050 001f 00       		.space	1
 2051 0020 D100     		.short	209
 2052 0022 17       		.byte	23
 2053 0023 29       		.byte	41
 2054 0024 1B       		.byte	27
 2055 0025 01       		.byte	1
 2056 0026 DB       		.byte	-37
 2057 0027 00       		.space	1
 2058 0028 4701     		.short	327
 2059 002a 2A       		.byte	42
 2060 002b 23       		.byte	35
 2061 002c 2D       		.byte	45
 2062 002d 01       		.byte	1
 2063 002e DE       		.byte	-34
 2064 002f 00       		.space	1
 2065 0030 FF01     		.short	511
 2066 0032 24       		.byte	36
 2067 0033 23       		.byte	35
 2068 0034 27       		.byte	39
 2069 0035 01       		.byte	1
 2070 0036 DE       		.byte	-34
 2071 0037 00       		.space	1
 2072 0038 9D02     		.short	669
 2073 003a 06       		.byte	6
 2074 003b 0E       		.byte	14
 2075 003c 09       		.byte	9
 2076 003d 01       		.byte	1
 2077 003e DE       		.byte	-34
 2078 003f 00       		.space	1
 2079 0040 A802     		.short	680
 2080 0042 0D       		.byte	13
 2081 0043 2E       		.byte	46
 2082 0044 10       		.byte	16
 2083 0045 01       		.byte	1
 2084 0046 DC       		.byte	-36
 2085 0047 00       		.space	1
 2086 0048 F302     		.short	755
 2087 004a 0C       		.byte	12
 2088 004b 2E       		.byte	46
 2089 004c 10       		.byte	16
 2090 004d 02       		.byte	2
 2091 004e DC       		.byte	-36
 2092 004f 00       		.space	1
 2093 0050 3803     		.short	824
 2094 0052 12       		.byte	18
 2095 0053 11       		.byte	17
 2096 0054 16       		.byte	22
ARM GAS  C:\Users\pbant\AppData\Local\Temp\ccAmOMRv.s 			page 75


 2097 0055 01       		.byte	1
 2098 0056 DE       		.byte	-34
 2099 0057 00       		.space	1
 2100 0058 5F03     		.short	863
 2101 005a 17       		.byte	23
 2102 005b 16       		.byte	22
 2103 005c 1A       		.byte	26
 2104 005d 01       		.byte	1
 2105 005e E7       		.byte	-25
 2106 005f 00       		.space	1
 2107 0060 9F03     		.short	927
 2108 0062 09       		.byte	9
 2109 0063 0E       		.byte	14
 2110 0064 0D       		.byte	13
 2111 0065 01       		.byte	1
 2112 0066 F9       		.byte	-7
 2113 0067 00       		.space	1
 2114 0068 AF03     		.short	943
 2115 006a 11       		.byte	17
 2116 006b 06       		.byte	6
 2117 006c 12       		.byte	18
 2118 006d FF       		.byte	-1
 2119 006e F2       		.byte	-14
 2120 006f 00       		.space	1
 2121 0070 BC03     		.short	956
 2122 0072 09       		.byte	9
 2123 0073 08       		.byte	8
 2124 0074 0B       		.byte	11
 2125 0075 00       		.byte	0
 2126 0076 F9       		.byte	-7
 2127 0077 00       		.space	1
 2128 0078 C503     		.short	965
 2129 007a 17       		.byte	23
 2130 007b 26       		.byte	38
 2131 007c 1B       		.byte	27
 2132 007d 02       		.byte	2
 2133 007e DB       		.byte	-37
 2134 007f 00       		.space	1
 2135 0080 3304     		.short	1075
 2136 0082 1B       		.byte	27
 2137 0083 22       		.byte	34
 2138 0084 1E       		.byte	30
 2139 0085 01       		.byte	1
 2140 0086 E0       		.byte	-32
 2141 0087 00       		.space	1
 2142 0088 A604     		.short	1190
 2143 008a 0F       		.byte	15
 2144 008b 22       		.byte	34
 2145 008c 12       		.byte	18
 2146 008d 01       		.byte	1
 2147 008e DF       		.byte	-33
 2148 008f 00       		.space	1
 2149 0090 E604     		.short	1254
 2150 0092 1A       		.byte	26
 2151 0093 22       		.byte	34
 2152 0094 1D       		.byte	29
 2153 0095 01       		.byte	1
ARM GAS  C:\Users\pbant\AppData\Local\Temp\ccAmOMRv.s 			page 76


 2154 0096 DF       		.byte	-33
 2155 0097 00       		.space	1
 2156 0098 5505     		.short	1365
 2157 009a 19       		.byte	25
 2158 009b 23       		.byte	35
 2159 009c 1D       		.byte	29
 2160 009d 01       		.byte	1
 2161 009e DE       		.byte	-34
 2162 009f 00       		.space	1
 2163 00a0 C305     		.short	1475
 2164 00a2 1F       		.byte	31
 2165 00a3 23       		.byte	35
 2166 00a4 21       		.byte	33
 2167 00a5 00       		.byte	0
 2168 00a6 DE       		.byte	-34
 2169 00a7 00       		.space	1
 2170 00a8 4B06     		.short	1611
 2171 00aa 18       		.byte	24
 2172 00ab 23       		.byte	35
 2173 00ac 1B       		.byte	27
 2174 00ad 01       		.byte	1
 2175 00ae DE       		.byte	-34
 2176 00af 00       		.space	1
 2177 00b0 B406     		.short	1716
 2178 00b2 1A       		.byte	26
 2179 00b3 23       		.byte	35
 2180 00b4 1C       		.byte	28
 2181 00b5 00       		.byte	0
 2182 00b6 DE       		.byte	-34
 2183 00b7 00       		.space	1
 2184 00b8 2607     		.short	1830
 2185 00ba 19       		.byte	25
 2186 00bb 23       		.byte	35
 2187 00bc 19       		.byte	25
 2188 00bd FF       		.byte	-1
 2189 00be DE       		.byte	-34
 2190 00bf 00       		.space	1
 2191 00c0 9407     		.short	1940
 2192 00c2 1C       		.byte	28
 2193 00c3 23       		.byte	35
 2194 00c4 1D       		.byte	29
 2195 00c5 FF       		.byte	-1
 2196 00c6 DF       		.byte	-33
 2197 00c7 00       		.space	1
 2198 00c8 0F08     		.short	2063
 2199 00ca 1A       		.byte	26
 2200 00cb 22       		.byte	34
 2201 00cc 1C       		.byte	28
 2202 00cd 00       		.byte	0
 2203 00ce DF       		.byte	-33
 2204 00cf 00       		.space	1
 2205 00d0 7E08     		.short	2174
 2206 00d2 09       		.byte	9
 2207 00d3 19       		.byte	25
 2208 00d4 0D       		.byte	13
 2209 00d5 02       		.byte	2
 2210 00d6 E2       		.byte	-30
ARM GAS  C:\Users\pbant\AppData\Local\Temp\ccAmOMRv.s 			page 77


 2211 00d7 00       		.space	1
 2212 00d8 9B08     		.short	2203
 2213 00da 09       		.byte	9
 2214 00db 1F       		.byte	31
 2215 00dc 0D       		.byte	13
 2216 00dd 01       		.byte	1
 2217 00de E2       		.byte	-30
 2218 00df 00       		.space	1
 2219 00e0 BE08     		.short	2238
 2220 00e2 18       		.byte	24
 2221 00e3 17       		.byte	23
 2222 00e4 1B       		.byte	27
 2223 00e5 01       		.byte	1
 2224 00e6 E7       		.byte	-25
 2225 00e7 00       		.space	1
 2226 00e8 0309     		.short	2307
 2227 00ea 17       		.byte	23
 2228 00eb 12       		.byte	18
 2229 00ec 1A       		.byte	26
 2230 00ed 01       		.byte	1
 2231 00ee EC       		.byte	-20
 2232 00ef 00       		.space	1
 2233 00f0 3709     		.short	2359
 2234 00f2 18       		.byte	24
 2235 00f3 17       		.byte	23
 2236 00f4 1B       		.byte	27
 2237 00f5 01       		.byte	1
 2238 00f6 E7       		.byte	-25
 2239 00f7 00       		.space	1
 2240 00f8 7C09     		.short	2428
 2241 00fa 16       		.byte	22
 2242 00fb 22       		.byte	34
 2243 00fc 1A       		.byte	26
 2244 00fd 01       		.byte	1
 2245 00fe DF       		.byte	-33
 2246 00ff 00       		.space	1
 2247 0100 DA09     		.short	2522
 2248 0102 2D       		.byte	45
 2249 0103 2D       		.byte	45
 2250 0104 31       		.byte	49
 2251 0105 02       		.byte	2
 2252 0106 DE       		.byte	-34
 2253 0107 00       		.space	1
 2254 0108 D80A     		.short	2776
 2255 010a 1E       		.byte	30
 2256 010b 22       		.byte	34
 2257 010c 1F       		.byte	31
 2258 010d FF       		.byte	-1
 2259 010e DF       		.byte	-33
 2260 010f 00       		.space	1
 2261 0110 580B     		.short	2904
 2262 0112 1A       		.byte	26
 2263 0113 22       		.byte	34
 2264 0114 1C       		.byte	28
 2265 0115 01       		.byte	1
 2266 0116 DF       		.byte	-33
 2267 0117 00       		.space	1
ARM GAS  C:\Users\pbant\AppData\Local\Temp\ccAmOMRv.s 			page 78


 2268 0118 C70B     		.short	3015
 2269 011a 1E       		.byte	30
 2270 011b 22       		.byte	34
 2271 011c 21       		.byte	33
 2272 011d 01       		.byte	1
 2273 011e E0       		.byte	-32
 2274 011f 00       		.space	1
 2275 0120 470C     		.short	3143
 2276 0122 1C       		.byte	28
 2277 0123 21       		.byte	33
 2278 0124 1F       		.byte	31
 2279 0125 01       		.byte	1
 2280 0126 E0       		.byte	-32
 2281 0127 00       		.space	1
 2282 0128 BB0C     		.short	3259
 2283 012a 16       		.byte	22
 2284 012b 22       		.byte	34
 2285 012c 19       		.byte	25
 2286 012d 01       		.byte	1
 2287 012e DF       		.byte	-33
 2288 012f 00       		.space	1
 2289 0130 190D     		.short	3353
 2290 0132 17       		.byte	23
 2291 0133 22       		.byte	34
 2292 0134 18       		.byte	24
 2293 0135 01       		.byte	1
 2294 0136 DF       		.byte	-33
 2295 0137 00       		.space	1
 2296 0138 7B0D     		.short	3451
 2297 013a 1E       		.byte	30
 2298 013b 23       		.byte	35
 2299 013c 21       		.byte	33
 2300 013d 01       		.byte	1
 2301 013e DF       		.byte	-33
 2302 013f 00       		.space	1
 2303 0140 FF0D     		.short	3583
 2304 0142 1B       		.byte	27
 2305 0143 21       		.byte	33
 2306 0144 1D       		.byte	29
 2307 0145 00       		.byte	0
 2308 0146 E0       		.byte	-32
 2309 0147 00       		.space	1
 2310 0148 6F0E     		.short	3695
 2311 014a 07       		.byte	7
 2312 014b 21       		.byte	33
 2313 014c 0A       		.byte	10
 2314 014d 01       		.byte	1
 2315 014e E0       		.byte	-32
 2316 014f 00       		.space	1
 2317 0150 8C0E     		.short	3724
 2318 0152 1B       		.byte	27
 2319 0153 23       		.byte	35
 2320 0154 1E       		.byte	30
 2321 0155 01       		.byte	1
 2322 0156 DF       		.byte	-33
 2323 0157 00       		.space	1
 2324 0158 030F     		.short	3843
ARM GAS  C:\Users\pbant\AppData\Local\Temp\ccAmOMRv.s 			page 79


 2325 015a 19       		.byte	25
 2326 015b 22       		.byte	34
 2327 015c 1B       		.byte	27
 2328 015d 01       		.byte	1
 2329 015e DF       		.byte	-33
 2330 015f 00       		.space	1
 2331 0160 6E0F     		.short	3950
 2332 0162 16       		.byte	22
 2333 0163 22       		.byte	34
 2334 0164 18       		.byte	24
 2335 0165 01       		.byte	1
 2336 0166 DF       		.byte	-33
 2337 0167 00       		.space	1
 2338 0168 CC0F     		.short	4044
 2339 016a 27       		.byte	39
 2340 016b 22       		.byte	34
 2341 016c 2A       		.byte	42
 2342 016d 01       		.byte	1
 2343 016e E0       		.byte	-32
 2344 016f 00       		.space	1
 2345 0170 7210     		.short	4210
 2346 0172 1B       		.byte	27
 2347 0173 22       		.byte	34
 2348 0174 1E       		.byte	30
 2349 0175 01       		.byte	1
 2350 0176 E0       		.byte	-32
 2351 0177 00       		.space	1
 2352 0178 E510     		.short	4325
 2353 017a 23       		.byte	35
 2354 017b 22       		.byte	34
 2355 017c 26       		.byte	38
 2356 017d 01       		.byte	1
 2357 017e E0       		.byte	-32
 2358 017f 00       		.space	1
 2359 0180 7A11     		.short	4474
 2360 0182 19       		.byte	25
 2361 0183 22       		.byte	34
 2362 0184 1C       		.byte	28
 2363 0185 01       		.byte	1
 2364 0186 E0       		.byte	-32
 2365 0187 00       		.space	1
 2366 0188 E511     		.short	4581
 2367 018a 23       		.byte	35
 2368 018b 2A       		.byte	42
 2369 018c 26       		.byte	38
 2370 018d 01       		.byte	1
 2371 018e E0       		.byte	-32
 2372 018f 00       		.space	1
 2373 0190 9D12     		.short	4765
 2374 0192 19       		.byte	25
 2375 0193 23       		.byte	35
 2376 0194 1C       		.byte	28
 2377 0195 01       		.byte	1
 2378 0196 E0       		.byte	-32
 2379 0197 00       		.space	1
 2380 0198 0B13     		.short	4875
 2381 019a 18       		.byte	24
ARM GAS  C:\Users\pbant\AppData\Local\Temp\ccAmOMRv.s 			page 80


 2382 019b 23       		.byte	35
 2383 019c 19       		.byte	25
 2384 019d 00       		.byte	0
 2385 019e E0       		.byte	-32
 2386 019f 00       		.space	1
 2387 01a0 7413     		.short	4980
 2388 01a2 1B       		.byte	27
 2389 01a3 22       		.byte	34
 2390 01a4 1C       		.byte	28
 2391 01a5 FF       		.byte	-1
 2392 01a6 E0       		.byte	-32
 2393 01a7 00       		.space	1
 2394 01a8 E713     		.short	5095
 2395 01aa 1B       		.byte	27
 2396 01ab 22       		.byte	34
 2397 01ac 1E       		.byte	30
 2398 01ad 01       		.byte	1
 2399 01ae E0       		.byte	-32
 2400 01af 00       		.space	1
 2401 01b0 5A14     		.short	5210
 2402 01b2 1C       		.byte	28
 2403 01b3 22       		.byte	34
 2404 01b4 1E       		.byte	30
 2405 01b5 01       		.byte	1
 2406 01b6 E0       		.byte	-32
 2407 01b7 00       		.space	1
 2408 01b8 D114     		.short	5329
 2409 01ba 2B       		.byte	43
 2410 01bb 23       		.byte	35
 2411 01bc 2E       		.byte	46
 2412 01bd 01       		.byte	1
 2413 01be E0       		.byte	-32
 2414 01bf 00       		.space	1
 2415 01c0 8E15     		.short	5518
 2416 01c2 21       		.byte	33
 2417 01c3 22       		.byte	34
 2418 01c4 21       		.byte	33
 2419 01c5 FF       		.byte	-1
 2420 01c6 E0       		.byte	-32
 2421 01c7 00       		.space	1
 2422 01c8 1B16     		.short	5659
 2423 01ca 1F       		.byte	31
 2424 01cb 22       		.byte	34
 2425 01cc 20       		.byte	32
 2426 01cd 00       		.byte	0
 2427 01ce E0       		.byte	-32
 2428 01cf 00       		.space	1
 2429 01d0 9F16     		.short	5791
 2430 01d2 1D       		.byte	29
 2431 01d3 22       		.byte	34
 2432 01d4 20       		.byte	32
 2433 01d5 01       		.byte	1
 2434 01d6 E0       		.byte	-32
 2435 01d7 00       		.space	1
 2436 01d8 1B17     		.short	5915
 2437 01da 0E       		.byte	14
 2438 01db 2E       		.byte	46
ARM GAS  C:\Users\pbant\AppData\Local\Temp\ccAmOMRv.s 			page 81


 2439 01dc 11       		.byte	17
 2440 01dd 01       		.byte	1
 2441 01de DB       		.byte	-37
 2442 01df 00       		.space	1
 2443 01e0 6C17     		.short	5996
 2444 01e2 16       		.byte	22
 2445 01e3 25       		.byte	37
 2446 01e4 18       		.byte	24
 2447 01e5 00       		.byte	0
 2448 01e6 DC       		.byte	-36
 2449 01e7 00       		.space	1
 2450 01e8 D217     		.short	6098
 2451 01ea 0D       		.byte	13
 2452 01eb 2F       		.byte	47
 2453 01ec 10       		.byte	16
 2454 01ed 01       		.byte	1
 2455 01ee DA       		.byte	-38
 2456 01ef 00       		.space	1
 2457 01f0 1F18     		.short	6175
 2458 01f2 15       		.byte	21
 2459 01f3 12       		.byte	18
 2460 01f4 18       		.byte	24
 2461 01f5 01       		.byte	1
 2462 01f6 DF       		.byte	-33
 2463 01f7 00       		.space	1
 2464 01f8 4F18     		.short	6223
 2465 01fa 22       		.byte	34
 2466 01fb 06       		.byte	6
 2467 01fc 25       		.byte	37
 2468 01fd 01       		.byte	1
 2469 01fe 02       		.byte	2
 2470 01ff 00       		.space	1
 2471 0200 6918     		.short	6249
 2472 0202 09       		.byte	9
 2473 0203 08       		.byte	8
 2474 0204 0B       		.byte	11
 2475 0205 00       		.byte	0
 2476 0206 EA       		.byte	-22
 2477 0207 00       		.space	1
 2478 0208 7218     		.short	6258
 2479 020a 1B       		.byte	27
 2480 020b 1A       		.byte	26
 2481 020c 1C       		.byte	28
 2482 020d FF       		.byte	-1
 2483 020e E8       		.byte	-24
 2484 020f 00       		.space	1
 2485 0210 CA18     		.short	6346
 2486 0212 1B       		.byte	27
 2487 0213 23       		.byte	35
 2488 0214 1C       		.byte	28
 2489 0215 00       		.byte	0
 2490 0216 DE       		.byte	-34
 2491 0217 00       		.space	1
 2492 0218 4119     		.short	6465
 2493 021a 16       		.byte	22
 2494 021b 1A       		.byte	26
 2495 021c 18       		.byte	24
ARM GAS  C:\Users\pbant\AppData\Local\Temp\ccAmOMRv.s 			page 82


 2496 021d 00       		.byte	0
 2497 021e E8       		.byte	-24
 2498 021f 00       		.space	1
 2499 0220 8919     		.short	6537
 2500 0222 1A       		.byte	26
 2501 0223 24       		.byte	36
 2502 0224 1D       		.byte	29
 2503 0225 01       		.byte	1
 2504 0226 DE       		.byte	-34
 2505 0227 00       		.space	1
 2506 0228 FE19     		.short	6654
 2507 022a 1A       		.byte	26
 2508 022b 1A       		.byte	26
 2509 022c 1C       		.byte	28
 2510 022d 00       		.byte	0
 2511 022e E8       		.byte	-24
 2512 022f 00       		.space	1
 2513 0230 531A     		.short	6739
 2514 0232 15       		.byte	21
 2515 0233 23       		.byte	35
 2516 0234 14       		.byte	20
 2517 0235 FF       		.byte	-1
 2518 0236 DE       		.byte	-34
 2519 0237 00       		.space	1
 2520 0238 AF1A     		.short	6831
 2521 023a 1A       		.byte	26
 2522 023b 24       		.byte	36
 2523 023c 1B       		.byte	27
 2524 023d FF       		.byte	-1
 2525 023e E8       		.byte	-24
 2526 023f 00       		.space	1
 2527 0240 241B     		.short	6948
 2528 0242 17       		.byte	23
 2529 0243 23       		.byte	35
 2530 0244 19       		.byte	25
 2531 0245 00       		.byte	0
 2532 0246 DE       		.byte	-34
 2533 0247 00       		.space	1
 2534 0248 891B     		.short	7049
 2535 024a 08       		.byte	8
 2536 024b 23       		.byte	35
 2537 024c 0A       		.byte	10
 2538 024d 01       		.byte	1
 2539 024e DE       		.byte	-34
 2540 024f 00       		.space	1
 2541 0250 AC1B     		.short	7084
 2542 0252 11       		.byte	17
 2543 0253 2E       		.byte	46
 2544 0254 12       		.byte	18
 2545 0255 FF       		.byte	-1
 2546 0256 DE       		.byte	-34
 2547 0257 00       		.space	1
 2548 0258 0E1C     		.short	7182
 2549 025a 14       		.byte	20
 2550 025b 23       		.byte	35
 2551 025c 16       		.byte	22
 2552 025d 01       		.byte	1
ARM GAS  C:\Users\pbant\AppData\Local\Temp\ccAmOMRv.s 			page 83


 2553 025e DE       		.byte	-34
 2554 025f 00       		.space	1
 2555 0260 661C     		.short	7270
 2556 0262 07       		.byte	7
 2557 0263 23       		.byte	35
 2558 0264 0A       		.byte	10
 2559 0265 01       		.byte	1
 2560 0266 DE       		.byte	-34
 2561 0267 00       		.space	1
 2562 0268 851C     		.short	7301
 2563 026a 25       		.byte	37
 2564 026b 19       		.byte	25
 2565 026c 28       		.byte	40
 2566 026d 01       		.byte	1
 2567 026e E8       		.byte	-24
 2568 026f 00       		.space	1
 2569 0270 F91C     		.short	7417
 2570 0272 17       		.byte	23
 2571 0273 19       		.byte	25
 2572 0274 1A       		.byte	26
 2573 0275 01       		.byte	1
 2574 0276 E8       		.byte	-24
 2575 0277 00       		.space	1
 2576 0278 411D     		.short	7489
 2577 027a 1A       		.byte	26
 2578 027b 19       		.byte	25
 2579 027c 1B       		.byte	27
 2580 027d FF       		.byte	-1
 2581 027e E8       		.byte	-24
 2582 027f 00       		.space	1
 2583 0280 931D     		.short	7571
 2584 0282 1A       		.byte	26
 2585 0283 23       		.byte	35
 2586 0284 1D       		.byte	29
 2587 0285 01       		.byte	1
 2588 0286 E8       		.byte	-24
 2589 0287 00       		.space	1
 2590 0288 051E     		.short	7685
 2591 028a 1A       		.byte	26
 2592 028b 23       		.byte	35
 2593 028c 1D       		.byte	29
 2594 028d 00       		.byte	0
 2595 028e E8       		.byte	-24
 2596 028f 00       		.space	1
 2597 0290 771E     		.short	7799
 2598 0292 0F       		.byte	15
 2599 0293 19       		.byte	25
 2600 0294 10       		.byte	16
 2601 0295 00       		.byte	0
 2602 0296 E8       		.byte	-24
 2603 0297 00       		.space	1
 2604 0298 A61E     		.short	7846
 2605 029a 13       		.byte	19
 2606 029b 19       		.byte	25
 2607 029c 13       		.byte	19
 2608 029d FF       		.byte	-1
 2609 029e E8       		.byte	-24
ARM GAS  C:\Users\pbant\AppData\Local\Temp\ccAmOMRv.s 			page 84


 2610 029f 00       		.space	1
 2611 02a0 E21E     		.short	7906
 2612 02a2 11       		.byte	17
 2613 02a3 20       		.byte	32
 2614 02a4 11       		.byte	17
 2615 02a5 FF       		.byte	-1
 2616 02a6 E1       		.byte	-31
 2617 02a7 00       		.space	1
 2618 02a8 261F     		.short	7974
 2619 02aa 16       		.byte	22
 2620 02ab 19       		.byte	25
 2621 02ac 19       		.byte	25
 2622 02ad 01       		.byte	1
 2623 02ae E8       		.byte	-24
 2624 02af 00       		.space	1
 2625 02b0 6B1F     		.short	8043
 2626 02b2 18       		.byte	24
 2627 02b3 19       		.byte	25
 2628 02b4 1A       		.byte	26
 2629 02b5 01       		.byte	1
 2630 02b6 E8       		.byte	-24
 2631 02b7 00       		.space	1
 2632 02b8 B61F     		.short	8118
 2633 02ba 24       		.byte	36
 2634 02bb 19       		.byte	25
 2635 02bc 28       		.byte	40
 2636 02bd 01       		.byte	1
 2637 02be E8       		.byte	-24
 2638 02bf 00       		.space	1
 2639 02c0 2720     		.short	8231
 2640 02c2 1A       		.byte	26
 2641 02c3 19       		.byte	25
 2642 02c4 1A       		.byte	26
 2643 02c5 FF       		.byte	-1
 2644 02c6 E8       		.byte	-24
 2645 02c7 00       		.space	1
 2646 02c8 7920     		.short	8313
 2647 02ca 19       		.byte	25
 2648 02cb 23       		.byte	35
 2649 02cc 1B       		.byte	27
 2650 02cd 00       		.byte	0
 2651 02ce E8       		.byte	-24
 2652 02cf 00       		.space	1
 2653 02d0 E720     		.short	8423
 2654 02d2 18       		.byte	24
 2655 02d3 19       		.byte	25
 2656 02d4 19       		.byte	25
 2657 02d5 00       		.byte	0
 2658 02d6 E8       		.byte	-24
 2659 02d7 00       		.space	1
 2660 02d8 3221     		.short	8498
 2661 02da 0E       		.byte	14
 2662 02db 2E       		.byte	46
 2663 02dc 12       		.byte	18
 2664 02dd 01       		.byte	1
 2665 02de D8       		.byte	-40
 2666 02df 00       		.space	1
ARM GAS  C:\Users\pbant\AppData\Local\Temp\ccAmOMRv.s 			page 85


 2667 02e0 8321     		.short	8579
 2668 02e2 06       		.byte	6
 2669 02e3 2F       		.byte	47
 2670 02e4 09       		.byte	9
 2671 02e5 01       		.byte	1
 2672 02e6 D5       		.byte	-43
 2673 02e7 00       		.space	1
 2674 02e8 A721     		.short	8615
 2675 02ea 0F       		.byte	15
 2676 02eb 2E       		.byte	46
 2677 02ec 11       		.byte	17
 2678 02ed 01       		.byte	1
 2679 02ee D8       		.byte	-40
 2680 02ef 00       		.space	1
 2681 02f0 FE21     		.short	8702
 2682 02f2 17       		.byte	23
 2683 02f3 0A       		.byte	10
 2684 02f4 1B       		.byte	27
 2685 02f5 01       		.byte	1
 2686 02f6 EB       		.byte	-21
 2687 02f7 00       		.space	1
 2688              		.section	.rodata._ZL34VanillaExtractRegular20pt7bBitmaps,"a"
 2689              		.align	2
 2692              	_ZL34VanillaExtractRegular20pt7bBitmaps:
 2693 0000 007E7FBF 		.ascii	"\000~\177\277\337\357\363\371\374\376\177?\237\307\343"
 2693      DFEFF3F9 
 2693      FCFE7F3F 
 2693      9FC7E3
 2694 000f F1F8FC7E 		.ascii	"\361\370\374~?\037\217\307\343\341\360x\000\000\000"
 2694      3F1F8FC7 
 2694      E3E1F078 
 2694      000000
 2695 001e 0007C7F7 		.ascii	"\000\007\307\367\377\377\377\377\277\217\200x=\370\377"
 2695      FFFFFFFF 
 2695      BF8F8078 
 2695      3DF8FF
 2696 002d F1FFE3FF 		.ascii	"\361\377\343\377\307\377\217\377\037\376?\374\177\370"
 2696      C7FF8FFF 
 2696      1FFE3FFC 
 2696      7FF8
 2697 003b FFF1FFE3 		.ascii	"\377\361\377\343\377\307\357\007\200\000\007\200\340"
 2697      FFC7EF07 
 2697      80000780 
 2697      E0
 2698 0048 0007C0F8 		.ascii	"\000\007\300\370\000\003\340\374\000\001\360~\000\001"
 2698      0003E0FC 
 2698      0001F07E 
 2698      0001
 2699 0056 F83F0000 		.ascii	"\370?\000\000\370\037\200\000|\037\300\017\377\377\374"
 2699      F81F8000 
 2699      7C1FC00F 
 2699      FFFFFC
 2700 0065 0FFFFFFF 		.ascii	"\017\377\377\377\007\377\377\377\203\377\377\377\301"
 2700      07FFFFFF 
 2700      83FFFFFF 
 2700      C1
 2701 0072 FFFFFFE0 		.ascii	"\377\377\377\340\017\377\375\340\003\360\374\000\001"
ARM GAS  C:\Users\pbant\AppData\Local\Temp\ccAmOMRv.s 			page 86


 2701      0FFFFDE0 
 2701      03F0FC00 
 2701      01
 2702 007f F03E0000 		.ascii	"\360>\000\000\370\037\000\000\370\037\000\000|\017\200"
 2702      F81F0000 
 2702      F81F0000 
 2702      7C0F80
 2703 008e 003E0FC0 		.ascii	"\000>\017\300\000?\007\340\007\377\377\377\007\377\377"
 2703      003F07E0 
 2703      07FFFFFF 
 2703      07FFFF
 2704 009d FFC3FFFF 		.ascii	"\377\303\377\377\377\341\377\377\377\360\177\377\377"
 2704      FFE1FFFF 
 2704      FFF07FFF 
 2704      FF
 2705 00aa F01FFFFF 		.ascii	"\360\037\377\377\360\000\370\037\200\000|\037\200\000"
 2705      F000F81F 
 2705      80007C1F 
 2705      8000
 2706 00b8 7C0F8000 		.ascii	"|\017\200\000>\007\300\000\037\007\340\000\017\203\360"
 2706      3E07C000 
 2706      1F07E000 
 2706      0F83F0
 2707 00c7 000781F0 		.ascii	"\000\007\201\360\000\000\000\000\000\000\000<\000\000"
 2707      00000000 
 2707      0000003C 
 2707      0000
 2708 00d5 780000F0 		.ascii	"x\000\000\360\000\001\340\000\003\340\000?\360\001\377"
 2708      0001E000 
 2708      03E0003F 
 2708      F001FF
 2709 00e4 F80FFFF8 		.ascii	"\370\017\377\370?\377\370\177\377\361\374\363\363\361"
 2709      3FFFF87F 
 2709      FFF1FCF3 
 2709      F3F1
 2710 00f2 E3E7E3C7 		.ascii	"\343\347\343\307\217\307\200\037\317\000?\376\000?\374"
 2710      8FC7801F 
 2710      CF003FFE 
 2710      003FFC
 2711 0101 007FF800 		.ascii	"\000\177\370\000\177\374\000\177\376\000\177\377\000"
 2711      7FFC007F 
 2711      FE007FFF 
 2711      00
 2712 010e 3FFF001F 		.ascii	"?\377\000\037\377\000\037\376\000?\376\000y\374\340"
 2712      FF001FFE 
 2712      003FFE00 
 2712      79FCE0
 2713 011d F1FFE1E3 		.ascii	"\361\377\341\343\377\343\317\377\347\277\377\377\377"
 2713      FFE3CFFF 
 2713      E7BFFFFF 
 2713      FF
 2714 012a BFFFFE3F 		.ascii	"\277\377\376?\377\370?\377\360?\377\200\037\374\000"
 2714      FFF83FFF 
 2714      F03FFF80 
 2714      1FFC00
 2715 0139 03E00007 		.ascii	"\003\340\000\007\200\000\017\000\000\036\000\000<\000"
 2715      80000F00 
ARM GAS  C:\Users\pbant\AppData\Local\Temp\ccAmOMRv.s 			page 87


 2715      001E0000 
 2715      3C00
 2716 0147 03F0000C 		.ascii	"\003\360\000\014\000\003\377\000\007\200\001\377\340"
 2716      0003FF00 
 2716      078001FF 
 2716      E0
 2717 0154 03E000FF 		.ascii	"\003\340\000\377\374\000\370\000\177\377\200|\000\037"
 2717      FC00F800 
 2717      7FFF807C 
 2717      001F
 2718 0162 C7E01F00 		.ascii	"\307\340\037\000\017\340\374\017\200\003\360\037\003"
 2718      0FE0FC0F 
 2718      8003F01F 
 2718      03
 2719 016f E000FC07 		.ascii	"\340\000\374\007\301\360\000?\001\360|\000\017\300|"
 2719      C1F0003F 
 2719      01F07C00 
 2719      0FC07C
 2720 017e 3E0003F8 		.ascii	">\000\003\370?\017\200\000\177\037\207\300\000\037\377"
 2720      3F0F8000 
 2720      7F1F87C0 
 2720      001FFF
 2721 018d E3F00003 		.ascii	"\343\360\000\003\377\360\370\000\000\177\374~\000\000"
 2721      FFF0F800 
 2721      007FFC7E 
 2721      0000
 2722 019b 0FFC1F03 		.ascii	"\017\374\037\003\360\000\374\017\207\377\000\000\003"
 2722      F000FC0F 
 2722      87FF0000 
 2722      03
 2723 01a8 E3FFE000 		.ascii	"\343\377\340\000\001\361\377\374\000\000|\377\377\200"
 2723      01F1FFFC 
 2723      00007CFF 
 2723      FF80
 2724 01b6 003E3FFF 		.ascii	"\000>?\377\340\000\017\237\343\374\000\007\307\360\177"
 2724      E0000F9F 
 2724      E3FC0007 
 2724      C7F07F
 2725 01c5 0001F1F8 		.ascii	"\000\001\361\370\017\300\000\370~\003\360\000~\037\200"
 2725      0FC000F8 
 2725      7E03F000 
 2725      7E1F80
 2726 01d4 FC001F07 		.ascii	"\374\000\037\007\340?\000\017\201\374\037\300\003\340"
 2726      E03F000F 
 2726      81FC1FC0 
 2726      03E0
 2727 01e2 3F87E001 		.ascii	"?\207\340\001\360\017\377\370\000|\001\377\374\000>"
 2727      F00FFFF8 
 2727      007C01FF 
 2727      FC003E
 2728 01f1 003FFE00 		.ascii	"\000?\376\000\017\200\007\377\000\001\300\000\177\000"
 2728      0F8007FF 
 2728      0001C000 
 2728      7F00
 2729 01ff 001FC000 		.ascii	"\000\037\300\000\000\007\376\000\000\001\377\370\000"
 2729      0007FE00 
 2729      0001FFF8 
ARM GAS  C:\Users\pbant\AppData\Local\Temp\ccAmOMRv.s 			page 88


 2729      00
 2730 020c 003FFFC0 		.ascii	"\000?\377\300\000\003\377\374\000\000\177\377\340\000"
 2730      0003FFFC 
 2730      00007FFF 
 2730      E000
 2731 021a 07F0FE00 		.ascii	"\007\360\376\000\000~\007\340\000\007\340~\000\000~"
 2731      007E07E0 
 2731      0007E07E 
 2731      00007E
 2732 0229 07E00007 		.ascii	"\007\340\000\007\340\376\000\000?\037\300\000\003\373"
 2732      E0FE0000 
 2732      3F1FC000 
 2732      03FB
 2733 0237 F800001F 		.ascii	"\370\000\000\037\377\000\000\000\377\340\000\000\037"
 2733      FF000000 
 2733      FFE00000 
 2733      1F
 2734 0244 FC000007 		.ascii	"\374\000\000\007\377\200<\000\377\374\017\340\037\377"
 2734      FF803C00 
 2734      FFFC0FE0 
 2734      1FFF
 2735 0252 E1FE03FF 		.ascii	"\341\376\003\377\377\037\300\177\317\363\370\007\370"
 2735      FF1FC07F 
 2735      CFF3F807 
 2735      F8
 2736 025f 7FFF80FF 		.ascii	"\177\377\200\377\003\377\360\017\340\037\376\000\376"
 2736      03FFF00F 
 2736      E01FFE00 
 2736      FE
 2737 026c 00FFC00F 		.ascii	"\000\377\300\017\340\007\370\000\376\000\177\300\017"
 2737      E007F800 
 2737      FE007FC0 
 2737      0F
 2738 0279 F007FC00 		.ascii	"\360\007\374\000\177\301\377\360G\377\377\377\376?\377"
 2738      7FC1FFF0 
 2738      47FFFFFF 
 2738      FE3FFF
 2739 0288 FFFFE1FF 		.ascii	"\377\377\341\377\377\377\376\017\377\361\377\340?\376"
 2739      FFFFFE0F 
 2739      FFF1FFE0 
 2739      3FFE
 2740 0296 0FFC00FF 		.ascii	"\017\374\000\377\000?\000{\377\377\377\377\377\377\377"
 2740      003F007B 
 2740      FFFFFFFF 
 2740      FFFFFF
 2741 02a5 FFFDE000 		.ascii	"\377\375\340\000\340\017\200|\007\340\177\003\360?\201"
 2741      E00F807C 
 2741      07E07F03 
 2741      F03F81
 2742 02b4 F80FC0FE 		.ascii	"\370\017\300\376\007\340\177\003\360\037\201\374\017"
 2742      07E07F03 
 2742      F01F81FC 
 2742      0F
 2743 02c1 C07E03F0 		.ascii	"\300~\003\360?\201\374\017\340\177\003\370\037\300\376"
 2743      3F81FC0F 
 2743      E07F03F8 
 2743      1FC0FE
ARM GAS  C:\Users\pbant\AppData\Local\Temp\ccAmOMRv.s 			page 89


 2744 02d0 07F03F81 		.ascii	"\007\360?\201\374\017\340?\001\374\017\340\177\001\370"
 2744      FC0FE03F 
 2744      01FC0FE0 
 2744      7F01F8
 2745 02df 0FC03F01 		.ascii	"\017\300?\001\370\017\340?\001\374\007\340\037\200\374"
 2745      F80FE03F 
 2745      01FC07E0 
 2745      1F80FC
 2746 02ee 03E01F00 		.ascii	"\003\340\037\000pp\017\200\374\017\300\376\007\340\177"
 2746      70700F80 
 2746      FC0FC0FE 
 2746      07E07F
 2747 02fd 03F03F81 		.ascii	"\003\360?\201\370\037\300\374\017\300\376\007\340~\007"
 2747      F81FC0FC 
 2747      0FC0FE07 
 2747      E07E07
 2748 030c E03E03F0 		.ascii	"\340>\003\360?\003\360?\003\360?\003\360?\003\360\177"
 2748      3F03F03F 
 2748      03F03F03 
 2748      F03F03F0 
 2748      7F
 2749 031d 07F07F07 		.ascii	"\007\360\177\007\360\376\017\341\376\037\343\374?\303"
 2749      F0FE0FE1 
 2749      FE1FE3FC 
 2749      3FC3
 2750 032b F87F87F0 		.ascii	"\370\177\207\360\377\017\340\374\017\300\370\003\000"
 2750      FF0FE0FC 
 2750      0FC0F803 
 2750      00
 2751 0338 03E000F8 		.ascii	"\003\340\000\370\000>\000\007\200a\341>\377\357\377"
 2751      003E0007 
 2751      8061E13E 
 2751      FFEFFF
 2752 0347 FFFFFF7F 		.ascii	"\377\377\377\177\377\203\377\000\177\300?\370\037\376"
 2752      FF83FF00 
 2752      7FC03FF8 
 2752      1FFE
 2753 0355 07CFC1E1 		.ascii	"\007\317\301\341\360xx\000\000\000\000<\000\000\374"
 2753      F0787800 
 2753      0000003C 
 2753      0000FC
 2754 0364 0001F800 		.ascii	"\000\001\370\000\003\360\000\007\340\000\017\300\000"
 2754      03F00007 
 2754      E0000FC0 
 2754      00
 2755 0371 1F80003F 		.ascii	"\037\200\000?\000\177\377\375\377\377\377\377\377\377"
 2755      007FFFFD 
 2755      FFFFFFFF 
 2755      FFFF
 2756 037f FFFFFFFF 		.ascii	"\377\377\377\377\377\357\377\377\200\037\200\000?\000"
 2756      FFEFFFFF 
 2756      801F8000 
 2756      3F00
 2757 038d 007E0000 		.ascii	"\000~\000\000\374\000\001\370\000\003\360\000\007\340"
 2757      FC0001F8 
 2757      0003F000 
 2757      07E0
ARM GAS  C:\Users\pbant\AppData\Local\Temp\ccAmOMRv.s 			page 90


 2758 039b 00078000 		.ascii	"\000\007\200\000>?\277\377\377\373\374|\036\037\017"
 2758      3E3FBFFF 
 2758      FFFBFC7C 
 2758      1E1F0F
 2759 03aa 0F0F0F03 		.ascii	"\017\017\017\003\000\377\377\377\377\377\377\377\377"
 2759      00FFFFFF 
 2759      FFFFFFFF 
 2759      FF
 2760 03b7 FFFFFBFF 		.ascii	"\377\377\373\377\370>?\277\377\377\377\375\374|\000"
 2760      F83E3FBF 
 2760      FFFFFFFD 
 2760      FC7C00
 2761 03c6 00000000 		.ascii	"\000\000\000\000\370\000\003\360\000\007\340\000\037"
 2761      F80003F0 
 2761      0007E000 
 2761      1F
 2762 03d3 C0003F00 		.ascii	"\300\000?\000\000~\000\001\374\000\003\360\000\017\340"
 2762      007E0001 
 2762      FC0003F0 
 2762      000FE0
 2763 03e2 001F8000 		.ascii	"\000\037\200\000\177\000\000\374\000\003\370\000\007"
 2763      7F0000FC 
 2763      0003F800 
 2763      07
 2764 03ef E0001F80 		.ascii	"\340\000\037\200\000?\000\000\374\000\001\370\000\007"
 2764      003F0000 
 2764      FC0001F8 
 2764      0007
 2765 03fd E0000FC0 		.ascii	"\340\000\017\300\000?\000\000~\000\001\374\000\003\360"
 2765      003F0000 
 2765      7E0001FC 
 2765      0003F0
 2766 040c 000FE000 		.ascii	"\000\017\340\000\037\200\000\177\000\000\374\000\003"
 2766      1F80007F 
 2766      0000FC00 
 2766      03
 2767 0419 F80007E0 		.ascii	"\370\000\007\340\000\037\300\000?\000\000\376\000\001"
 2767      001FC000 
 2767      3F0000FE 
 2767      0001
 2768 0427 F80007F0 		.ascii	"\370\000\007\360\000\017\300\000\036\000\000\000\000"
 2768      000FC000 
 2768      1E000000 
 2768      00
 2769 0434 3F80001F 		.ascii	"?\200\000\037\376\000\017\377\340\003\377\376\000\377"
 2769      FE000FFF 
 2769      E003FFFE 
 2769      00FF
 2770 0442 FFE03FC1 		.ascii	"\377\340?\301\376\007\360\037\341\374\001\374?\000\037"
 2770      FE07F01F 
 2770      E1FC01FC 
 2770      3F001F
 2771 0451 CFE001F9 		.ascii	"\317\340\001\371\370\000??\000\007\357\300\000\177\370"
 2771      F8003F3F 
 2771      0007EFC0 
 2771      007FF8
 2772 0460 000FFF00 		.ascii	"\000\017\377\000\001\377\340\000?\374\000\007\377\200"
ARM GAS  C:\Users\pbant\AppData\Local\Temp\ccAmOMRv.s 			page 91


 2772      01FFE000 
 2772      3FFC0007 
 2772      FF80
 2773 046e 00FFF000 		.ascii	"\000\377\360\000\037\376\000\003\377\300\000\177\374"
 2773      1FFE0003 
 2773      FFC0007F 
 2773      FC
 2774 047b 001FDF80 		.ascii	"\000\037\337\200\003\363\360\000~\177\000\037\307\360"
 2774      03F3F000 
 2774      7E7F001F 
 2774      C7F0
 2775 0489 03F0FF00 		.ascii	"\003\360\377\000\376\017\360\177\300\377\377\360\037"
 2775      FE0FF07F 
 2775      C0FFFFF0 
 2775      1F
 2776 0496 FFFC01FF 		.ascii	"\377\374\001\377\377\000\017\377\300\000\377\360\000"
 2776      FF000FFF 
 2776      C000FFF0 
 2776      00
 2777 04a3 07F00000 		.ascii	"\007\360\000\000|\003\374\037\370\377\367\377\377\377"
 2777      7C03FC1F 
 2777      F8FFF7FF 
 2777      FFFF
 2778 04b1 FFFFFFFF 		.ascii	"\377\377\377\377\377\376\361\374\003\370\007\360\017"
 2778      FFFEF1FC 
 2778      03F807F0 
 2778      0F
 2779 04be E01FC03F 		.ascii	"\340\037\300?\200\177\000\376\001\374\003\370\007\360"
 2779      807F00FE 
 2779      01FC03F8 
 2779      07F0
 2780 04cc 0FE01FC0 		.ascii	"\017\340\037\300?\200\177\000\376\001\374\003\370\007"
 2780      3F807F00 
 2780      FE01FC03 
 2780      F807
 2781 04da F00FE01F 		.ascii	"\360\017\340\037\300?\200\177\000\376\000\370\000\177"
 2781      C03F807F 
 2781      00FE00F8 
 2781      007F
 2782 04e8 0000FFF8 		.ascii	"\000\000\377\370\000\177\377\000?\377\340\037\377\374"
 2782      007FFF00 
 2782      3FFFE01F 
 2782      FFFC
 2783 04f6 0FFFFF87 		.ascii	"\017\377\377\207\376\017\341\376\001\374\377\000\177"
 2783      FE0FE1FE 
 2783      01FCFF00 
 2783      7F
 2784 0503 1F800FC7 		.ascii	"\037\200\017\307\300\003\360@\000\374\000\000?\000\000"
 2784      C003F040 
 2784      00FC0000 
 2784      3F0000
 2785 0512 1FC00007 		.ascii	"\037\300\000\007\340\000\003\370\000\001\374\000\000"
 2785      E00003F8 
 2785      0001FC00 
 2785      00
 2786 051f FF00007F 		.ascii	"\377\000\000\177\200\000?\300\000?\340\000\037\360\000"
 2786      80003FC0 
ARM GAS  C:\Users\pbant\AppData\Local\Temp\ccAmOMRv.s 			page 92


 2786      003FE000 
 2786      1FF000
 2787 052e 0FF80007 		.ascii	"\017\370\000\007\374\000\003\376\000\001\376\000\000"
 2787      FC0003FE 
 2787      0001FE00 
 2787      00
 2788 053b FF00007F 		.ascii	"\377\000\000\177\200\000?\377\377\237\377\377\367\377"
 2788      80003FFF 
 2788      FF9FFFFF 
 2788      F7FF
 2789 0549 FFFDFFFF 		.ascii	"\377\375\377\377\377\177\377\377\317\377\377\340?\377"
 2789      FF7FFFFF 
 2789      CFFFFFE0 
 2789      3FFF
 2790 0557 FE3FFFFF 		.ascii	"\376?\377\377\237\377\377\317\377\377\347\377\377\361"
 2790      9FFFFFCF 
 2790      FFFFE7FF 
 2790      FFF1
 2791 0565 FFFFF000 		.ascii	"\377\377\360\000?\360\000\037\360\000\017\360\000\017"
 2791      3FF0001F 
 2791      F0000FF0 
 2791      000F
 2792 0573 F0000FF0 		.ascii	"\360\000\017\360\000\017\360\000\017\360\000\017\376"
 2792      000FF000 
 2792      0FF0000F 
 2792      FE
 2793 0580 000FFF80 		.ascii	"\000\017\377\200\007\377\360\003\377\374\000\377\377"
 2793      07FFF003 
 2793      FFFC00FF 
 2793      FF
 2794 058d 00003FC0 		.ascii	"\000\000?\300\000\017\340\000\007\370\000\001\374\000"
 2794      000FE000 
 2794      07F80001 
 2794      FC00
 2795 059b 00FE0000 		.ascii	"\000\376\000\000\177\000\000?\200\000\037\300\000\037"
 2795      7F00003F 
 2795      80001FC0 
 2795      001F
 2796 05a9 CF001FE7 		.ascii	"\317\000\037\347\340?\367\377\377\363\377\377\361\377"
 2796      E03FF7FF 
 2796      FFF3FFFF 
 2796      F1FF
 2797 05b7 FFF03FFF 		.ascii	"\377\360?\377\360\007\377\340\000\177\200\000\000\000"
 2797      F007FFE0 
 2797      007F8000 
 2797      0000
 2798 05c5 1E000000 		.ascii	"\036\000\000\000~\000\000\001\374\000\000\007\370\000"
 2798      7E000001 
 2798      FC000007 
 2798      F800
 2799 05d3 001FF000 		.ascii	"\000\037\360\000\000\177\340\000\001\377\300\000\007"
 2799      007FE000 
 2799      01FFC000 
 2799      07
 2800 05e0 FF80000F 		.ascii	"\377\200\000\017\377\000\000?\376\000\000\377\374\000"
 2800      FF00003F 
 2800      FE0000FF 
ARM GAS  C:\Users\pbant\AppData\Local\Temp\ccAmOMRv.s 			page 93


 2800      FC00
 2801 05ee 03FBF800 		.ascii	"\003\373\370\000\017\347\360\000?\217\340\000\376\037"
 2801      0FE7F000 
 2801      3F8FE000 
 2801      FE1F
 2802 05fc C003F83F 		.ascii	"\300\003\370?\200\017\340\177\000?\300\376\000\377\001"
 2802      800FE07F 
 2802      003FC0FE 
 2802      00FF01
 2803 060b FC03FC03 		.ascii	"\374\003\374\003\370\007\377\377\377\337\377\377\377"
 2803      F807FFFF 
 2803      FFDFFFFF 
 2803      FF
 2804 0618 FFFFFFFF 		.ascii	"\377\377\377\377\377\377\377\377\377\377\377\376\377"
 2804      FFFFFFFF 
 2804      FFFFFFFE 
 2804      FF
 2805 0625 FFFFF800 		.ascii	"\377\377\370\000\001\374\000\000\003\360\000\000\007"
 2805      01FC0000 
 2805      03F00000 
 2805      07
 2806 0632 E000000F 		.ascii	"\340\000\000\017\300\000\000\037\200\000\000?\000\000"
 2806      C000001F 
 2806      8000003F 
 2806      0000
 2807 0640 007E0000 		.ascii	"\000~\000\000\000\374\000\000\000\360\000\037\377\370"
 2807      00FC0000 
 2807      00F0001F 
 2807      FFF8
 2808 064e 3FFFFC7F 		.ascii	"?\377\374\177\377\374\177\377\374\177\377\374\177\377"
 2808      FFFC7FFF 
 2808      FC7FFFFC 
 2808      7FFF
 2809 065c F87E0000 		.ascii	"\370~\000\000~\000\000~\000\000~\000\000~\000\000~?"
 2809      7E00007E 
 2809      00007E00 
 2809      007E0000 
 2809      7E3F
 2810 066e 007EFFE0 		.ascii	"\000~\377\340\177\377\360\177\377\370\177\377\374\177"
 2810      7FFFF07F 
 2810      FFF87FFF 
 2810      FC7F
 2811 067c FFFE7FC1 		.ascii	"\377\376\177\301\376>\000\377\000\000\177\000\000?\000"
 2811      FE3E00FF 
 2811      00007F00 
 2811      003F00
 2812 068b 003F0000 		.ascii	"\000?\000\000?\000\000?\000\000?\000\000\177\000\000"
 2812      3F00003F 
 2812      00003F00 
 2812      007F0000 
 2813 069b 7F7000FE 		.ascii	"\177p\000\376~\003\376\377\377\376\377\377\374\377\377"
 2813      7E03FEFF 
 2813      FFFEFFFF 
 2813      FCFFFF
 2814 06aa F83FFFF0 		.ascii	"\370?\377\360\007\377\300\000\376\000\000\037\300\000"
 2814      07FFC000 
 2814      FE00001F 
ARM GAS  C:\Users\pbant\AppData\Local\Temp\ccAmOMRv.s 			page 94


 2814      C000
 2815 06b8 3FFE001F 		.ascii	"?\376\000\037\377\340\017\377\376\007\377\377\203\377"
 2815      FFE00FFF 
 2815      FE07FFFF 
 2815      83FF
 2816 06c6 FFE1FF03 		.ascii	"\377\341\377\003\360\177\000\020?\200\000\017\300\000"
 2816      F07F0010 
 2816      3F80000F 
 2816      C000
 2817 06d4 07F00001 		.ascii	"\007\360\000\001\370\000\000~\037\340?\237\376\017\337"
 2817      F800007E 
 2817      1FE03F9F 
 2817      FE0FDF
 2818 06e3 FFE3FFFF 		.ascii	"\377\343\377\377\374\377\377\377?\377\377\357\376\017"
 2818      FCFFFFFF 
 2818      3FFFFFEF 
 2818      FE0F
 2819 06f1 FBFE00FE 		.ascii	"\373\376\000\376\377\000\037\377\300\003\367\340\000"
 2819      FF001FFF 
 2819      C003F7E0 
 2819      00
 2820 06fe FDF8003F 		.ascii	"\375\370\000?\177\000\017\337\300\007\363\370\001\374"
 2820      7F000FDF 
 2820      C007F3F8 
 2820      01FC
 2821 070c FF00FE3F 		.ascii	"\377\000\376?\360\177\207\377\377\300\377\377\360\037"
 2821      F07F87FF 
 2821      FFC0FFFF 
 2821      F01F
 2822 071a FFF803FF 		.ascii	"\377\370\003\377\374\000?\376\000\003\374\000\177\377"
 2822      FC003FFE 
 2822      0003FC00 
 2822      7FFF
 2823 0728 FF7FFFFF 		.ascii	"\377\177\377\377\277\377\377\337\377\377\357\377\377"
 2823      BFFFFFDF 
 2823      FFFFEFFF 
 2823      FF
 2824 0735 F3FFFFF0 		.ascii	"\363\377\377\360\000\003\370\000\001\374\000\001\374"
 2824      0003F800 
 2824      01FC0001 
 2824      FC
 2825 0742 0000FE00 		.ascii	"\000\000\376\000\000\376\000\000\177\000\000\177\000"
 2825      00FE0000 
 2825      7F00007F 
 2825      00
 2826 074f 007F8000 		.ascii	"\000\177\200\000?\200\000?\300\000\037\300\000\037\340"
 2826      3F80003F 
 2826      C0001FC0 
 2826      001FE0
 2827 075e 000FE000 		.ascii	"\000\017\340\000\017\360\000\007\360\000\007\370\000"
 2827      0FF00007 
 2827      F00007F8 
 2827      00
 2828 076b 03F80003 		.ascii	"\003\370\000\003\374\000\001\374\000\001\376\000\000"
 2828      FC0001FC 
 2828      0001FE00 
 2828      00
ARM GAS  C:\Users\pbant\AppData\Local\Temp\ccAmOMRv.s 			page 95


 2829 0778 FE0000FF 		.ascii	"\376\000\000\377\000\000\377\000\000\177\200\000\177"
 2829      0000FF00 
 2829      007F8000 
 2829      7F
 2830 0785 80003F80 		.ascii	"\200\000?\200\000\037\300\000\017\300\000\007\300\000"
 2830      001FC000 
 2830      0FC00007 
 2830      C000
 2831 0793 00007FC0 		.ascii	"\000\000\177\300\000?\377\200\017\377\376\001\377\377"
 2831      003FFF80 
 2831      0FFFFE01 
 2831      FFFF
 2832 07a1 F03FFFFF 		.ascii	"\360?\377\377\203\377\377\374\177\340\377\307\370\003"
 2832      83FFFFFC 
 2832      7FE0FFC7 
 2832      F803
 2833 07af FC7F001F 		.ascii	"\374\177\000\037\307\360\001\374\177\000\037\307\360"
 2833      C7F001FC 
 2833      7F001FC7 
 2833      F0
 2834 07bc 03FC3F80 		.ascii	"\003\374?\200?\203\376\017\370\037\377\377\000\177\377"
 2834      3F83FE0F 
 2834      F81FFFFF 
 2834      007FFF
 2835 07cb E00FFFFE 		.ascii	"\340\017\377\376\001"
 2835      01
 2836 07d0 FFFFF83F 		.ascii	"\377\377\370?\377\377\307\374\007\376\177\200\037\377"
 2836      FFFFC7FC 
 2836      07FE7F80 
 2836      1FFF
 2837 07de F000FFFE 		.ascii	"\360\000\377\376\000\007\377\340\000\177\376\000\007"
 2837      0007FFE0 
 2837      007FFE00 
 2837      07
 2838 07eb FFE0007F 		.ascii	"\377\340\000\177\377\000\017\377\370\001\376\177\340"
 2838      FF000FFF 
 2838      F801FE7F 
 2838      E0
 2839 07f8 7FE7FFFF 		.ascii	"\177\347\377\377\374?\377\377\201\377\377\360\007\377"
 2839      FC3FFFFF 
 2839      81FFFFF0 
 2839      07FF
 2840 0806 FE003FFF 		.ascii	"\376\000?\377\200\000?\300\000\000\177\200\000\377\370"
 2840      80003FC0 
 2840      00007F80 
 2840      00FFF8
 2841 0815 00FFFF80 		.ascii	"\000\377\377\200\177\377\360?\377\376\017\377\377\307"
 2841      7FFFF03F 
 2841      FFFE0FFF 
 2841      FFC7
 2842 0823 FC0FF1FC 		.ascii	"\374\017\361\374\000\376\377\000\037\277\200\003\357"
 2842      00FEFF00 
 2842      1FBF8003 
 2842      EF
 2843 0830 E000FFF8 		.ascii	"\340\000\377\370\000?\376\000\017\377\300\007\377\360"
 2843      003FFE00 
 2843      0FFFC007 
ARM GAS  C:\Users\pbant\AppData\Local\Temp\ccAmOMRv.s 			page 96


 2843      FFF0
 2844 083e 03FDFF03 		.ascii	"\003\375\377\003\377\177\377\377\317\377\377\361\377"
 2844      FF7FFFFF 
 2844      CFFFFFF1 
 2844      FF
 2845 084b FFFC3FFF 		.ascii	"\377\374?\377\377\003\377\237\300?\207\340\000\001\370"
 2845      FF03FF9F 
 2845      C03F87E0 
 2845      0001F8
 2846 085a 00007E00 		.ascii	"\000\000~\000\000?\200\000\017\300\340\007\360~\007"
 2846      003F8000 
 2846      0FC0E007 
 2846      F07E07
 2847 0869 F81FFFFE 		.ascii	"\370\037\377\376\007\377\377\001\377\377\200?\377\300"
 2847      07FFFF01 
 2847      FFFF803F 
 2847      FFC0
 2848 0877 07FFC000 		.ascii	"\007\377\300\000?\300\000>?\277\377\377\377\375\374"
 2848      3FC0003E 
 2848      3FBFFFFF 
 2848      FFFDFC
 2849 0886 7C000000 		.ascii	"|\000\000\000\000\000\000\000\000\000\000\037\037\337"
 2849      00000000 
 2849      0000001F 
 2849      1FDF
 2850 0894 FFFFFFFE 		.ascii	"\377\377\377\376\376<\000>?\277\377\377\377\375\374"
 2850      FE3C003E 
 2850      3FBFFFFF 
 2850      FFFDFC
 2851 08a3 7C000000 		.ascii	"|\000\000\000\000\000\000\000\000\000\000\037\037\337"
 2851      00000000 
 2851      0000001F 
 2851      1FDF
 2852 08b1 FFFFFDFE 		.ascii	"\377\377\375\376>\017\017\217\207\207\207\201\200\000"
 2852      3E0F0F8F 
 2852      87878781 
 2852      8000
 2853 08bf 000E0000 		.ascii	"\000\016\000\000?\000\000\377\000\007\377\000\037\377"
 2853      3F0000FF 
 2853      0007FF00 
 2853      1FFF
 2854 08cd 00FFFE03 		.ascii	"\000\377\376\003\377\370\017\377\300\177\376\000\377"
 2854      FFF80FFF 
 2854      C07FFE00 
 2854      FF
 2855 08da F000FFC0 		.ascii	"\360\000\377\300\000\377\200\000\377\300\000\377\370"
 2855      00FF8000 
 2855      FFC000FF 
 2855      F8
 2856 08e7 007FFE00 		.ascii	"\000\177\376\000\037\377\300\007\377\370\001\377\376"
 2856      1FFFC007 
 2856      FFF801FF 
 2856      FE
 2857 08f4 003FFF00 		.ascii	"\000?\377\000\017\377\000\001\377\000\000?\000\000\006"
 2857      0FFF0001 
 2857      FF00003F 
 2857      000006
ARM GAS  C:\Users\pbant\AppData\Local\Temp\ccAmOMRv.s 			page 97


 2858 0903 FFFFFDFF 		.ascii	"\377\377\375\377\377\377\377\377\377\377\377\377\377"
 2858      FFFFFFFF 
 2858      FFFFFFFF 
 2858      FF
 2859 0910 FFFFFFFF 		.ascii	"\377\377\377\377\300\000\000\000\000\000\000\000\000"
 2859      C0000000 
 2859      00000000 
 2859      00
 2860 091d 00000000 		.ascii	"\000\000\000\000\000\000\000\000\017\377\377\337\377"
 2860      00000000 
 2860      0FFFFFDF 
 2860      FF
 2861 092a FFFFFFFF 		.ascii	"\377\377\377\377\377\377\377\377\377\377\377\377\374"
 2861      FFFFFFFF 
 2861      FFFFFFFF 
 2861      FC
 2862 0937 600000F8 		.ascii	"`\000\000\370\000\000\377\000\000\377\300\000\377\370"
 2862      0000FF00 
 2862      00FFC000 
 2862      FFF8
 2863 0945 007FFF00 		.ascii	"\000\177\377\000?\377\300\017\377\360\001\377\374\000"
 2863      3FFFC00F 
 2863      FFF001FF 
 2863      FC00
 2864 0953 3FFE0007 		.ascii	"?\376\000\007\376\000\001\377\000\007\376\000\037\376"
 2864      FE0001FF 
 2864      0007FE00 
 2864      1FFE
 2865 0961 00FFFE07 		.ascii	"\000\377\376\007\377\360?\377\300\177\376\000\377\370"
 2865      FFF03FFF 
 2865      C07FFE00 
 2865      FFF8
 2866 096f 00FFC000 		.ascii	"\000\377\300\000\377\000\000\370\000\000\340\000\000"
 2866      FF0000F8 
 2866      0000E000 
 2866      00
 2867 097c 03FE003F 		.ascii	"\003\376\000?\376\001\377\376\017\377\374\177\377\361"
 2867      FE01FFFE 
 2867      0FFFFC7F 
 2867      FFF1
 2868 098a FFFFEFF0 		.ascii	"\377\377\357\360\377\277\200\377\374\001\377\360\007"
 2868      FFBF80FF 
 2868      FC01FFF0 
 2868      07
 2869 0997 FF801FC0 		.ascii	"\377\200\037\300\000\177\000\001\370\000\017\340\000"
 2869      007F0001 
 2869      F8000FE0 
 2869      00
 2870 09a4 7F0007F8 		.ascii	"\177\000\007\370\000?\300\001\376\000\017\340\000\177"
 2870      003FC001 
 2870      FE000FE0 
 2870      007F
 2871 09b2 0001F800 		.ascii	"\000\001\370\000\007\340\000\037\200\000\000\000\000"
 2871      07E0001F 
 2871      80000000 
 2871      00
 2872 09bf 00000000 		.ascii	"\000\000\000\000\000\037\000\000\376\000\007\374\000"
ARM GAS  C:\Users\pbant\AppData\Local\Temp\ccAmOMRv.s 			page 98


 2872      001F0000 
 2872      FE0007FC 
 2872      00
 2873 09cc 1FF0007F 		.ascii	"\037\360\000\177\300\001\377\000\003\370\000\007\300"
 2873      C001FF00 
 2873      03F80007 
 2873      C0
 2874 09d9 0000003F 		.ascii	"\000\000\000?\360\000\000\000\037\377\360\000\000\003"
 2874      F0000000 
 2874      1FFFF000 
 2874      0003
 2875 09e7 FFFFF000 		.ascii	"\377\377\360\000\000\177\377\377\340\000\007\377\377"
 2875      007FFFFF 
 2875      E00007FF 
 2875      FF
 2876 09f4 FF80007F 		.ascii	"\377\200\000\177\360\037\376\000\007\376\000\037\370"
 2876      F01FFE00 
 2876      07FE001F 
 2876      F8
 2877 0a01 007FC000 		.ascii	"\000\177\300\000?\340\007\370\000\000\177\200\177\200"
 2877      3FE007F8 
 2877      00007F80 
 2877      7F80
 2878 0a0f 0001FE07 		.ascii	"\000\001\376\007\370\017\200\007\370?\203\377\036\037"
 2878      F80F8007 
 2878      F83F83FF 
 2878      1E1F
 2879 0a1d C3F83FFF 		.ascii	"\303\370?\377\370~\037\303\377\377\301\371\374?\377"
 2879      F87E1FC3 
 2879      FFFFC1F9 
 2879      FC3FFF
 2880 0a2c FE07CFE1 		.ascii	"\376\007\317\341\377\377\360>~\037\360\377\201\377\360"
 2880      FFFFF03E 
 2880      7E1FF0FF 
 2880      81FFF0
 2881 0a3b FE01FC07 		.ascii	"\376\001\374\007\377\017\340\017\340?\370~\000?\001"
 2881      FF0FE00F 
 2881      E03FF87E 
 2881      003F01
 2882 0a4a FFC3F001 		.ascii	"\377\303\360\001\370\017\376\037\200\017\300\177\360"
 2882      F80FFE1F 
 2882      800FC07F 
 2882      F0
 2883 0a57 FC007E03 		.ascii	"\374\000~\003\377\207\340\003\360\037\374?\200\037\201"
 2883      FF87E003 
 2883      F01FFC3F 
 2883      801F81
 2884 0a66 FFE1FC01 		.ascii	"\377\341\374\001\374\017\277\207\360\017\340|\374?\301"
 2884      FC0FBF87 
 2884      F00FE07C 
 2884      FC3FC1
 2885 0a75 FF07E7E0 		.ascii	"\377\007\347\340\377\377\370??\207\377\377\303\360\376"
 2885      FFFFF83F 
 2885      3F87FFFF 
 2885      C3F0FE
 2886 0a84 1FFFFF3F 		.ascii	"\037\377\377?\207\360\177\375\377\370\037\301\377\207"
 2886      87F07FFD 
ARM GAS  C:\Users\pbant\AppData\Local\Temp\ccAmOMRv.s 			page 99


 2886      FFF81FC1 
 2886      FF87
 2887 0a92 FF80FF03 		.ascii	"\377\200\377\003\360\037\370\003\374\000\000?\000\037"
 2887      F01FF803 
 2887      FC00003F 
 2887      001F
 2888 0aa0 F0000000 		.ascii	"\360\000\000\000\000\177\300\000\000\000\001\377\200"
 2888      007FC000 
 2888      000001FF 
 2888      80
 2889 0aad 00000007 		.ascii	"\000\000\000\007\377\000\000\000\000\037\377\000 \000"
 2889      FF000000 
 2889      001FFF00 
 2889      2000
 2890 0abb 003FFFFF 		.ascii	"\000?\377\377\200\000\000\377\377\374\000\000\001\377"
 2890      800000FF 
 2890      FFFC0000 
 2890      01FF
 2891 0ac9 FFE00000 		.ascii	"\377\340\000\000\003\377\376\000\000\000\003\377\000"
 2891      03FFFE00 
 2891      000003FF 
 2891      00
 2892 0ad6 00000007 		.ascii	"\000\000\000\007\300\000\000\177\200\000\001\377\000"
 2892      C000007F 
 2892      800001FF 
 2892      00
 2893 0ae3 000FFC00 		.ascii	"\000\017\374\000\000?\370\000\000\377\340\000\007\377"
 2893      003FF800 
 2893      00FFE000 
 2893      07FF
 2894 0af1 80001FFF 		.ascii	"\200\000\037\377\000\000\177\374\000\003\373\360\000"
 2894      00007FFC 
 2894      0003FBF0 
 2894      00
 2895 0afe 0FCFE000 		.ascii	"\017\317\340\000\177?\200\001\370~\000\007\341\374\000"
 2895      7F3F8001 
 2895      F87E0007 
 2895      E1FC00
 2896 0b0d 3F87F000 		.ascii	"?\207\360\000\374\017\300\007\360?\200\037\300\376\000"
 2896      FC0FC007 
 2896      F03F801F 
 2896      C0FE00
 2897 0b1c 7E01F803 		.ascii	"~\001\370\003\370\007\360\017\340\037\300?\200?\001"
 2897      F807F00F 
 2897      E01FC03F 
 2897      803F01
 2898 0b2b FFFFFE07 		.ascii	"\377\377\376\007\377\377\370\037\377\377\340\377\377"
 2898      FFFFF81F 
 2898      FFFFE0FF 
 2898      FF
 2899 0b38 FFC3FFFF 		.ascii	"\377\303\377\377\377\037\360\007\376\177\000\007\371"
 2899      FF1FF007 
 2899      FE7F0007 
 2899      F9
 2900 0b45 FC000FEF 		.ascii	"\374\000\017\357\340\000?\377\200\000\377\376\000\003"
 2900      E0003FFF 
 2900      8000FFFE 
ARM GAS  C:\Users\pbant\AppData\Local\Temp\ccAmOMRv.s 			page 100


 2900      0003
 2901 0b53 FDF00007 		.ascii	"\375\360\000\007\340\177\376\000?\377\360\017\377\377"
 2901      E07FFE00 
 2901      3FFFF00F 
 2901      FFFF
 2902 0b61 03FFFFE0 		.ascii	"\003\377\377\340\377\377\374?\300\377\217\340\037\343"
 2902      FFFFFC3F 
 2902      C0FF8FE0 
 2902      1FE3
 2903 0b6f F803FCFE 		.ascii	"\370\003\374\376\000\177?\200\037\317\340\007\363\370"
 2903      007F3F80 
 2903      1FCFE007 
 2903      F3F8
 2904 0b7d 01FCFE00 		.ascii	"\001\374\376\000\177?\200?\217\340\037\343\377\377\360"
 2904      7F3F803F 
 2904      8FE01FE3 
 2904      FFFFF0
 2905 0b8c FFFFF03F 		.ascii	"\377\377\360?\377\376\017\377\377\343\377\377\374\376"
 2905      FFFE0FFF 
 2905      FFE3FFFF 
 2905      FCFE
 2906 0b9a 00FFBF80 		.ascii	"\000\377\277\200\037\357\340\003\377\370\000\377\376"
 2906      1FEFE003 
 2906      FFF800FF 
 2906      FE
 2907 0ba7 003FFF80 		.ascii	"\000?\377\200\017\377\340\007\377\374\003\377\377\377"
 2907      0FFFE007 
 2907      FFFC03FF 
 2907      FFFF
 2908 0bb5 FFBFFFFF 		.ascii	"\377\277\377\377\357\377\377\363\377\377\370\377\377"
 2908      EFFFFFF3 
 2908      FFFFF8FF 
 2908      FF
 2909 0bc2 F81FFFF0 		.ascii	"\370\037\377\360\000\000\007\376\000\000\377\377\000"
 2909      000007FE 
 2909      0000FFFF 
 2909      00
 2910 0bcf 0FFFFF00 		.ascii	"\017\377\377\000\177\377\376\007\377\377\370?\377\377"
 2910      7FFFFE07 
 2910      FFFFF83F 
 2910      FFFF
 2911 0bdd E0FFC07F 		.ascii	"\340\377\300\177\207\374\000<?\340\000\000\377\000\000"
 2911      87FC003C 
 2911      3FE00000 
 2911      FF0000
 2912 0bec 07F80000 		.ascii	"\007\370\000\000\037\300\000\000\177\000\000\003\374"
 2912      1FC00000 
 2912      7F000003 
 2912      FC
 2913 0bf9 00000FE0 		.ascii	"\000\000\017\340\000\000?\200\000\000\376\000\000\003"
 2913      00003F80 
 2913      0000FE00 
 2913      0003
 2914 0c07 F800000F 		.ascii	"\370\000\000\017\340\000\000?\200\000\000\376\000\000"
 2914      E000003F 
 2914      800000FE 
 2914      0000
ARM GAS  C:\Users\pbant\AppData\Local\Temp\ccAmOMRv.s 			page 101


 2915 0c15 03FC0000 		.ascii	"\003\374\000\000\007\360\000\000\037\340\000\000\177"
 2915      07F00000 
 2915      1FE00000 
 2915      7F
 2916 0c22 C00000FF 		.ascii	"\300\000\000\377\200\000\003\377\000\017\007\377\200"
 2916      800003FF 
 2916      000F07FF 
 2916      80
 2917 0c2f FE0FFFFF 		.ascii	"\376\017\377\377\370\037\377\377\360?\377\377\200?\377"
 2917      F81FFFFF 
 2917      F03FFFFF 
 2917      803FFF
 2918 0c3e FC003FFF 		.ascii	"\374\000?\377\300\000\017\370\000\177\374\000\017\377"
 2918      C0000FF8 
 2918      007FFC00 
 2918      0FFF
 2919 0c4c FF00FFFF 		.ascii	"\377\000\377\377\374\017\377\377\360\377\377\377\217"
 2919      FC0FFFFF 
 2919      F0FFFFFF 
 2919      8F
 2920 0c59 FFFFFCFE 		.ascii	"\377\377\374\376\001\377\357\340\003\376\376\000\017"
 2920      01FFEFE0 
 2920      03FEFE00 
 2920      0F
 2921 0c66 EFE0007F 		.ascii	"\357\340\000\177\376\000\007\377\340\000\177\376\000"
 2921      FE0007FF 
 2921      E0007FFE 
 2921      00
 2922 0c73 03FFE000 		.ascii	"\003\377\340\000?\376\000\003\377\340\000?\376\000\003"
 2922      3FFE0003 
 2922      FFE0003F 
 2922      FE0003
 2923 0c82 FFE0003F 		.ascii	"\377\340\000?\376\000\003\377\340\000?\376\000\003\377"
 2923      FE0003FF 
 2923      E0003FFE 
 2923      0003FF
 2924 0c91 E0003FFE 		.ascii	"\340\000?\376\000\007\377\340\000\177\376\000\007\357"
 2924      0007FFE0 
 2924      007FFE00 
 2924      07EF
 2925 0c9f E001FEFE 		.ascii	"\340\001\376\376\000\177\357\377\377\374\377\377\377"
 2925      007FEFFF 
 2925      FFFCFFFF 
 2925      FF
 2926 0cac 8FFFFFF8 		.ascii	"\217\377\377\370\377\377\376\017\377\377\200\377\377"
 2926      FFFFFE0F 
 2926      FFFF80FF 
 2926      FF
 2927 0cb9 C0007FFF 		.ascii	"\300\000\177\377\373\377\377\377\377\377\377\377\377"
 2927      FBFFFFFF 
 2927      FFFFFFFF 
 2927      FF
 2928 0cc6 FFFFFFFF 		.ascii	"\377\377\377\377\377\357\300\000?\000\000\374\000\003"
 2928      FFEFC000 
 2928      3F0000FC 
 2928      0003
 2929 0cd4 F0000FC0 		.ascii	"\360\000\017\300\000?\000\000\374\000\003\370\000\017"
ARM GAS  C:\Users\pbant\AppData\Local\Temp\ccAmOMRv.s 			page 102


 2929      003F0000 
 2929      FC0003F8 
 2929      000F
 2930 0ce2 FFFE3FFF 		.ascii	"\377\376?\377\370\377\377\363\377\377\317\377\376?\377"
 2930      F8FFFFF3 
 2930      FFFFCFFF 
 2930      FE3FFF
 2931 0cf1 F8FC0003 		.ascii	"\370\374\000\003\360\000\017\300\000?\000\000\374\000"
 2931      F0000FC0 
 2931      003F0000 
 2931      FC00
 2932 0cff 03F0000F 		.ascii	"\003\360\000\017\300\000?\000\000\377\377\363\377\377"
 2932      C0003F00 
 2932      00FFFFF3 
 2932      FFFF
 2933 0d0d EFFFFFBF 		.ascii	"\357\377\377\277\377\376\377\377\371\377\377\340\037"
 2933      FFFEFFFF 
 2933      F9FFFFE0 
 2933      1F
 2934 0d1a FFFCFFFF 		.ascii	"\377\374\377\377\373\377\377\377\377\377\357\377\377"
 2934      FBFFFFFF 
 2934      FFFFEFFF 
 2934      FF
 2935 0d27 DFFFFFBF 		.ascii	"\337\377\377\277\300\000\177\000\000\376\000\001\374"
 2935      C0007F00 
 2935      00FE0001 
 2935      FC
 2936 0d34 0003F800 		.ascii	"\000\003\370\000\007\360\000\017\340\000\037\300\000"
 2936      07F0000F 
 2936      E0001FC0 
 2936      00
 2937 0d41 3FC0007F 		.ascii	"?\300\000\177\377\370\377\377\361\377\377\363\377\377"
 2937      FFF8FFFF 
 2937      F1FFFFF3 
 2937      FFFF
 2938 0d4f C7FFFF8F 		.ascii	"\307\377\377\217\377\377\037\300\000?\200\000\177\000"
 2938      FFFF1FC0 
 2938      003F8000 
 2938      7F00
 2939 0d5d 00FE0001 		.ascii	"\000\376\000\001\374\000\003\370\000\007\360\000\017"
 2939      FC0003F8 
 2939      0007F000 
 2939      0F
 2940 0d6a E0001FC0 		.ascii	"\340\000\037\300\000?\200\000\177\000\000\376\000\000"
 2940      003F8000 
 2940      7F0000FE 
 2940      0000
 2941 0d78 F8000000 		.ascii	"\370\000\000\000\000\377\300\000\177\377\200\007\377"
 2941      00FFC000 
 2941      7FFF8007 
 2941      FF
 2942 0d85 FE007FFF 		.ascii	"\376\000\177\377\370\003\377\377\340?\377\377\001\377"
 2942      F803FFFF 
 2942      E03FFFFF 
 2942      01FF
 2943 0d93 E00007FC 		.ascii	"\340\000\007\374\000\000?\340\000\000\376\000\000\007"
 2943      00003FE0 
ARM GAS  C:\Users\pbant\AppData\Local\Temp\ccAmOMRv.s 			page 103


 2943      0000FE00 
 2943      0007
 2944 0da1 F800001F 		.ascii	"\370\000\000\037\300\000\000~\000\000\003\370\000\000"
 2944      C000007E 
 2944      000003F8 
 2944      0000
 2945 0daf 0FE00000 		.ascii	"\017\340\000\000?\000\000\000\374\000\000\003\360\001"
 2945      3F000000 
 2945      FC000003 
 2945      F001
 2946 0dbd FF8FC00F 		.ascii	"\377\217\300\017\377\277\000?\377\374\000\377\377\360"
 2946      FFBF003F 
 2946      FFFC00FF 
 2946      FFF0
 2947 0dcb 03FFFFE0 		.ascii	"\003\377\377\340\007\377\337\200\000\177\177\000\000"
 2947      07FFDF80 
 2947      007F7F00 
 2947      00
 2948 0dd8 FDFE0003 		.ascii	"\375\376\000\003\363\374\000\017\317\374\000?\037\376"
 2948      F3FC000F 
 2948      CFFC003F 
 2948      1FFE
 2949 0de6 01F83FFF 		.ascii	"\001\370?\377\377\340\177\377\377\200\377\377\374\001"
 2949      FFE07FFF 
 2949      FF80FFFF 
 2949      FC01
 2950 0df4 FFFFF001 		.ascii	"\377\377\360\001\377\377\200\000\177\360\000|\000\007"
 2950      FFFF8000 
 2950      7FF0007C 
 2950      0007
 2951 0e02 DFC001FF 		.ascii	"\337\300\001\377\370\000?\377\000\007\377\340\000\377"
 2951      F8003FFF 
 2951      0007FFE0 
 2951      00FF
 2952 0e10 FC001FFF 		.ascii	"\374\000\037\377\200\003\377\360\000\177\376\000\017"
 2952      8003FFF0 
 2952      007FFE00 
 2952      0F
 2953 0e1d FFC001FF 		.ascii	"\377\300\001\377\370\000?\377\000\007\377\340\000\377"
 2953      F8003FFF 
 2953      0007FFE0 
 2953      00FF
 2954 0e2b FC001FFF 		.ascii	"\374\000\037\377\377\377\377\377\377\377\377\377\377"
 2954      FFFFFFFF 
 2954      FFFFFFFF 
 2954      FF
 2955 0e38 FFFFFFFF 		.ascii	"\377\377\377\377\377\377\377\377\377\377\377\340\001"
 2955      FFFFFFFF 
 2955      FFFFFFE0 
 2955      01
 2956 0e45 FFFC001F 		.ascii	"\377\374\000\037\377\200\003\377\360\000\177\376\000"
 2956      FF8003FF 
 2956      F0007FFE 
 2956      00
 2957 0e52 0FFFC001 		.ascii	"\017\377\300\001\377\370\000?\377\000\007\377\340\000"
 2957      FFF8003F 
 2957      FF0007FF 
ARM GAS  C:\Users\pbant\AppData\Local\Temp\ccAmOMRv.s 			page 104


 2957      E000
 2958 0e60 FFFC001F 		.ascii	"\377\374\000\037\377\200\003\377\360\000\177<\000\007"
 2958      FF8003FF 
 2958      F0007F3C 
 2958      0007
 2959 0e6e C07DFFFF 		.ascii	"\300}\377\377\377\377\377\377\377\377\377\377\377\377"
 2959      FFFFFFFF 
 2959      FFFFFFFF 
 2959      FFFF
 2960 0e7c FFFFFFFF 		.ascii	"\377\377\377\377\377\377\377\377\377\377\377\377\377"
 2960      FFFFFFFF 
 2960      FFFFFFFF 
 2960      FF
 2961 0e89 FFBE3800 		.ascii	"\377\2768\000\000\007\300\000\001\374\000\000?\200\000"
 2961      0007C000 
 2961      01FC0000 
 2961      3F8000
 2962 0e98 07F00000 		.ascii	"\007\360\000\000\376\000\000\037\300\000\003\370\000"
 2962      FE00001F 
 2962      C00003F8 
 2962      00
 2963 0ea5 007F0000 		.ascii	"\000\177\000\000\017\340\000\001\374\000\000?\200\000"
 2963      0FE00001 
 2963      FC00003F 
 2963      8000
 2964 0eb3 07F00000 		.ascii	"\007\360\000\000\376\000\000\037\300\000\003\370\000"
 2964      FE00001F 
 2964      C00003F8 
 2964      00
 2965 0ec0 007F0000 		.ascii	"\000\177\000\000\017\341\000\001\375\370\000?\277\000"
 2965      0FE10001 
 2965      FDF8003F 
 2965      BF00
 2966 0ece 07FFE000 		.ascii	"\007\377\340\000\377\374\000\037\377\200\003\377\360"
 2966      FFFC001F 
 2966      FF8003FF 
 2966      F0
 2967 0edb 007FFE00 		.ascii	"\000\177\376\000\017\377\300\003\375\374\000\177?\300"
 2967      0FFFC003 
 2967      FDFC007F 
 2967      3FC0
 2968 0ee9 1FE7FC0F 		.ascii	"\037\347\374\017\370\177\377\377\007\377\377\300\177"
 2968      F87FFFFF 
 2968      07FFFFC0 
 2968      7F
 2969 0ef6 FFF007FF 		.ascii	"\377\360\007\377\374\000\177\376\000\001\376\000\000"
 2969      FC007FFE 
 2969      0001FE00 
 2969      00
 2970 0f03 3C007C7F 		.ascii	"<\000|\177\000\177?\200\177\237\300\177\217\340?\307"
 2970      007F3F80 
 2970      7F9FC07F 
 2970      8FE03FC7 
 2971 0f13 F03FC3F8 		.ascii	"\360?\303\370?\301\374\037\340\376\037\340\177\037\340"
 2971      3FC1FC1F 
 2971      E0FE1FE0 
 2971      7F1FE0
ARM GAS  C:\Users\pbant\AppData\Local\Temp\ccAmOMRv.s 			page 105


 2972 0f22 3F8FE01F 		.ascii	"?\217\340\037\317\360\017\357\360\007\377\360\003\377"
 2972      CFF00FEF 
 2972      F007FFF0 
 2972      03FF
 2973 0f30 F801FFF8 		.ascii	"\370\001\377\370\000\377\374\000\177\376\000?\377\200"
 2973      00FFFC00 
 2973      7FFE003F 
 2973      FF80
 2974 0f3e 1FFFE00F 		.ascii	"\037\377\340\017\377\360\007\377\374\003\370\377\001"
 2974      FFF007FF 
 2974      FC03F8FF 
 2974      01
 2975 0f4b FC3FC0FE 		.ascii	"\374?\300\376\037\340\177\007\370?\201\376\037\300\177"
 2975      1FE07F07 
 2975      F83F81FE 
 2975      1FC07F
 2976 0f5a 8FE03FC7 		.ascii	"\217\340?\307\360\017\363\370\003\375\374\001\376\376"
 2976      F00FF3F8 
 2976      03FDFC01 
 2976      FEFE
 2977 0f68 007FBE00 		.ascii	"\000\177\276\000\037\200|\000\003\370\000\017\340\000"
 2977      1F807C00 
 2977      03F8000F 
 2977      E000
 2978 0f76 3F8000FE 		.ascii	"?\200\000\376\000\003\370\000\017\340\000?\200\000\376"
 2978      0003F800 
 2978      0FE0003F 
 2978      8000FE
 2979 0f85 0003F800 		.ascii	"\000\003\370\000\017\340\000?\200\000\376\000\003\370"
 2979      0FE0003F 
 2979      8000FE00 
 2979      03F8
 2980 0f93 000FE000 		.ascii	"\000\017\340\000?\200\000\376\000\003\370\000\017"
 2980      3F8000FE 
 2980      0003F800 
 2980      0F
 2981 0fa0 E0003F80 		.ascii	"\340\000?\200\000\376\000\003\370\000\017\340\000?\200"
 2981      00FE0003 
 2981      F8000FE0 
 2981      003F80
 2982 0faf 00FE0003 		.ascii	"\000\376\000\003\370\000\017\340\000?\200\000\377\377"
 2982      F8000FE0 
 2982      003F8000 
 2982      FFFF
 2983 0fbd F3FFFFEF 		.ascii	"\363\377\377\357\377\377\277\377\377\377\377\371\377"
 2983      FFFFBFFF 
 2983      FFFFFFF9 
 2983      FF
 2984 0fca FFC007C0 		.ascii	"\377\300\007\300\000\007\300\037\300\000\017\300?\200"
 2984      0007C01F 
 2984      C0000FC0 
 2984      3F80
 2985 0fd8 003FC0FF 		.ascii	"\000?\300\377\000\000\177\201\377\000\001\377\003\376"
 2985      00007F81 
 2985      FF0001FF 
 2985      03FE
 2986 0fe6 0003FE07 		.ascii	"\000\003\376\007\374\000\007\374\017\374\000\037\370"
ARM GAS  C:\Users\pbant\AppData\Local\Temp\ccAmOMRv.s 			page 106


 2986      FC0007FC 
 2986      0FFC001F 
 2986      F8
 2987 0ff3 1FF8003F 		.ascii	"\037\370\000?\360?\370\000\377\360\177\360\001\377\341"
 2987      F03FF800 
 2987      FFF07FF0 
 2987      01FFE1
 2988 1002 FFE007FF 		.ascii	"\377\340\007\377\303\377\340\017\377\207\377\300\037"
 2988      C3FFE00F 
 2988      FF87FFC0 
 2988      1F
 2989 100f FF0FFF80 		.ascii	"\377\017\377\200~\376\037\237\200\375\374??\003\363"
 2989      7EFE1F9F 
 2989      80FDFC3F 
 2989      3F03F3
 2990 101e F87E7F07 		.ascii	"\370~\177\007\347\371\374~\017\307\363\370\376?\017"
 2990      E7F9FC7E 
 2990      0FC7F3F8 
 2990      FE3F0F
 2991 102d E7F0FC7E 		.ascii	"\347\360\374~\037\317\341\375\370?\237\203\373\360\177"
 2991      1FCFE1FD 
 2991      F83F9F83 
 2991      FBF07F
 2992 103c 3F03FFE0 		.ascii	"?\003\377\340\376~\007\377\201\374\374\007\377\003\373"
 2992      FE7E07FF 
 2992      81FCFC07 
 2992      FF03FB
 2993 104b F80FFE07 		.ascii	"\370\017\376\007\377\360\017\370\017\377\340\037\360"
 2993      FFF00FF8 
 2993      0FFFE01F 
 2993      F0
 2994 1058 0FFFC01F 		.ascii	"\017\377\300\037\300\037\377\200?\200?\377\000>\000"
 2994      C01FFF80 
 2994      3F803FFF 
 2994      003E00
 2995 1067 7FFC0078 		.ascii	"\177\374\000x\000\376\360\000\000\000\370x\000\007\337"
 2995      00FEF000 
 2995      0000F878 
 2995      0007DF
 2996 1076 8001FFF8 		.ascii	"\200\001\377\370\000?\377\200\007\377\360\000\377\377"
 2996      003FFF80 
 2996      07FFF000 
 2996      FFFF
 2997 1084 001FFFF0 		.ascii	"\000\037\377\360\003\377\377\000\177\377\340\017\377"
 2997      03FFFF00 
 2997      7FFFE00F 
 2997      FF
 2998 1091 FE01FFFF 		.ascii	"\376\001\377\377\340?\377\374\007\377\377\300\377\377"
 2998      E03FFFFC 
 2998      07FFFFC0 
 2998      FFFF
 2999 109f FC1FFFBF 		.ascii	"\374\037\377\277\303\377\363\370\177\376?\217\377\307"
 2999      C3FFF3F8 
 2999      7FFE3F8F 
 2999      FFC7
 3000 10ad F9FFF87F 		.ascii	"\371\377\370\177?\377\007\367\377\340\377\377\374\017"
 3000      3FFF07F7 
ARM GAS  C:\Users\pbant\AppData\Local\Temp\ccAmOMRv.s 			page 107


 3000      FFE0FFFF 
 3000      FC0F
 3001 10bb FFFF80FF 		.ascii	"\377\377\200\377\377\360\037\377\376\001\377\377\300"
 3001      FFF01FFF 
 3001      FE01FFFF 
 3001      C0
 3002 10c8 1FFFF801 		.ascii	"\037\377\370\001\377\377\000?\377\340\003\377\374\000"
 3002      FFFF003F 
 3002      FFE003FF 
 3002      FC00
 3003 10d6 3FFF8007 		.ascii	"?\377\200\007\377\360\000\177\376\000\007\357\200\000"
 3003      FFF0007F 
 3003      FE0007EF 
 3003      8000
 3004 10e4 780007FC 		.ascii	"x\000\007\374\000\000\007\377\360\000\003\377\377\200"
 3004      000007FF 
 3004      F00003FF 
 3004      FF80
 3005 10f2 00FFFFF8 		.ascii	"\000\377\377\370\000\177\377\377\300\037\377\377\374"
 3005      007FFFFF 
 3005      C01FFFFF 
 3005      FC
 3006 10ff 03FF01FF 		.ascii	"\003\377\001\377\300\377\200\017\370?\340\000\377\207"
 3006      C0FF800F 
 3006      F83FE000 
 3006      FF87
 3007 110d F8000FF1 		.ascii	"\370\000\017\361\376\000\000\377?\200\000\017\357\360"
 3007      FE0000FF 
 3007      3F80000F 
 3007      EFF0
 3008 111b 0001FDFC 		.ascii	"\000\001\375\374\000\000?\377\200\000\003\377\360\000"
 3008      00003FFF 
 3008      800003FF 
 3008      F000
 3009 1129 007FFE00 		.ascii	"\000\177\376\000\000\017\377\300\000\001\377\370\000"
 3009      000FFFC0 
 3009      0001FFF8 
 3009      00
 3010 1136 003FFF00 		.ascii	"\000?\377\000\000\007\367\340\000\000\376\376\000\000"
 3010      0007F7E0 
 3010      0000FEFE 
 3010      0000
 3011 1144 3F9FC000 		.ascii	"?\237\300\000\007\361\374\000\001\376?\300\000\177\203"
 3011      07F1FC00 
 3011      01FE3FC0 
 3011      007F83
 3012 1153 FC001FF0 		.ascii	"\374\000\037\360\177\300\007\374\007\376\003\377\000"
 3012      7FC007FC 
 3012      07FE03FF 
 3012      00
 3013 1160 7FFFFFE0 		.ascii	"\177\377\377\340\007\377\377\360\000\177\377\374\000"
 3013      07FFFFF0 
 3013      007FFFFC 
 3013      00
 3014 116d 03FFFF00 		.ascii	"\003\377\377\000\000?\377\200\000\000\377\200\000\177"
 3014      003FFF80 
 3014      0000FF80 
ARM GAS  C:\Users\pbant\AppData\Local\Temp\ccAmOMRv.s 			page 108


 3014      007F
 3015 117b FFC07FFF 		.ascii	"\377\300\177\377\370?\377\376\037\377\377\217\377\377"
 3015      F83FFFFE 
 3015      1FFFFF8F 
 3015      FFFF
 3016 1189 E7F81FFB 		.ascii	"\347\370\037\373\370\003\375\374\000\377\374\000\177"
 3016      F803FDFC 
 3016      00FFFC00 
 3016      7F
 3017 1196 FE001FFF 		.ascii	"\376\000\037\377\000\017\377\300\007\377\340\003\377"
 3017      000FFFC0 
 3017      07FFE003 
 3017      FF
 3018 11a3 F003FFFC 		.ascii	"\360\003\377\374\001\377\377\001\376\377\377\377\177"
 3018      01FFFF01 
 3018      FEFFFFFF 
 3018      7F
 3019 11b0 FFFF3FFF 		.ascii	"\377\377?\377\377\037\377\377\017\377\377\007\377\376"
 3019      FF1FFFFF 
 3019      0FFFFF07 
 3019      FFFE
 3020 11be 03F80001 		.ascii	"\003\370\000\001\374\000\000\376\000\000\177\000\000"
 3020      FC0000FE 
 3020      00007F00 
 3020      00
 3021 11cb 3F80001F 		.ascii	"?\200\000\037\300\000\017\340\000\007\360\000\003\370"
 3021      C0000FE0 
 3021      0007F000 
 3021      03F8
 3022 11d9 0001FC00 		.ascii	"\000\001\374\000\000\376\000\000\010\000\000\000\000"
 3022      00FE0000 
 3022      08000000 
 3022      00
 3023 11e6 07FC0000 		.ascii	"\007\374\000\000\007\377\360\000\003\377\377\200\000"
 3023      07FFF000 
 3023      03FFFF80 
 3023      00
 3024 11f3 FFFFF800 		.ascii	"\377\377\370\000?\377\377\300\017\377\377\374\003\377"
 3024      3FFFFFC0 
 3024      0FFFFFFC 
 3024      03FF
 3025 1201 01FF80FF 		.ascii	"\001\377\200\377\200\017\370?\340\000\177\207\370\000"
 3025      800FF83F 
 3025      E0007F87 
 3025      F800
 3026 120f 07F9FE00 		.ascii	"\007\371\376\000\000\377?\200\000\017\347\360\000\001"
 3026      00FF3F80 
 3026      000FE7F0 
 3026      0001
 3027 121d FFFE0000 		.ascii	"\377\376\000\000\037\377\200\000\003\377\360\000\000"
 3027      1FFF8000 
 3027      03FFF000 
 3027      00
 3028 122a 7FFE0000 		.ascii	"\177\376\000\000\017\377\300\000\001\377\370\000\000"
 3028      0FFFC000 
 3028      01FFF800 
 3028      00
ARM GAS  C:\Users\pbant\AppData\Local\Temp\ccAmOMRv.s 			page 109


 3029 1237 3FFF0000 		.ascii	"?\377\000\000\007\377\340\000\000\376\376\000\000?\237"
 3029      07FFE000 
 3029      00FEFE00 
 3029      003F9F
 3030 1246 C00007F3 		.ascii	"\300\000\007\363\374\000\001\376?\300\000?\207\370\000"
 3030      FC0001FE 
 3030      3FC0003F 
 3030      87F800
 3031 1255 0FF07FC0 		.ascii	"\017\360\177\300\007\374\017\376\003\377\200\377\377"
 3031      07FC0FFE 
 3031      03FF80FF 
 3031      FF
 3032 1262 FFE00FFF 		.ascii	"\377\340\017\377\377\370\000\377\377\376\000\007\377"
 3032      FFF800FF 
 3032      FFFE0007 
 3032      FF
 3033 126f FF80003F 		.ascii	"\377\200\000?\377\300\000\000\377\340\000\000\017\374"
 3033      FFC00000 
 3033      FFE00000 
 3033      0FFC
 3034 127d 000000FF 		.ascii	"\000\000\000\377\360\000\000\037\377\340\000\003\377"
 3034      F000001F 
 3034      FFE00003 
 3034      FF
 3035 128a FE00003F 		.ascii	"\376\000\000?\377\300\000\000\377\370\000\000\003\377"
 3035      FFC00000 
 3035      FFF80000 
 3035      03FF
 3036 1298 00000007 		.ascii	"\000\000\000\007\300\177\377\300\177\377\370?\377\377"
 3036      C07FFFC0 
 3036      7FFFF83F 
 3036      FFFF
 3037 12a6 1FFFFFCF 		.ascii	"\037\377\377\317\377\377\347\377\377\373\374\003\375"
 3037      FFFFE7FF 
 3037      FFFBFC03 
 3037      FD
 3038 12b3 FC00FFFE 		.ascii	"\374\000\377\376\000?\377\000\037\377\200\017\377\300"
 3038      003FFF00 
 3038      1FFF800F 
 3038      FFC0
 3039 12c1 07FFE003 		.ascii	"\007\377\340\003\377\360\001\377\370\001\377\374\001"
 3039      FFF001FF 
 3039      F801FFFC 
 3039      01
 3040 12ce FEFFFFFF 		.ascii	"\376\377\377\377\177\377\377\277\377\377\237\377\377"
 3040      7FFFFFBF 
 3040      FFFF9FFF 
 3040      FF
 3041 12db 8FFFFF07 		.ascii	"\217\377\377\007\377\377\003\370\177\201\374\037\300"
 3041      FFFF03F8 
 3041      7F81FC1F 
 3041      C0
 3042 12e8 FE0FF07F 		.ascii	"\376\017\360\177\003\374?\201\376\037\300\177\217\340"
 3042      03FC3F81 
 3042      FE1FC07F 
 3042      8FE0
 3043 12f6 3FE7F00F 		.ascii	"?\347\360\017\363\370\007\375\374\001\376\376\000\377"
ARM GAS  C:\Users\pbant\AppData\Local\Temp\ccAmOMRv.s 			page 110


 3043      F3F807FD 
 3043      FC01FEFE 
 3043      00FF
 3044 1304 BE003FC0 		.ascii	"\276\000?\300\000\007\000\000\377\000\003\377\300\017"
 3044      00070000 
 3044      FF0003FF 
 3044      C00F
 3045 1312 FFF01FFF 		.ascii	"\377\360\037\377\370?\377\374?\377\374?\301\376\177"
 3045      F83FFFFC 
 3045      3FFFFC3F 
 3045      C1FE7F
 3046 1321 80FE7F00 		.ascii	"\200\376\177\000|\177\0008\177\000\000\177\200\000\177"
 3046      7C7F0038 
 3046      7F00007F 
 3046      80007F
 3047 1330 C0003FF0 		.ascii	"\300\000?\360\000?\376\000\037\377\200\007\377\340\001"
 3047      003FFE00 
 3047      1FFF8007 
 3047      FFE001
 3048 133f FFF8003F 		.ascii	"\377\370\000?\374\000\017\376\000\001\376\000\000\377"
 3048      FC000FFE 
 3048      0001FE00 
 3048      00FF
 3049 134d 00007F00 		.ascii	"\000\000\177\000\000?8\000?\374\000?\376\000\177\377"
 3049      003F3800 
 3049      3FFC003F 
 3049      FE007FFF 
 3050 135d 00FF7FC1 		.ascii	"\000\377\177\301\376\177\377\376?\377\374\037\377\370"
 3050      FE7FFFFE 
 3050      3FFFFC1F 
 3050      FFF8
 3051 136b 0FFFF007 		.ascii	"\017\377\360\007\377\340\000\377\000\177\377\377\337"
 3051      FFE000FF 
 3051      007FFFFF 
 3051      DF
 3052 1378 FFFFFFFF 		.ascii	"\377\377\377\377\377\377\377\377\377\377\377\377\376"
 3052      FFFFFFFF 
 3052      FFFFFFFF 
 3052      FE
 3053 1385 FFFFFF80 		.ascii	"\377\377\377\200\017\340\000\001\374\000\000?\200\000"
 3053      0FE00001 
 3053      FC00003F 
 3053      8000
 3054 1393 07F00000 		.ascii	"\007\360\000\000\376\000\000\037\300\000\003\370\000"
 3054      FE00001F 
 3054      C00003F8 
 3054      00
 3055 13a0 007F0000 		.ascii	"\000\177\000\000\017\340\000\001\374\000\000?\200\000"
 3055      0FE00001 
 3055      FC00003F 
 3055      8000
 3056 13ae 07F00000 		.ascii	"\007\360\000\000\376\000\000\037\300\000\003\370\000"
 3056      FE00001F 
 3056      C00003F8 
 3056      00
 3057 13bb 007F0000 		.ascii	"\000\177\000\000\017\340\000\001\374\000\000?\200\000"
 3057      0FE00001 
ARM GAS  C:\Users\pbant\AppData\Local\Temp\ccAmOMRv.s 			page 111


 3057      FC00003F 
 3057      8000
 3058 13c9 07F00000 		.ascii	"\007\360\000\000\376\000\000\037\300\000\003\370\000"
 3058      FE00001F 
 3058      C00003F8 
 3058      00
 3059 13d6 007F0000 		.ascii	"\000\177\000\000\017\340\000\001\374\000\000\037\000"
 3059      0FE00001 
 3059      FC00001F 
 3059      00
 3060 13e3 00008000 		.ascii	"\000\000\200\000|\000\007\337\300\001\377\370\000?\377"
 3060      7C0007DF 
 3060      C001FFF8 
 3060      003FFF
 3061 13f2 0007FFE0 		.ascii	"\000\007\377\340\000\377\374\000\037\377\200\003\377"
 3061      00FFFC00 
 3061      1FFF8003 
 3061      FF
 3062 13ff F0007FFE 		.ascii	"\360\000\177\376\000\017\377\300\001\377\370\000?\377"
 3062      000FFFC0 
 3062      01FFF800 
 3062      3FFF
 3063 140d 0007FFE0 		.ascii	"\000\007\377\340\000\377\374\000\037\377\200\003\377"
 3063      00FFFC00 
 3063      1FFF8003 
 3063      FF
 3064 141a F0007FFE 		.ascii	"\360\000\177\376\000\017\377\300\001\377\370\000?\377"
 3064      000FFFC0 
 3064      01FFF800 
 3064      3FFF
 3065 1428 0007FFE0 		.ascii	"\000\007\377\340\000\377\374\000\037\377\200\003\377"
 3065      00FFFC00 
 3065      1FFF8003 
 3065      FF
 3066 1435 F0007FFF 		.ascii	"\360\000\177\377\000\037\377\340\003\371\376\000\377"
 3066      001FFFE0 
 3066      03F9FE00 
 3066      FF
 3067 1442 3FF07FC3 		.ascii	"?\360\177\303\377\377\370?\377\376\003\377\377\200?"
 3067      FFFFF83F 
 3067      FFFE03FF 
 3067      FF803F
 3068 1451 FFE001FF 		.ascii	"\377\340\001\377\360\000\017\360\000~\000\003\357\340"
 3068      F0000FF0 
 3068      007E0003 
 3068      EFE0
 3069 145f 003FFF00 		.ascii	"\000?\377\000\007\377\360\000\177\177\000\007\347\360"
 3069      07FFF000 
 3069      7F7F0007 
 3069      E7F0
 3070 146d 00FE7F80 		.ascii	"\000\376\177\200\017\343\370\000\376?\200\037\303\374"
 3070      0FE3F800 
 3070      FE3F801F 
 3070      C3FC
 3071 147b 01FC1FC0 		.ascii	"\001\374\037\300\037\301\374\003\370\037\300?\200\376"
 3071      1FC1FC03 
 3071      F81FC03F 
ARM GAS  C:\Users\pbant\AppData\Local\Temp\ccAmOMRv.s 			page 112


 3071      80FE
 3072 1489 07F80FE0 		.ascii	"\007\370\017\340\177\000\376\007\360\007\360\377\000"
 3072      7F00FE07 
 3072      F007F0FF 
 3072      00
 3073 1496 7F0FE007 		.ascii	"\177\017\340\007\360\376\000?\237\340\003\371\374\000"
 3073      F0FE003F 
 3073      9FE003F9 
 3073      FC00
 3074 14a4 3F9FC001 		.ascii	"?\237\300\001\377\374\000\037\377\200\001\377\370\000"
 3074      FFFC001F 
 3074      FF8001FF 
 3074      F800
 3075 14b2 1FFF8000 		.ascii	"\037\377\200\000\377\360\000\017\377\000\000\377\360"
 3075      FFF0000F 
 3075      FF0000FF 
 3075      F0
 3076 14bf 0007FF00 		.ascii	"\000\007\377\000\000\177\340\000\007\376\000\000?\340"
 3076      007FE000 
 3076      07FE0000 
 3076      3FE0
 3077 14cd 0001FC00 		.ascii	"\000\001\374\000<\000\000\000\007\337\300\000\000\001"
 3077      3C000000 
 3077      07DFC000 
 3077      0001
 3078 14db FFF8007C 		.ascii	"\377\370\000|\000?\377\000\037\300\007\377\360\003\370"
 3078      003FFF00 
 3078      1FC007FF 
 3078      F003F8
 3079 14ea 01FEFE00 		.ascii	"\001\376\376\000\177\000?\237\300\037\360\007\363\370"
 3079      7F003F9F 
 3079      C01FF007 
 3079      F3F8
 3080 14f8 03FE01FE 		.ascii	"\003\376\001\376?\200\177\300?\207\360\037\370\007\360"
 3080      3F807FC0 
 3080      3F87F01F 
 3080      F807F0
 3081 1507 FE03FF81 		.ascii	"\376\003\377\201\376\017\300\177\360?\301\374\037\376"
 3081      FE0FC07F 
 3081      F03FC1FC 
 3081      1FFE
 3082 1515 07F03F83 		.ascii	"\007\360?\203\377\301\376\007\360\177\374?\300~\037"
 3082      FFC1FE07 
 3082      F07FFC3F 
 3082      C07E1F
 3083 1524 DF87F00F 		.ascii	"\337\207\360\017\343\363\360\376\001\374~??\300\037"
 3083      E3F3F0FE 
 3083      01FC7E3F 
 3083      3FC01F
 3084 1533 8FC7E7F0 		.ascii	"\217\307\347\360\003\373\360\374\376\000\177~\037\237"
 3084      03FBF0FC 
 3084      FE007F7E 
 3084      1F9F
 3085 1541 C00FFFC1 		.ascii	"\300\017\377\301\377\360\000\377\360?\376\000\037\376"
 3085      FFF000FF 
 3085      F03FFE00 
 3085      1FFE
ARM GAS  C:\Users\pbant\AppData\Local\Temp\ccAmOMRv.s 			page 113


 3086 154f 07FFC003 		.ascii	"\007\377\300\003\377\300\177\360\000?\370\017\376\000"
 3086      FFC07FF0 
 3086      003FF80F 
 3086      FE00
 3087 155d 07FE01FF 		.ascii	"\007\376\001\377\300\000\377\300?\370\000\037\370\003"
 3087      C000FFC0 
 3087      3FF8001F 
 3087      F803
 3088 156b FE0001FE 		.ascii	"\376\000\001\376\000\177\300\000?\300\017\360\000\007"
 3088      007FC000 
 3088      3FC00FF0 
 3088      0007
 3089 1579 F800FE00 		.ascii	"\370\000\376\000\000~\000\037\300\000\017\300\003\360"
 3089      007E001F 
 3089      C0000FC0 
 3089      03F0
 3090 1587 0000F000 		.ascii	"\000\000\360\000<\000\000\036\000\000\370?\200\000\376"
 3090      3C00001E 
 3090      0000F83F 
 3090      8000FE
 3091 1596 1FE000FF 		.ascii	"\037\340\000\377\007\370\000\377\203\376\000\377\200"
 3091      07F800FF 
 3091      83FE00FF 
 3091      80
 3092 15a3 FF007F80 		.ascii	"\377\000\177\200?\300\177\200\017\360\177\300\003\374"
 3092      3FC07F80 
 3092      0FF07FC0 
 3092      03FC
 3093 15b1 7FC000FF 		.ascii	"\177\300\000\377\177\300\000?\377\340\000\037\377\340"
 3093      7FC0003F 
 3093      FFE0001F 
 3093      FFE0
 3094 15bf 0007FFE0 		.ascii	"\000\007\377\340\000\001\377\340\000\000\177\360\000"
 3094      0001FFE0 
 3094      00007FF0 
 3094      00
 3095 15cc 001FF000 		.ascii	"\000\037\360\000\000\017\370\000\000\017\376\000\000"
 3095      000FF800 
 3095      000FFE00 
 3095      00
 3096 15d9 0FFF8000 		.ascii	"\017\377\200\000\007\377\300\000\007\377\360\000\007"
 3096      07FFC000 
 3096      07FFF000 
 3096      07
 3097 15e6 FFFC0007 		.ascii	"\377\374\000\007\375\377\000\007\374\177\300\003\374"
 3097      FDFF0007 
 3097      FC7FC003 
 3097      FC
 3098 15f3 1FF003FC 		.ascii	"\037\360\003\374\007\370\003\374\003\376\003\374\000"
 3098      07F803FC 
 3098      03FE03FC 
 3098      00
 3099 1600 FF83FE00 		.ascii	"\377\203\376\000?\341\376\000\017\371\376\000\003\375"
 3099      3FE1FE00 
 3099      0FF9FE00 
 3099      03FD
 3100 160e FE0000FF 		.ascii	"\376\000\000\377\376\000\000\177\276\000\000\037\200"
ARM GAS  C:\Users\pbant\AppData\Local\Temp\ccAmOMRv.s 			page 114


 3100      FE00007F 
 3100      BE00001F 
 3100      80
 3101 161b 7E0000FD 		.ascii	"~\000\000\375\376\000\003\377\376\000\007\373\374\000"
 3101      FE0003FF 
 3101      FE0007FB 
 3101      FC00
 3102 1629 1FE7FC00 		.ascii	"\037\347\374\000\177\207\374\000\377\007\370\003\374"
 3102      7F87FC00 
 3102      FF07F803 
 3102      FC
 3103 1636 0FF807F0 		.ascii	"\017\370\007\360\017\370\037\340\017\360\177\200\037"
 3103      0FF81FE0 
 3103      0FF07F80 
 3103      1F
 3104 1643 F0FE001F 		.ascii	"\360\376\000\037\363\374\000\037\347\360\000\037\377"
 3104      F3FC001F 
 3104      E7F0001F 
 3104      FF
 3105 1650 C0003FFF 		.ascii	"\300\000?\377\200\000?\376\000\000?\370\000\000\177"
 3105      80003FFE 
 3105      00003FF8 
 3105      00007F
 3106 165f F000007F 		.ascii	"\360\000\000\177\300\000\000\177\000\000\000\376\000"
 3106      C000007F 
 3106      000000FE 
 3106      00
 3107 166c 0001FC00 		.ascii	"\000\001\374\000\000\003\370\000\000\007\360\000\000"
 3107      0003F800 
 3107      0007F000 
 3107      00
 3108 1679 0FE00000 		.ascii	"\017\340\000\000\037\300\000\000?\200\000\000\177\000"
 3108      1FC00000 
 3108      3F800000 
 3108      7F00
 3109 1687 0000FE00 		.ascii	"\000\000\376\000\000\001\374\000\000\003\370\000\000"
 3109      0001FC00 
 3109      0003F800 
 3109      00
 3110 1694 07F00000 		.ascii	"\007\360\000\000\017\340\000\000\017\200\000?\377\377"
 3110      0FE00000 
 3110      0F80003F 
 3110      FFFF
 3111 16a2 E1FFFFFF 		.ascii	"\341\377\377\377\217\377\377\374\177\377\377\343\377"
 3111      8FFFFFFC 
 3111      7FFFFFE3 
 3111      FF
 3112 16af FFFE0FFF 		.ascii	"\377\376\017\377\377\360\000\000\377\000\000\017\370"
 3112      FFF00000 
 3112      FF00000F 
 3112      F8
 3113 16bc 0000FF80 		.ascii	"\000\000\377\200\000\007\370\000\000\177\300\000\007"
 3113      0007F800 
 3113      007FC000 
 3113      07
 3114 16c9 FC00007F 		.ascii	"\374\000\000\177\300\000\007\374\000\000?\300\000\003"
 3114      C00007FC 
ARM GAS  C:\Users\pbant\AppData\Local\Temp\ccAmOMRv.s 			page 115


 3114      00003FC0 
 3114      0003
 3115 16d7 FE00003F 		.ascii	"\376\000\000?\340\000\003\376\000\000\037\340\000\001"
 3115      E00003FE 
 3115      00001FE0 
 3115      0001
 3116 16e5 FF00001F 		.ascii	"\377\000\000\037\360\000\001\377\000\000\017\360\000"
 3116      F00001FF 
 3116      00000FF0 
 3116      00
 3117 16f2 00FF0000 		.ascii	"\000\377\000\000\017\370\000\000\377\200\000\007\370"
 3117      0FF80000 
 3117      FF800007 
 3117      F8
 3118 16ff 00007F80 		.ascii	"\000\000\177\200\000\007\377\377\377\177\377\377\377"
 3118      0007FFFF 
 3118      FF7FFFFF 
 3118      FF
 3119 170c FFFFFFFF 		.ascii	"\377\377\377\377\377\377\377\377\377\377\373\377\377"
 3119      FFFFFFFF 
 3119      FFFFFBFF 
 3119      FF
 3120 1719 FF807FFB 		.ascii	"\377\200\177\373\377\357\377\277\376\377\373\377\357"
 3120      FFEFFFBF 
 3120      FEFFFBFF 
 3120      EF
 3121 1726 C03F00FC 		.ascii	"\300?\000\374\003\360\017\300?\000\374\003\360\017\300"
 3121      03F00FC0 
 3121      3F00FC03 
 3121      F00FC0
 3122 1735 3F00FC03 		.ascii	"?\000\374\003\360\017\300?\000\374\003\360\017\300?"
 3122      F00FC03F 
 3122      00FC03F0 
 3122      0FC03F
 3123 1744 00FC03F0 		.ascii	"\000\374\003\360\017\300?\000\374\003\360\017\300?\000"
 3123      0FC03F00 
 3123      FC03F00F 
 3123      C03F00
 3124 1753 FC03F00F 		.ascii	"\374\003\360\017\300?\000\374\003\360\017\300?\200\377"
 3124      C03F00FC 
 3124      03F00FC0 
 3124      3F80FF
 3125 1762 FBFFEFFF 		.ascii	"\373\377\357\377\277\377\377\375\377\340\370\000\003"
 3125      BFFFFFFD 
 3125      FFE0F800 
 3125      03
 3126 176f F0       		.ascii	"\360"
 3127 1770 000FC000 		.ascii	"\000\017\300\000\037\200\000~\000\000\374\000\003\360"
 3127      1F80007E 
 3127      0000FC00 
 3127      03F0
 3128 177e 0007E000 		.ascii	"\000\007\340\000\037\200\000\177\000\000\374\000\003"
 3128      1F80007F 
 3128      0000FC00 
 3128      03
 3129 178b F80007E0 		.ascii	"\370\000\007\340\000\037\300\000?\000\000\376\000\001"
 3129      001FC000 
ARM GAS  C:\Users\pbant\AppData\Local\Temp\ccAmOMRv.s 			page 116


 3129      3F0000FE 
 3129      0001
 3130 1799 F80007F0 		.ascii	"\370\000\007\360\000\017\300\000?\200\000~\000\001\374"
 3130      000FC000 
 3130      3F80007E 
 3130      0001FC
 3131 17a8 0003F000 		.ascii	"\000\003\360\000\017\340\000\037\200\000\177\000\000"
 3131      0FE0001F 
 3131      80007F00 
 3131      00
 3132 17b5 FC0003F8 		.ascii	"\374\000\003\370\000\007\340\000\037\300\000?\000\000"
 3132      0007E000 
 3132      1FC0003F 
 3132      0000
 3133 17c3 FE0001F8 		.ascii	"\376\000\001\370\000\007\340\000\017\300\000?\000\000"
 3133      0007E000 
 3133      0FC0003F 
 3133      0000
 3134 17d1 7CFFF7FF 		.ascii	"|\377\367\377\377\377\377\377\377\277\374\007\340?\001"
 3134      FFFFFFFF 
 3134      FFBFFC07 
 3134      E03F01
 3135 17e0 F80FC07E 		.ascii	"\370\017\300~\003\360\037\200\374\007\340?\001\370\017"
 3135      03F01F80 
 3135      FC07E03F 
 3135      01F80F
 3136 17ef C07E03F0 		.ascii	"\300~\003\360\037\200\374\007\340?\001\370\017\300~"
 3136      1F80FC07 
 3136      E03F01F8 
 3136      0FC07E
 3137 17fe 03F01F80 		.ascii	"\003\360\037\200\374\007\340?\001\370\017\300~\003\360"
 3137      FC07E03F 
 3137      01F80FC0 
 3137      7E03F0
 3138 180d 1F80FC07 		.ascii	"\037\200\374\007\340?\001\373\377\377\377\377\377\377"
 3138      E03F01FB 
 3138      FFFFFFFF 
 3138      FFFF
 3139 181b FFFFFFC0 		.ascii	"\377\377\377\300\000\370\000\017\300\000\177\000\007"
 3139      00F8000F 
 3139      C0007F00 
 3139      07
 3140 1828 FC003FE0 		.ascii	"\374\000?\340\003\377\200\037\374\001\377\360\017\337"
 3140      03FF801F 
 3140      FC01FFF0 
 3140      0FDF
 3141 1836 80FCFE07 		.ascii	"\200\374\376\007\343\360~\037\307\360~?\003\373\370"
 3141      E3F07E1F 
 3141      C7F07E3F 
 3141      03FBF8
 3142 1845 0FDF807F 		.ascii	"\017\337\200\177\374\001\371\000\001\000\177\377\377"
 3142      FC01F900 
 3142      01007FFF 
 3142      FF
 3143 1852 FFBFFFFF 		.ascii	"\377\277\377\377\377\377\377\377\377\377\377\377\377"
 3143      FFFFFFFF 
 3143      FFFFFFFF 
ARM GAS  C:\Users\pbant\AppData\Local\Temp\ccAmOMRv.s 			page 117


 3143      FF
 3144 185f FFFFFFFF 		.ascii	"\377\377\377\377\377\337\377\377\377\340|~?\217\303"
 3144      FFDFFFFF 
 3144      FFE07C7E 
 3144      3F8FC3
 3145 186e F0FC3E1F 		.ascii	"\360\374>\037\000>\007\000\037\361\360\017\377\277\003"
 3145      003E0700 
 3145      1FF1F00F 
 3145      FFBF03
 3146 187d FFFFE0FF 		.ascii	"\377\377\340\377\377\374?\377\377\217\370?\363\374\001"
 3146      FFFC3FFF 
 3146      FF8FF83F 
 3146      F3FC01
 3147 188c FE7F001F 		.ascii	"\376\177\000\037\337\340\003\373\370\000?\177\000\007"
 3147      DFE003FB 
 3147      F8003F7F 
 3147      0007
 3148 189a EFE000FD 		.ascii	"\357\340\000\375\374\000\037\277\200\003\367\360\000"
 3148      FC001FBF 
 3148      8003F7F0 
 3148      00
 3149 18a7 7EFF001F 		.ascii	"~\377\000\037\317\340\003\371\376\000\377\037\360\177"
 3149      CFE003F9 
 3149      FE00FF1F 
 3149      F07F
 3150 18b5 E3FFFFFC 		.ascii	"\343\377\377\374?\377\377\203\377\377\360?\377~\003"
 3150      3FFFFF83 
 3150      FFFFF03F 
 3150      FF7E03
 3151 18c4 FFC7800F 		.ascii	"\377\307\200\017\340\000|\000\000\037\200\000\003\370"
 3151      E0007C00 
 3151      001F8000 
 3151      03F8
 3152 18d2 00007F00 		.ascii	"\000\000\177\000\000\017\340\000\001\374\000\000?\200"
 3152      000FE000 
 3152      01FC0000 
 3152      3F80
 3153 18e0 0007F000 		.ascii	"\000\007\360\000\000\376\000\000\037\300\000\003\370"
 3153      00FE0000 
 3153      1FC00003 
 3153      F8
 3154 18ed 3F007F1F 		.ascii	"?\000\177\037\374\017\357\377\301\377\377\374?\377\377"
 3154      FC0FEFFF 
 3154      C1FFFFFC 
 3154      3FFFFF
 3155 18fc C7FFFFFC 		.ascii	"\307\377\377\374\377\340\177\337\360\007\373\374\000"
 3155      FFE07FDF 
 3155      F007FBFC 
 3155      00
 3156 1909 7F7F8007 		.ascii	"\177\177\200\007\377\340\000\177\374\000\017\377\200"
 3156      FFE0007F 
 3156      FC000FFF 
 3156      80
 3157 1916 01FFF000 		.ascii	"\001\377\360\000?\376\000\007\377\340\001\377\374\000"
 3157      3FFE0007 
 3157      FFE001FF 
 3157      FC00
ARM GAS  C:\Users\pbant\AppData\Local\Temp\ccAmOMRv.s 			page 118


 3158 1924 3F7FC00F 		.ascii	"?\177\300\017\357\376\007\371\377\377\377?\377\377\307"
 3158      EFFE07F9 
 3158      FFFFFF3F 
 3158      FFFFC7
 3159 1933 FFFFF07F 		.ascii	"\377\377\360\177\377\374\017\317\377\000\340\177\200"
 3159      FFFC0FCF 
 3159      FF00E07F 
 3159      80
 3160 1940 00007F80 		.ascii	"\000\000\177\200\007\377\300\177\377\303\377\377\037"
 3160      07FFC07F 
 3160      FFC3FFFF 
 3160      1F
 3161 194d FFFCFFFF 		.ascii	"\377\374\377\377\363\376\007\237\360\000\177\200\003"
 3161      F3FE079F 
 3161      F0007F80 
 3161      03
 3162 195a FC000FE0 		.ascii	"\374\000\017\340\000?\200\000\376\000\003\370\000\017"
 3162      003F8000 
 3162      FE0003F8 
 3162      000F
 3163 1968 E0003F80 		.ascii	"\340\000?\200\000\377\000\001\374\000\007\370\000\017"
 3163      00FF0001 
 3163      FC0007F8 
 3163      000F
 3164 1976 F83E3FFF 		.ascii	"\370>?\377\374\177\377\360\377\377\301\377\376\001\377"
 3164      FC7FFFF0 
 3164      FFFFC1FF 
 3164      FE01FF
 3165 1985 F001FE00 		.ascii	"\360\001\376\000\000\000\007\000\000\003\360\000\000"
 3165      00000700 
 3165      0003F000 
 3165      00
 3166 1992 FC00003F 		.ascii	"\374\000\000?\000\000\017\300\000\003\360\000\000\374"
 3166      00000FC0 
 3166      0003F000 
 3166      00FC
 3167 19a0 00003F00 		.ascii	"\000\000?\000\000\017\300\000\003\360\007\340\374\017"
 3167      000FC000 
 3167      03F007E0 
 3167      FC0F
 3168 19ae FE3F07FF 		.ascii	"\376?\007\377\357\303\377\377\361\377\377\374\377\377"
 3168      EFC3FFFF 
 3168      F1FFFFFC 
 3168      FFFF
 3169 19bc FF7FC0FF 		.ascii	"\377\177\300\377\337\300\037\377\340\003\377\370\000"
 3169      DFC01FFF 
 3169      E003FFF8 
 3169      00
 3170 19c9 7FFC000F 		.ascii	"\177\374\000\017\377\000\003\377\300\000\377\360\000"
 3170      FF0003FF 
 3170      C000FFF0 
 3170      00
 3171 19d6 3FFC000F 		.ascii	"?\374\000\017\377\000\003\367\340\001\375\370\000\377"
 3171      FF0003F7 
 3171      E001FDF8 
 3171      00FF
 3172 19e4 7F007FDF 		.ascii	"\177\000\177\337\360?\363\377\377\374\177\377\377\037"
ARM GAS  C:\Users\pbant\AppData\Local\Temp\ccAmOMRv.s 			page 119


 3172      F03FF3FF 
 3172      FFFC7FFF 
 3172      FF1F
 3173 19f2 FFFFC3FF 		.ascii	"\377\377\303\377\373\360?\370\370\001\370\000\000?\200"
 3173      FBF03FF8 
 3173      F801F800 
 3173      003F80
 3174 1a01 007FFC00 		.ascii	"\000\177\374\000\177\377\200?\377\360\037\377\376\017"
 3174      7FFF803F 
 3174      FFF01FFF 
 3174      FE0F
 3175 1a0f FFFFC3FE 		.ascii	"\377\377\303\376\017\361\376\001\376\177\000?\277\300"
 3175      0FF1FE01 
 3175      FE7F003F 
 3175      BFC0
 3176 1a1d 07EFFFFF 		.ascii	"\007\357\377\377\373\377\377\376\377\377\377\277\377"
 3176      FBFFFFFE 
 3176      FFFFFFBF 
 3176      FF
 3177 1a2a FFEFFFFF 		.ascii	"\377\357\377\377\343\370\000\000~\000\000\037\300\000"
 3177      E3F80000 
 3177      7E00001F 
 3177      C000
 3178 1a38 07F800C0 		.ascii	"\007\370\000\300\377\201\370?\377\377\007\377\377\300"
 3178      FF81F83F 
 3178      FFFF07FF 
 3178      FFC0
 3179 1a46 FFFFF01F 		.ascii	"\377\377\360\037\377\370\001\377\370\000\017\360\000"
 3179      FFF801FF 
 3179      F8000FF0 
 3179      00
 3180 1a53 00FE001F 		.ascii	"\000\376\000\037\374\001\377\360\037\377\300\377\377"
 3180      FC01FFF0 
 3180      1FFFC0FF 
 3180      FF
 3181 1a60 0FFFF87F 		.ascii	"\017\377\370\177\217\303\370\034\037\200\000\374\000"
 3181      8FC3F81C 
 3181      1F8000FC 
 3181      00
 3182 1a6d 3FFF01FF 		.ascii	"?\377\001\377\374\017\377\340\177\377\000\177\200\003"
 3182      FC0FFFE0 
 3182      7FFF007F 
 3182      8003
 3183 1a7b F8001FC0 		.ascii	"\370\000\037\300\000\376\000\007\360\000?\200\001\374"
 3183      00FE0007 
 3183      F0003F80 
 3183      01FC
 3184 1a89 000FE000 		.ascii	"\000\017\340\000\177\000\003\370\000\037\300\000\376"
 3184      7F0003F8 
 3184      001FC000 
 3184      FE
 3185 1a96 0007F000 		.ascii	"\000\007\360\000?\200\001\374\000\017\340\000\177\000"
 3185      3F8001FC 
 3185      000FE000 
 3185      7F00
 3186 1aa4 03F8001F 		.ascii	"\003\370\000\037\300\000\376\000\003\360\000\000~\007"
 3186      C000FE00 
ARM GAS  C:\Users\pbant\AppData\Local\Temp\ccAmOMRv.s 			page 120


 3186      03F00000 
 3186      7E07
 3187 1ab2 00FFE3E0 		.ascii	"\000\377\343\340\177\377\374?\377\377\037\377\377\317"
 3187      7FFFFC3F 
 3187      FFFF1FFF 
 3187      FFCF
 3188 1ac0 FFFFF7FE 		.ascii	"\377\377\367\376\037\375\376\001\377\177\000?\377\300"
 3188      1FFDFE01 
 3188      FF7F003F 
 3188      FFC0
 3189 1ace 0FFFE001 		.ascii	"\017\377\340\001\377\370\000\177\376\000\037\377\200"
 3189      FFF8007F 
 3189      FE001FFF 
 3189      80
 3190 1adb 07FFE001 		.ascii	"\007\377\340\001\377\370\000\377\177\000?\337\340\037"
 3190      FFF800FF 
 3190      7F003FDF 
 3190      E01F
 3191 1ae9 F7FC0FFC 		.ascii	"\367\374\017\374\377\377\377\037\377\377\307\377\377"
 3191      FFFFFF1F 
 3191      FFFFC7FF 
 3191      FF
 3192 1af6 F07FFFFC 		.ascii	"\360\177\377\374\017\376\177\000\376\037\300\000\007"
 3192      0FFE7F00 
 3192      FE1FC000 
 3192      07
 3193 1b03 F00003FC 		.ascii	"\360\000\003\374\000\000\377\016\000\177\207\340\177"
 3193      0000FF0E 
 3193      007F87E0 
 3193      7F
 3194 1b10 E1FFFFF8 		.ascii	"\341\377\377\370\177\377\374\037\377\376\003\377\377"
 3194      7FFFFC1F 
 3194      FFFE03FF 
 3194      FF
 3195 1b1d 003FFF00 		.ascii	"\000?\377\000\001\376\000|\000\001\374\000\003\370\000"
 3195      01FE007C 
 3195      0001FC00 
 3195      03F800
 3196 1b2c 07F0000F 		.ascii	"\007\360\000\017\340\000\037\300\000?\200\000\177\000"
 3196      E0001FC0 
 3196      003F8000 
 3196      7F00
 3197 1b3a 00FE0001 		.ascii	"\000\376\000\001\374\000\003\370~\007\363\377\017\357"
 3197      FC0003F8 
 3197      7E07F3FF 
 3197      0FEF
 3198 1b48 FF1FFFFF 		.ascii	"\377\037\377\377?\377\376\177\377\376\377\207\375\376"
 3198      3FFFFE7F 
 3198      FFFEFF87 
 3198      FDFE
 3199 1b56 03FBFC07 		.ascii	"\003\373\374\007\377\360\007\377\340\017\377\300\037"
 3199      FFF007FF 
 3199      E00FFFC0 
 3199      1F
 3200 1b63 FF803FFF 		.ascii	"\377\200?\377\000\177\376\000\377\374\001\377\370\003"
 3200      007FFE00 
 3200      FFFC01FF 
ARM GAS  C:\Users\pbant\AppData\Local\Temp\ccAmOMRv.s 			page 121


 3200      F803
 3201 1b71 FFF007FF 		.ascii	"\377\360\007\377\340\017\377\300\037\377\200?\377\000"
 3201      E00FFFC0 
 3201      1FFF803F 
 3201      FF00
 3202 1b7f 7FFE00FF 		.ascii	"\177\376\000\377\374\001\375\360\001\360<~\377\377\377"
 3202      FC01FDF0 
 3202      01F03C7E 
 3202      FFFFFF
 3203 1b8e FF7E3C00 		.ascii	"\377~<\000\000\034>\177\177\177\177\177\177\177\177"
 3203      001C3E7F 
 3203      7F7F7F7F 
 3203      7F7F7F
 3204 1b9d 7F7F7F7F 		.ascii	"\177\177\177\177\177\177\177\177\177\177\177\177\177"
 3204      7F7F7F7F 
 3204      7F7F7F7F 
 3204      7F
 3205 1baa 7F3E001E 		.ascii	"\177>\000\036\000\037\200\037\340\017\360\007\370\003"
 3205      001F801F 
 3205      E00FF007 
 3205      F803
 3206 1bb8 FC00FC00 		.ascii	"\374\000\374\000<\000\000\000\000\000\007\200\007\300"
 3206      3C000000 
 3206      00000780 
 3206      07C0
 3207 1bc6 03F001F8 		.ascii	"\003\360\001\370\000\374\000~\000?\000\037\200\017\300"
 3207      00FC007E 
 3207      003F001F 
 3207      800FC0
 3208 1bd5 07E003F0 		.ascii	"\007\340\003\360\001\370\000\374\000~\000?\000\037\200"
 3208      01F800FC 
 3208      007E003F 
 3208      001F80
 3209 1be4 0FC007E0 		.ascii	"\017\300\007\340\003\360\001\370\000\374\000~\000?\000"
 3209      03F001F8 
 3209      00FC007E 
 3209      003F00
 3210 1bf3 1F800FC0 		.ascii	"\037\200\017\300\007\340\003\361\301\373\360\375\370"
 3210      07E003F1 
 3210      C1FBF0FD 
 3210      F8
 3211 1c00 7EFC7F7F 		.ascii	"~\374\177\177\377\037\377\217\377\201\377\200\177\000"
 3211      FF1FFF8F 
 3211      FF81FF80 
 3211      7F00
 3212 1c0e 78000FC0 		.ascii	"x\000\017\300\000\374\000\017\300\000\374\000\017\300"
 3212      00FC000F 
 3212      C000FC00 
 3212      0FC0
 3213 1c1c 00FC000F 		.ascii	"\000\374\000\017\300\000\374\000\017\300\000\374\003"
 3213      C000FC00 
 3213      0FC000FC 
 3213      03
 3214 1c29 8FC07EFC 		.ascii	"\217\300~\374\017\357\301\376\374?\317\303\374\374\177"
 3214      0FEFC1FE 
 3214      FC3FCFC3 
 3214      FCFC7F
ARM GAS  C:\Users\pbant\AppData\Local\Temp\ccAmOMRv.s 			page 122


 3215 1c38 8FCFF0FD 		.ascii	"\217\317\360\375\376\017\377\300\377\370\017\377\000"
 3215      FE0FFFC0 
 3215      FFF80FFF 
 3215      00
 3216 1c45 FFF00FFF 		.ascii	"\377\360\017\377\200\377\374\017\337\340\375\376\017"
 3216      80FFFC0F 
 3216      DFE0FDFE 
 3216      0F
 3217 1c52 CFF0FC7F 		.ascii	"\317\360\374\177\217\303\374\374\037\317\301\376\374"
 3217      8FC3FCFC 
 3217      1FCFC1FE 
 3217      FC
 3218 1c5f 0FFFC07F 		.ascii	"\017\377\300\177\370\003\360}\377\377\377\377\377\377"
 3218      F803F07D 
 3218      FFFFFFFF 
 3218      FFFF
 3219 1c6d FFFFFFFF 		.ascii	"\377\377\377\377\377\377\377\377\377\377\377\377\377"
 3219      FFFFFFFF 
 3219      FFFFFFFF 
 3219      FF
 3220 1c7a FFFFFFFF 		.ascii	"\377\377\377\377\377\377\377\377\377\375\360x?\000\376"
 3220      FFFFFFFF 
 3220      FFFDF078 
 3220      3F00FE
 3221 1c89 07E7FE1F 		.ascii	"\007\347\376\037\374?\377\371\377\361\377\377\377\377"
 3221      FC3FFFF9 
 3221      FFF1FFFF 
 3221      FFFF
 3222 1c97 CFFFFFFF 		.ascii	"\317\377\377\377\377\177\377\377\377\373\376\037\374"
 3222      FF7FFFFF 
 3222      FFFBFE1F 
 3222      FC
 3223 1ca4 3FDFC07F 		.ascii	"?\337\300\177\200\376\376\003\374\003\367\360\017\300"
 3223      80FEFE03 
 3223      FC03F7F0 
 3223      0FC0
 3224 1cb2 1FBF007E 		.ascii	"\037\277\000~\000\377\370\003\360\007\377\300\037\200"
 3224      00FFF803 
 3224      F007FFC0 
 3224      1F80
 3225 1cc0 3FFE00FC 		.ascii	"?\376\000\374\001\377\360\007\340\017\377\200?\000\177"
 3225      01FFF007 
 3225      E00FFF80 
 3225      3F007F
 3226 1ccf FC01F803 		.ascii	"\374\001\370\003\377\340\017\300\037\377\000~\000\377"
 3226      FFE00FC0 
 3226      1FFF007E 
 3226      00FF
 3227 1cdd F803F007 		.ascii	"\370\003\360\007\377\300\037\200?\376\000\374\001\377"
 3227      FFC01F80 
 3227      3FFE00FC 
 3227      01FF
 3228 1ceb F007E00F 		.ascii	"\360\007\340\017\377\200?\000\177x\000\360\001\360|"
 3228      FF803F00 
 3228      7F7800F0 
 3228      01F07C
 3229 1cfa 7F81FFFF 		.ascii	"\177\201\377\377\303\377\377\307\377\377\317\377\377"
ARM GAS  C:\Users\pbant\AppData\Local\Temp\ccAmOMRv.s 			page 123


 3229      C3FFFFC7 
 3229      FFFFCFFF 
 3229      FF
 3230 1d07 9FFC7FBF 		.ascii	"\237\374\177\277\340\177\177\200~\377\000\377\374\001"
 3230      E07F7F80 
 3230      7EFF00FF 
 3230      FC01
 3231 1d15 FFF803FF 		.ascii	"\377\370\003\377\360\007\377\340\017\377\300\037\377"
 3231      F007FFE0 
 3231      0FFFC01F 
 3231      FF
 3232 1d22 803FFF00 		.ascii	"\200?\377\000\177\376\000\377\374\001\377\370\003\377"
 3232      7FFE00FF 
 3232      FC01FFF8 
 3232      03FF
 3233 1d30 F007FFE0 		.ascii	"\360\007\377\340\017\377\300\037\377\200?\377\000\177"
 3233      0FFFC01F 
 3233      FF803FFF 
 3233      007F
 3234 1d3e 7C007C00 		.ascii	"|\000|\000\177\200\000\177\374\000\177\377\200?\377"
 3234      7F80007F 
 3234      FC007FFF 
 3234      803FFF
 3235 1d4d F01FFFFE 		.ascii	"\360\037\377\376\017\377\377\307\374\037\371\376\001"
 3235      0FFFFFC7 
 3235      FC1FF9FE 
 3235      01
 3236 1d5a FE7F003F 		.ascii	"\376\177\000?\277\200\007\377\300\000\377\360\000?\374"
 3236      BF8007FF 
 3236      C000FFF0 
 3236      003FFC
 3237 1d69 000FFF00 		.ascii	"\000\017\377\000\003\377\300\000\377\370\000\177\376"
 3237      03FFC000 
 3237      FFF8007F 
 3237      FE
 3238 1d76 001F9FC0 		.ascii	"\000\037\237\300\017\347\374\017\370\377\377\374\037"
 3238      0FE7FC0F 
 3238      F8FFFFFC 
 3238      1F
 3239 1d83 FFFE03FF 		.ascii	"\377\376\003\377\377\000\177\377\200\017\377\200\000"
 3239      FF007FFF 
 3239      800FFF80 
 3239      00
 3240 1d90 7F800038 		.ascii	"\177\200\0008\037\200?\037\374\017\377\377\303\377\377"
 3240      1F803F1F 
 3240      FC0FFFFF 
 3240      C3FFFF
 3241 1d9f F8FFFFFF 		.ascii	"\370\377\377\377?\377\377\317\374\017\373\376\000\376"
 3241      3FFFFFCF 
 3241      FC0FFBFE 
 3241      00FE
 3242 1dad FF001FBF 		.ascii	"\377\000\037\277\200\007\377\340\000\377\370\000?\376"
 3242      8007FFE0 
 3242      00FFF800 
 3242      3FFE
 3243 1dbb 000FFF80 		.ascii	"\000\017\377\200\003\377\340\000\377\370\000\177\377"
 3243      03FFE000 
ARM GAS  C:\Users\pbant\AppData\Local\Temp\ccAmOMRv.s 			page 124


 3243      FFF8007F 
 3243      FF
 3244 1dc8 001FFFE0 		.ascii	"\000\037\377\340\017\357\374\007\373\377\377\374\377"
 3244      0FEFFC07 
 3244      FBFFFFFC 
 3244      FF
 3245 1dd5 FFFF3FFF 		.ascii	"\377\377?\377\377\217\377\377\303\371\377\300\376\037"
 3245      FF8FFFFF 
 3245      C3F9FFC0 
 3245      FE1F
 3246 1de3 C03F8000 		.ascii	"\300?\200\000\017\340\000\003\370\000\000\376\000\000"
 3246      0FE00003 
 3246      F80000FE 
 3246      0000
 3247 1df1 3F80000F 		.ascii	"?\200\000\017\340\000\003\370\000\000\376\000\000?\200"
 3247      E00003F8 
 3247      0000FE00 
 3247      003F80
 3248 1e00 0007C000 		.ascii	"\000\007\300\000\000\000\177\007\000\377\363\360\377"
 3248      00007F07 
 3248      00FFF3F0 
 3248      FF
 3249 1e0d FFFC7FFF 		.ascii	"\377\374\177\377\377\037\377\377\317\377\377\367\374"
 3249      FF1FFFFF 
 3249      CFFFFFF7 
 3249      FC
 3250 1e1a 1FFDFC01 		.ascii	"\037\375\374\001\377~\000?\377\200\007\377\300\001\377"
 3250      FF7E003F 
 3250      FF8007FF 
 3250      C001FF
 3251 1e29 F0007FFC 		.ascii	"\360\000\177\374\000\037\377\000\007\377\300\001\377"
 3251      001FFF00 
 3251      07FFC001 
 3251      FF
 3252 1e36 F8007FFE 		.ascii	"\370\000\177\376\000?\337\300\037\367\370\017\374\377"
 3252      003FDFC0 
 3252      1FF7F80F 
 3252      FCFF
 3253 1e44 FFFF3FFF 		.ascii	"\377\377?\377\377\307\377\377\360\377\375\374\017\374"
 3253      FFC7FFFF 
 3253      F0FFFDFC 
 3253      0FFC
 3254 1e52 7F00FE1F 		.ascii	"\177\000\376\037\300\000\007\360\000\001\374\000\000"
 3254      C00007F0 
 3254      0001FC00 
 3254      00
 3255 1e5f 7F00001F 		.ascii	"\177\000\000\037\300\000\007\360\000\001\374\000\000"
 3255      C00007F0 
 3255      0001FC00 
 3255      00
 3256 1e6c 7F00001F 		.ascii	"\177\000\000\037\300\000\007\360\000\000\370<<\370\377"
 3256      C00007F0 
 3256      0000F83C 
 3256      3CF8FF
 3257 1e7b FBFFFFFF 		.ascii	"\373\377\377\377\377\377\377\277\374\177\300\377\001"
 3257      FFFFFFBF 
 3257      FC7FC0FF 
ARM GAS  C:\Users\pbant\AppData\Local\Temp\ccAmOMRv.s 			page 125


 3257      01
 3258 1e88 FC03F807 		.ascii	"\374\003\370\007\360\017\340\037\300?\200\177\000\376"
 3258      F00FE01F 
 3258      C03F807F 
 3258      00FE
 3259 1e96 01FC03F8 		.ascii	"\001\374\003\370\007\360\017\340\037\300?\200?\000|"
 3259      07F00FE0 
 3259      1FC03F80 
 3259      3F007C
 3260 1ea5 0001F801 		.ascii	"\000\001\370\001\377\300\177\374\037\377\303\377\370"
 3260      FFC07FFC 
 3260      1FFFC3FF 
 3260      F8
 3261 1eb2 FE3F1F83 		.ascii	"\376?\037\203\343\360\010\177\000\017\360\000\377\200"
 3261      E3F0087F 
 3261      000FF000 
 3261      FF80
 3262 1ec0 1FFE01FF 		.ascii	"\037\376\001\377\360\017\377\200\177\360\001\377\020"
 3262      F00FFF80 
 3262      7FF001FF 
 3262      10
 3263 1ecd 0FEF01FD 		.ascii	"\017\357\001\375\360?\277\217\367\377\374\377\377\217"
 3263      F03FBF8F 
 3263      F7FFFCFF 
 3263      FF8F
 3264 1edb FFE0FFF8 		.ascii	"\377\340\377\370\003\374\000\007\300\007\340\003\360"
 3264      03FC0007 
 3264      C007E003 
 3264      F0
 3265 1ee8 01F800FC 		.ascii	"\001\370\000\374\000~\000?\000?\376\177\377\377\377"
 3265      007E003F 
 3265      003FFE7F 
 3265      FFFFFF
 3266 1ef7 FFFFFFFF 		.ascii	"\377\377\377\377\377\377\360~\000?\000\037\200\017\300"
 3266      FFFFF07E 
 3266      003F001F 
 3266      800FC0
 3267 1f06 07E003F0 		.ascii	"\007\340\003\360\001\370\000\374\000~\000?\000\037\200"
 3267      01F800FC 
 3267      007E003F 
 3267      001F80
 3268 1f15 0FC007E1 		.ascii	"\017\300\007\341\203\377\341\377\360\177\370?\374\017"
 3268      83FFE1FF 
 3268      F07FF83F 
 3268      FC0F
 3269 1f23 FC01F878 		.ascii	"\374\001\370x\000{\360\003\377\300\017\377\000?\374"
 3269      007BF003 
 3269      FFC00FFF 
 3269      003FFC
 3270 1f32 00FFF003 		.ascii	"\000\377\360\003\377\300\017\377\000?\374\000\377\360"
 3270      FFC00FFF 
 3270      003FFC00 
 3270      FFF0
 3271 1f40 03FFC00F 		.ascii	"\003\377\300\017\377\000?\374\000\377\360\003\377\300"
 3271      FF003FFC 
 3271      00FFF003 
 3271      FFC0
ARM GAS  C:\Users\pbant\AppData\Local\Temp\ccAmOMRv.s 			page 126


 3272 1f4e 0FFF007F 		.ascii	"\017\377\000\177\376\001\377\370\007\377\370?\377\377"
 3272      FE01FFF8 
 3272      07FFF83F 
 3272      FFFF
 3273 1f5c FFFFFFFD 		.ascii	"\377\377\377\375\377\377\363\377\377\307\377?\007\360"
 3273      FFFFF3FF 
 3273      FFC7FF3F 
 3273      07F0
 3274 1f6a 787C003E 		.ascii	"x|\000>\376\000?\376\000\177\377\000\177\177\000\376"
 3274      FE003FFE 
 3274      007FFF00 
 3274      7F7F00FE 
 3275 1f7a 7F00FE3F 		.ascii	"\177\000\376?\000\376?\201\374?\201\374\037\301\374"
 3275      00FE3F81 
 3275      FC3F81FC 
 3275      1FC1FC
 3276 1f89 1FC3F81F 		.ascii	"\037\303\370\037\303\370\017\343\360\017\347\360\007"
 3276      C3F80FE3 
 3276      F00FE7F0 
 3276      07
 3277 1f96 F7F007FF 		.ascii	"\367\360\007\377\340\007\377\340\003\377\300\003\377"
 3277      E007FFE0 
 3277      03FFC003 
 3277      FF
 3278 1fa3 C001FFC0 		.ascii	"\300\001\377\300\001\377\200\001\377\200\000\377\000"
 3278      01FF8001 
 3278      FF8000FF 
 3278      00
 3279 1fb0 007E0000 		.ascii	"\000~\000\000<\000x\000\000\001\357\300\007\000\177"
 3279      3C007800 
 3279      0001EFC0 
 3279      07007F
 3280 1fbf FE01F807 		.ascii	"\376\001\370\007\377\340\037\200\177\177\003\374\017"
 3280      FFE01F80 
 3280      7F7F03FC 
 3280      0F
 3281 1fcc E7F03FC0 		.ascii	"\347\360?\300\376\177\007\374\017\343\370\177\341\374"
 3281      FE7F07FC 
 3281      0FE3F87F 
 3281      E1FC
 3282 1fda 3F87FE1F 		.ascii	"?\207\376\037\303\370\377\341\374\037\317\377?\201\374"
 3282      C3F8FFE1 
 3282      FC1FCFFF 
 3282      3F81FC
 3283 1fe9 FFF3F81F 		.ascii	"\377\363\370\037\317\377?\200\376\371\367\360\017\377"
 3283      CFFF3F80 
 3283      FEF9F7F0 
 3283      0FFF
 3284 1ff7 9FFF007F 		.ascii	"\237\377\000\177\361\377\360\007\377\017\376\000\177"
 3284      F1FFF007 
 3284      FF0FFE00 
 3284      7F
 3285 2004 F0FFE003 		.ascii	"\360\377\340\003\377\017\374\000?\340\177\300\003\376"
 3285      FF0FFC00 
 3285      3FE07FC0 
 3285      03FE
 3286 2012 07FC001F 		.ascii	"\007\374\000\037\340\177\200\001\374\003\370\000\017"
ARM GAS  C:\Users\pbant\AppData\Local\Temp\ccAmOMRv.s 			page 127


 3286      E07F8001 
 3286      FC03F800 
 3286      0F
 3287 201f C03F8000 		.ascii	"\300?\200\000x\000\360\000\036\000\016\037\300\007\347"
 3287      7800F000 
 3287      1E000E1F 
 3287      C007E7
 3288 202e F003F9FE 		.ascii	"\360\003\371\376\001\376?\300\377\017\370\177\201\377"
 3288      01FE3FC0 
 3288      FF0FF87F 
 3288      81FF
 3289 203c 3FC03FFF 		.ascii	"?\300?\377\340\007\377\370\000\377\374\000\037\376\000"
 3289      E007FFF8 
 3289      00FFFC00 
 3289      1FFE00
 3290 204b 03FF0000 		.ascii	"\003\377\000\000\377\300\000\177\360\000\037\376\000"
 3290      FFC0007F 
 3290      F0001FFE 
 3290      00
 3291 2058 0FFFC007 		.ascii	"\017\377\300\007\377\370\003\374\377\001\376?\300\377"
 3291      FFF803FC 
 3291      FF01FE3F 
 3291      C0FF
 3292 2066 87F83FC0 		.ascii	"\207\370?\300\377\037\340\037\357\360\003\377\370\000"
 3292      FF1FE01F 
 3292      EFF003FF 
 3292      F800
 3293 2074 7F78000F 		.ascii	"\177x\000\017\200|\000\016\177\000\017\277\300\017\377"
 3293      807C000E 
 3293      7F000FBF 
 3293      C00FFF
 3294 2083 E00FF7F0 		.ascii	"\340\017\367\360\007\373\374\007\374\376\003\374\177"
 3294      07FBFC07 
 3294      FCFE03FC 
 3294      7F
 3295 2090 81FE1FC1 		.ascii	"\201\376\037\301\376\017\340\377\007\370\377\001\374"
 3295      FE0FE0FF 
 3295      07F8FF01 
 3295      FC
 3296 209d 7F80FF3F 		.ascii	"\177\200\377?\200?\277\300\037\377\300\007\377\340\003"
 3296      803FBFC0 
 3296      1FFFC007 
 3296      FFE003
 3297 20ac FFE000FF 		.ascii	"\377\340\000\377\360\000?\360\000\037\370\000\017\370"
 3297      F0003FF0 
 3297      001FF800 
 3297      0FF8
 3298 20ba 0003FC00 		.ascii	"\000\003\374\000\001\374\000\000\376\000\000\377\000"
 3298      01FC0000 
 3298      FE0000FF 
 3298      00
 3299 20c7 007F0000 		.ascii	"\000\177\000\000?\200\000?\200\000\037\300\000\037\300"
 3299      3F80003F 
 3299      80001FC0 
 3299      001FC0
 3300 20d6 000FE000 		.ascii	"\000\017\340\000\007\340\000\007\360\000\003\360\000"
 3300      07E00007 
ARM GAS  C:\Users\pbant\AppData\Local\Temp\ccAmOMRv.s 			page 128


 3300      F00003F0 
 3300      00
 3301 20e3 00F00000 		.ascii	"\000\360\000\000\177\377\374\377\377\376\377\377\376"
 3301      7FFFFCFF 
 3301      FFFEFFFF 
 3301      FE
 3302 20f0 FFFFFEFF 		.ascii	"\377\377\376\377\377\376\177\377\374\000\007\370\000"
 3302      FFFE7FFF 
 3302      FC0007F8 
 3302      00
 3303 20fd 0FF0001F 		.ascii	"\017\360\000\037\340\000?\300\000\177\200\000\377\200"
 3303      E0003FC0 
 3303      007F8000 
 3303      FF80
 3304 210b 01FF0003 		.ascii	"\001\377\000\003\376\000\003\374\000\007\370\000\017"
 3304      FE0003FC 
 3304      0007F800 
 3304      0F
 3305 2118 F0001FE0 		.ascii	"\360\000\037\340\000?\300\000\177\377\376\377\377\377"
 3305      003FC000 
 3305      7FFFFEFF 
 3305      FFFF
 3306 2126 FFFFFFFF 		.ascii	"\377\377\377\377\377\377\377\377\377\177\377\376\003"
 3306      FFFFFFFF 
 3306      FF7FFFFE 
 3306      03
 3307 2133 F83FF1FF 		.ascii	"\370?\361\377\317\377?\001\370\007\340\037\200~\001"
 3307      CFFF3F01 
 3307      F807E01F 
 3307      807E01
 3308 2142 F803F00F 		.ascii	"\370\003\360\017\300?\000\376\001\370\007\340\037\300"
 3308      C03F00FE 
 3308      01F807E0 
 3308      1FC0
 3309 2150 3F00FC03 		.ascii	"?\000\374\003\360\037\303\376\017\360?\340\177\200\376"
 3309      F01FC3FE 
 3309      0FF03FE0 
 3309      7F80FE
 3310 215f 00FC03F0 		.ascii	"\000\374\003\360\017\300?\001\374\007\340\037\200\376"
 3310      0FC03F01 
 3310      FC07E01F 
 3310      80FE
 3311 216d 03F00FC0 		.ascii	"\003\360\017\300\177\001\370\007\340\037\200~\001\374"
 3311      7F01F807 
 3311      E01F807E 
 3311      01FC
 3312 217b 03FF87FF 		.ascii	"\003\377\207\377\017\374\037\360{\377\377\377\377\377"
 3312      0FFC1FF0 
 3312      7BFFFFFF 
 3312      FFFF
 3313 2189 FFFFFFFF 		.ascii	"\377\377\377\377\377\377\377\377\377\377\377\377\377"
 3313      FFFFFFFF 
 3313      FFFFFFFF 
 3313      FF
 3314 2196 FFFFFFFF 		.ascii	"\377\377\377\377\377\377\377\377\377\377\377\377\377"
 3314      FFFFFFFF 
 3314      FFFFFFFF 
ARM GAS  C:\Users\pbant\AppData\Local\Temp\ccAmOMRv.s 			page 129


 3314      FF
 3315 21a3 FFFFFF80 		.ascii	"\377\377\377\200\177\201\377\203\377\203\377\200\177"
 3315      7F81FF83 
 3315      FF83FF80 
 3315      7F
 3316 21b0 803F007E 		.ascii	"\200?\000~\000\374\001\370\007\360\017\300\037\200\177"
 3316      00FC01F8 
 3316      07F00FC0 
 3316      1F807F
 3317 21bf 00FC01F8 		.ascii	"\000\374\001\370\007\360\017\300\037\200?\000~\000~"
 3317      07F00FC0 
 3317      1F803F00 
 3317      7E007E
 3318 21ce 00FF81FF 		.ascii	"\000\377\201\377\001\376\007\374\037\300?\000~\000\374"
 3318      01FE07FC 
 3318      1FC03F00 
 3318      7E00FC
 3319 21dd 01F801F0 		.ascii	"\001\370\001\360\003\360\007\340\017\300\017\300\037"
 3319      03F007E0 
 3319      0FC00FC0 
 3319      1F
 3320 21ea 801F003F 		.ascii	"\200\037\000?\000~\000\374\003\370\017\343\377\307\377"
 3320      007E00FC 
 3320      03F80FE3 
 3320      FFC7FF
 3321 21f9 0FFC1FF0 		.ascii	"\017\374\037\360\000\017\000\000\177\200\001\377\300"
 3321      000F0000 
 3321      7F8001FF 
 3321      C0
 3322 2206 03FFE0CF 		.ascii	"\003\377\340\317\377\377\337\377\377\336\037\377\230"
 3322      FFFFDFFF 
 3322      FFDE1FFF 
 3322      98
 3323 2213 0FFF000F 		.ascii	"\017\377\000\017\374\000\007\340"
 3323      FC0007E0 
 3324              		.section	.rodata._ZL7Pap_map,"a"
 3325              		.align	2
 3328              	_ZL7Pap_map:
 3329 0000 A96729A8 		.ascii	"\251g)\250e'\250d&\247c&\252f(\251h*\253j-\255l0\256"
 3329      6527A864 
 3329      26A76326 
 3329      AA6628A9 
 3329      682AAB6A 
 3330 0019 6E31AD6D 		.ascii	"n1\255m3\254m2\252j,\252h)\251d'\251a%\247`$\245^!\244"
 3330      33AC6D32 
 3330      AA6A2CAA 
 3330      6829A964 
 3330      27A96125 
 3331 0034 5C20A55D 		.ascii	"\\ \245] \247^ \247_ \247` \250b\"\252c#\252f$\253i"
 3331      20A75E20 
 3331      A75F20A7 
 3331      6020A862 
 3331      22AA6323 
 3332 004d 24AD6926 		.ascii	"$\255i&\256j'\256j'\257k(\257k(\257k(\257l'\257l&\256"
 3332      AE6A27AE 
 3332      6A27AF6B 
 3332      28AF6B28 
ARM GAS  C:\Users\pbant\AppData\Local\Temp\ccAmOMRv.s 			page 130


 3332      AF6B28AF 
 3333 0067 6B26AE6B 		.ascii	"k&\256k&\256i&\255h&\255i%\255i$\256i$\257h#\256g\""
 3333      26AE6926 
 3333      AD6826AD 
 3333      6925AD69 
 3333      24AE6924 
 3334 0081 AD6722AD 		.ascii	"\255g\"\255g\"\255g\"\255g!\256h\"\256h\"\260j$\260"
 3334      6722AD67 
 3334      22AD6721 
 3334      AE6822AE 
 3334      6822B06A 
 3335 0097 6A24B06A 		.ascii	"j$\260j%\257k%\257k%\260l&\260l&\257k%\257k%\257k%\260"
 3335      25AF6B25 
 3335      AF6B25B0 
 3335      6C26B06C 
 3335      26AF6B25 
 3336 00b2 6B25B16A 		.ascii	"k%\261j%\261j%\260j$\260j%\260j&\261j&\261j&\261j&\261"
 3336      25B16A25 
 3336      B06A24B0 
 3336      6A25B06A 
 3336      26B16A26 
 3337 00cd 6A26B16A 		.ascii	"j&\261j&\261j&\261j&\260i&\257i&\257j'\256j%\255g&\255"
 3337      26B16A26 
 3337      B16A26B0 
 3337      6926AF69 
 3337      26AF6A27 
 3338 00e8 6725AD68 		.ascii	"g%\255h%\260j)\264q-\266v0\267{6\270\200:\274\207?\276"
 3338      25B06A29 
 3338      B4712DB6 
 3338      7630B77B 
 3338      36B8803A 
 3339 0100 8A44BF8B 		.ascii	"\212D\277\213F\275\213C\275\210@\275\205;\274\2028\272"
 3339      46BD8B43 
 3339      BD8840BD 
 3339      853BBC82 
 3339      38BA
 3340 0112 8033B97D 		.ascii	"\2003\271}2\267y0\267v.\271w+\267u-\266s,\265s*\264"
 3340      32B77930 
 3340      B7762EB9 
 3340      772BB775 
 3340      2DB6732C 
 3341 012a 72299F56 		.ascii	"r)\237V\022\237U\021\237T\020\237T\020\242W\023\241"
 3341      129F5511 
 3341      9F54109F 
 3341      5410A257 
 3341      13A1
 3342 013c 5915A35C 		.ascii	"Y\025\243\\\030\242\\\030\244]\032\244[\033\241Y\030"
 3342      18A25C18 
 3342      A45D1AA4 
 3342      5B1BA159 
 3342      18
 3343 014d A05613A0 		.ascii	"\240V\023\240T\020\240P\016\237M\012\235L\011\234K\010"
 3343      5410A050 
 3343      0E9F4D0A 
 3343      9D4C099C 
 3343      4B08
 3344 015f 9C4A079C 		.ascii	"\234J\007\234J\007\235L\010\234L\007\234N\007\236P\011"
ARM GAS  C:\Users\pbant\AppData\Local\Temp\ccAmOMRv.s 			page 131


 3344      4A079D4C 
 3344      089C4C07 
 3344      9C4E079E 
 3344      5009
 3345 0171 9F510AA1 		.ascii	"\237Q\012\241T\013\243V\013\244X\016\243Y\017\244Y\017"
 3345      540BA356 
 3345      0BA4580E 
 3345      A3590FA4 
 3345      590F
 3346 0183 A55A10A6 		.ascii	"\245Z\020\246[\021\246[\021\246[\021\245Z\020\244Y\017"
 3346      5B11A65B 
 3346      11A65B11 
 3346      A55A10A4 
 3346      590F
 3347 0195 A4590FA5 		.ascii	"\244Y\017\245X\017\245X\017\245X\016\245X\015\244X\015"
 3347      580FA558 
 3347      0FA5580E 
 3347      A5580DA4 
 3347      580D
 3348 01a7 A6570BA5 		.ascii	"\246W\013\245W\013\245W\013\246W\013\246W\013\245W\012"
 3348      570BA557 
 3348      0BA6570B 
 3348      A6570BA5 
 3348      570A
 3349 01b9 A6580BA7 		.ascii	"\246X\013\247Y\014\251[\016\250Z\015\250[\016\250\\"
 3349      590CA95B 
 3349      0EA85A0D 
 3349      A85B0EA8 
 3349      5C
 3350 01ca 0EA85C0E 		.ascii	"\016\250\\\016\250]\017\250]\017\247\\\016\247\\\016"
 3350      A85D0FA8 
 3350      5D0FA75C 
 3350      0EA75C0E 
 3351 01da A75C0EA8 		.ascii	"\247\\\016\250\\\016\250[\016\251[\016\251[\016\252"
 3351      5C0EA85B 
 3351      0EA95B0E 
 3351      A95B0EAA 
 3352 01ea 5C0FAA5C 		.ascii	"\\\017\252\\\020\252\\\020\252\\\020\252\\\020\252\\"
 3352      10AA5C10 
 3352      AA5C10AA 
 3352      5C10AA5C 
 3353 01fa 10AA5C10 		.ascii	"\020\252\\\020\252\\\020\250Z\020\247Y\017\247Z\020"
 3353      AA5C10A8 
 3353      5A10A759 
 3353      0FA75A10 
 3354 020a A85B11A7 		.ascii	"\250[\021\247[\017\246X\020\245X\020\247Z\021\252`\025"
 3354      5B0FA658 
 3354      10A55810 
 3354      A75A11AA 
 3354      6015
 3355 021c AE6819B0 		.ascii	"\256h\031\260l\036\262q$\265v(\267{,\267}.\270~/\266"
 3355      6C1EB271 
 3355      24B57628 
 3355      B77B2CB7 
 3355      7D2EB87E 
 3356 0232 7C2BB679 		.ascii	"|+\266y(\265v$\264r \262o\033\261l\031\257i\030\260"
 3356      28B57624 
ARM GAS  C:\Users\pbant\AppData\Local\Temp\ccAmOMRv.s 			page 132


 3356      B47220B2 
 3356      6F1BB16C 
 3356      19AF6918 
 3357 0247 6716AF66 		.ascii	"g\026\257f\026\256d\026\253b\023\253b\022\252a\021\240"
 3357      16AE6416 
 3357      AB6213AB 
 3357      6212AA61 
 3357      11A0
 3358 0259 57139F55 		.ascii	"W\023\237U\021\237T\020\237V\022\241Y\024\242[\026\243"
 3358      119F5410 
 3358      9F5612A1 
 3358      5914A25B 
 3358      16A3
 3359 026b 5C19A35C 		.ascii	"\\\031\243\\\031\244]\032\242Z\030\241U\023\240R\020"
 3359      19A45D1A 
 3359      A25A18A1 
 3359      5513A052 
 3359      10
 3360 027c 9E4F0E9D 		.ascii	"\236O\016\235M\014\234L\012\232K\010\232J\007\233J\007"
 3360      4D0C9C4C 
 3360      0A9A4B08 
 3360      9A4A079B 
 3360      4A07
 3361 028e 9B4A079C 		.ascii	"\233J\007\234K\007\235L\007\235M\005\236N\007\240P\011"
 3361      4B079D4C 
 3361      079D4D05 
 3361      9E4E07A0 
 3361      5009
 3362 02a0 A0510AA1 		.ascii	"\240Q\012\241R\014\241V\014\241W\014\244X\016\244Y\017"
 3362      520CA156 
 3362      0CA1570C 
 3362      A4580EA4 
 3362      590F
 3363 02b2 A55A10A5 		.ascii	"\245Z\020\245Z\020\245Z\020\245Z\020\244Y\017\243X\016"
 3363      5A10A55A 
 3363      10A55A10 
 3363      A4590FA3 
 3363      580E
 3364 02c4 A4580FA5 		.ascii	"\244X\017\245X\017\244X\017\244W\016\245W\014\245W\013"
 3364      580FA458 
 3364      0FA4570E 
 3364      A5570CA5 
 3364      570B
 3365 02d6 A5570BA5 		.ascii	"\245W\013\245W\013\246W\012\247W\012\246W\012\247Y\014"
 3365      570BA657 
 3365      0AA7570A 
 3365      A6570AA7 
 3365      590C
 3366 02e8 A7590CA8 		.ascii	"\247Y\014\250Z\015\250Z\015\250Z\015\251Z\015\251\\"
 3366      5A0DA85A 
 3366      0DA85A0D 
 3366      A95A0DA9 
 3366      5C
 3367 02f9 0FA85D0F 		.ascii	"\017\250]\017\250]\017\250]\017\250]\017\250]\017\250"
 3367      A85D0FA8 
 3367      5D0FA85D 
 3367      0FA85D0F 
ARM GAS  C:\Users\pbant\AppData\Local\Temp\ccAmOMRv.s 			page 133


 3367      A8
 3368 030a 5D0FA75C 		.ascii	"]\017\247\\\016\250\\\017\252[\017\252\\\017\252\\\017"
 3368      0EA85C0F 
 3368      AA5B0FAA 
 3368      5C0FAA5C 
 3368      0F
 3369 031b AA5C0FA9 		.ascii	"\252\\\017\251[\017\251[\017\251[\017\250[\017\247["
 3369      5B0FA95B 
 3369      0FA95B0F 
 3369      A85B0FA7 
 3369      5B
 3370 032c 0FA75B0F 		.ascii	"\017\247[\017\246Z\016\247[\017\250\\\020\250[\021\247"
 3370      A65A0EA7 
 3370      5B0FA85C 
 3370      10A85B11 
 3370      A7
 3371 033d 5A12A659 		.ascii	"Z\022\246Y\022\250\\\022\254d\026\261l\035\263q\"\264"
 3371      12A85C12 
 3371      AC6416B1 
 3371      6C1DB371 
 3371      22B4
 3372 034f 7525B578 		.ascii	"u%\265x)\271{.\271|,\271|,\266z*\266w&\263s\036\262"
 3372      29B97B2E 
 3372      B97C2CB9 
 3372      7C2CB67A 
 3372      2AB67726 
 3373 0367 6F1AB16B 		.ascii	"o\032\261k\030\256h\027\255f\025\256e\025\254c\023\252"
 3373      18AE6817 
 3373      AD6615AE 
 3373      6515AC63 
 3373      13AA
 3374 0379 6111A961 		.ascii	"a\021\251a\020\251a\020\251`\020\240W\023\241U\021\241"
 3374      10A96110 
 3374      A96010A0 
 3374      5713A155 
 3374      11A1
 3375 038b 5511A057 		.ascii	"U\021\240W\023\242Z\025\242[\027\244\\\031\244]\032"
 3375      13A25A15 
 3375      A25B17A4 
 3375      5C19A45D 
 3375      1A
 3376 039c A45D1AA1 		.ascii	"\244]\032\241Y\026\240T\022\237Q\017\236P\015\235N\014"
 3376      5916A054 
 3376      129F510F 
 3376      9E500D9D 
 3376      4E0C
 3377 03ae 9C4D0B9B 		.ascii	"\234M\013\233L\011\233K\010\234J\007\234J\007\233K\007"
 3377      4C099B4B 
 3377      089C4A07 
 3377      9C4A079B 
 3377      4B07
 3378 03c0 9C4C069E 		.ascii	"\234L\006\236M\006\236N\007\240O\010\237P\011\237Q\013"
 3378      4D069E4E 
 3378      07A04F08 
 3378      9F50099F 
 3378      510B
 3379 03d2 A1540CA1 		.ascii	"\241T\014\241V\014\243X\016\244Y\017\245Z\020\245Z\020"
ARM GAS  C:\Users\pbant\AppData\Local\Temp\ccAmOMRv.s 			page 134


 3379      560CA358 
 3379      0EA4590F 
 3379      A55A10A5 
 3379      5A10
 3380 03e4 A55A10A6 		.ascii	"\245Z\020\246[\020\244Y\017\244Y\017\245X\016\245X\016"
 3380      5B10A459 
 3380      0FA4590F 
 3380      A5580EA5 
 3380      580E
 3381 03f6 A5580FA5 		.ascii	"\245X\017\245W\017\245X\015\245X\014\246X\014\246X\014"
 3381      570FA558 
 3381      0DA5580C 
 3381      A6580CA6 
 3381      580C
 3382 0408 A6570AA7 		.ascii	"\246W\012\247W\012\246W\012\247X\013\246X\013\247Y\014"
 3382      570AA657 
 3382      0AA7580B 
 3382      A6580BA7 
 3382      590C
 3383 041a A85A0DA8 		.ascii	"\250Z\015\250Z\015\250Z\015\251]\017\251^\017\250]\017"
 3383      5A0DA85A 
 3383      0DA95D0F 
 3383      A95E0FA8 
 3383      5D0F
 3384 042c A95E10AA 		.ascii	"\251^\020\252_\021\251^\020\251^\020\251^\020\251^\020"
 3384      5F11A95E 
 3384      10A95E10 
 3384      A95E10A9 
 3384      5E10
 3385 043e AA5D0FAA 		.ascii	"\252]\017\252]\017\252\\\017\252\\\017\251[\017\251"
 3385      5D0FAA5C 
 3385      0FAA5C0F 
 3385      A95B0FA9 
 3386 044e 5B0FA95B 		.ascii	"[\017\251[\017\250[\017\247[\017\250\\\020\250\\\020"
 3386      0FA85B0F 
 3386      A75B0FA8 
 3386      5C10A85C 
 3386      10
 3387 045f A85C10A9 		.ascii	"\250\\\020\251]\020\251\\\022\250[\022\250]\022\254"
 3387      5D10A95C 
 3387      12A85B12 
 3387      A85D12AC 
 3388 046f 6314AE69 		.ascii	"c\024\256i\032\261m\037\264t&\265y)\267z*\271{-\270"
 3388      1AB16D1F 
 3388      B47426B5 
 3388      7929B77A 
 3388      2AB97B2D 
 3389 0484 7B2CB77A 		.ascii	"{,\267z)\266x$\265t!\262p\033\261l\027\260i\025\254"
 3389      29B67824 
 3389      B57421B2 
 3389      701BB16C 
 3389      17B06915 
 3390 0499 6515AB62 		.ascii	"e\025\253b\024\253b\023\252a\021\251_\020\250_\017\251"
 3390      14AB6213 
 3390      AA6111A9 
 3390      5F10A85F 
 3390      0FA9
ARM GAS  C:\Users\pbant\AppData\Local\Temp\ccAmOMRv.s 			page 135


 3391 04ab 5F0FA85F 		.ascii	"_\017\250_\017\242V\022\241U\021\241W\023\240W\023\242"
 3391      0FA25612 
 3391      A15511A1 
 3391      5713A057 
 3391      13A2
 3392 04bd 5915A25B 		.ascii	"Y\025\242[\027\243\\\030\243\\\030\242\\\030\237X\025"
 3392      17A35C18 
 3392      A35C18A2 
 3392      5C189F58 
 3392      15
 3393 04ce A15412A1 		.ascii	"\241T\022\241S\020\240R\017\236P\015\235O\014\235N\014"
 3393      5310A052 
 3393      0F9E500D 
 3393      9D4F0C9D 
 3393      4E0C
 3394 04e0 9C4D0A9C 		.ascii	"\234M\012\234M\012\234M\011\235L\010\235M\010\236N\007"
 3394      4D0A9C4D 
 3394      099D4C08 
 3394      9D4D089E 
 3394      4E07
 3395 04f2 9E4E069E 		.ascii	"\236N\006\236N\006\236O\010\236P\012\240S\012\242T\012"
 3395      4E069E4F 
 3395      089E500A 
 3395      A0530AA2 
 3395      540A
 3396 0504 A3570DA4 		.ascii	"\243W\015\244Y\017\244Y\017\245Z\020\245Z\020\246[\021"
 3396      590FA459 
 3396      0FA55A10 
 3396      A55A10A6 
 3396      5B11
 3397 0516 A65B11A6 		.ascii	"\246[\021\246[\021\246[\020\245Z\017\245Y\017\245X\017"
 3397      5B11A65B 
 3397      10A55A0F 
 3397      A5590FA5 
 3397      580F
 3398 0528 A5590EA5 		.ascii	"\245Y\016\245Y\015\246Y\015\246X\014\245W\012\245W\012"
 3398      590DA659 
 3398      0DA6580C 
 3398      A5570AA5 
 3398      570A
 3399 053a A7570AA7 		.ascii	"\247W\012\247W\012\246W\012\247Y\014\247Y\014\250[\015"
 3399      570AA657 
 3399      0AA7590C 
 3399      A7590CA8 
 3399      5B0D
 3400 054c A75C0DA8 		.ascii	"\247\\\015\250]\016\251^\017\251^\020\252_\021\252_"
 3400      5D0EA95E 
 3400      0FA95E10 
 3400      AA5F11AA 
 3400      5F
 3401 055d 11AA5F11 		.ascii	"\021\252_\021\251^\020\251^\020\251^\020\250]\017\251"
 3401      A95E10A9 
 3401      5E10A95E 
 3401      10A85D0F 
 3401      A9
 3402 056e 5C0FA95B 		.ascii	"\\\017\251[\016\251\\\016\250]\017\250]\017\250]\017"
 3402      0EA95C0E 
ARM GAS  C:\Users\pbant\AppData\Local\Temp\ccAmOMRv.s 			page 136


 3402      A85D0FA8 
 3402      5D0FA85D 
 3402      0F
 3403 057f A75C0FA7 		.ascii	"\247\\\017\247[\017\250\\\020\250\\\020\250\\\020\251"
 3403      5B0FA85C 
 3403      10A85C10 
 3403      A85C10A9 
 3404 058f 5D11A85D 		.ascii	"]\021\250]\021\250]\021\254a\023\261g\031\261k\036\263"
 3404      11A85D11 
 3404      AC6113B1 
 3404      6719B16B 
 3404      1EB3
 3405 05a1 7124B577 		.ascii	"q$\265w(\266y+\267{+\270z*\267y)\267x$\264t\036\263"
 3405      28B6792B 
 3405      B77B2BB8 
 3405      7A2AB779 
 3405      29B77824 
 3406 05b9 711CB16E 		.ascii	"q\034\261n\031\260j\025\256f\023\253b\022\252`\021\251"
 3406      19B06A15 
 3406      AE6613AB 
 3406      6212AA60 
 3406      11A9
 3407 05cb 5F0FA85E 		.ascii	"_\017\250^\016\251^\017\251^\017\251^\017\251^\017\241"
 3407      0EA95E0F 
 3407      A95E0FA9 
 3407      5E0FA95E 
 3407      0FA1
 3408 05dd 5612A155 		.ascii	"V\022\241U\021\241V\022\240W\023\243Y\025\242Z\026\243"
 3408      11A15612 
 3408      A05713A3 
 3408      5915A25A 
 3408      16A3
 3409 05ef 5B17A25B 		.ascii	"[\027\242[\026\242[\026\240Y\026\241W\023\243V\022\242"
 3409      16A25B16 
 3409      A05916A1 
 3409      5713A356 
 3409      12A2
 3410 0601 5511A053 		.ascii	"U\021\240S\017\240Q\016\237Q\016\236Q\014\235P\013\236"
 3410      0FA0510E 
 3410      9F510E9E 
 3410      510C9D50 
 3410      0B9E
 3411 0613 500B9E4E 		.ascii	"P\013\236N\012\236L\010\235L\005\234L\006\242N\004\247"
 3411      0A9E4C08 
 3411      9D4C059C 
 3411      4C06A24E 
 3411      04A7
 3412 0625 5304A956 		.ascii	"S\004\251V\006\251V\011\251W\011\253Z\013\255\\\012"
 3412      06A95609 
 3412      A95709AB 
 3412      5A0BAD5C 
 3412      0A
 3413 0636 AD5C09A9 		.ascii	"\255\\\011\251[\015\245Z\020\245[\021\247\\\022\246"
 3413      5B0DA55A 
 3413      10A55B11 
 3413      A75C12A6 
 3414 0646 5B11A55A 		.ascii	"[\021\245Z\021\245Y\021\245X\020\245X\017\245Y\016\245"
ARM GAS  C:\Users\pbant\AppData\Local\Temp\ccAmOMRv.s 			page 137


 3414      11A55911 
 3414      A55810A5 
 3414      580FA559 
 3414      0EA5
 3415 0658 590DA658 		.ascii	"Y\015\246X\014\246X\014\245W\012\245W\012\246W\012\246"
 3415      0CA6580C 
 3415      A5570AA5 
 3415      570AA657 
 3415      0AA6
 3416 066a 570AA557 		.ascii	"W\012\245W\012\247Y\013\250Z\015\251\\\017\250]\016"
 3416      0AA7590B 
 3416      A85A0DA9 
 3416      5C0FA85D 
 3416      0E
 3417 067b A95E0FAA 		.ascii	"\251^\017\252_\020\252_\020\252_\021\252_\021\252_\021"
 3417      5F10AA5F 
 3417      10AA5F11 
 3417      AA5F11AA 
 3417      5F11
 3418 068d A95E10A9 		.ascii	"\251^\020\251^\020\251^\020\250]\017\251\\\017\251["
 3418      5E10A95E 
 3418      10A85D0F 
 3418      A95C0FA9 
 3418      5B
 3419 069e 0EA95C0E 		.ascii	"\016\251\\\016\250]\017\250]\017\250]\017\251]\020\251"
 3419      A85D0FA8 
 3419      5D0FA85D 
 3419      0FA95D10 
 3419      A9
 3420 06af 5C10A95C 		.ascii	"\\\020\251\\\020\250\\\020\250\\\020\251]\021\250]\021"
 3420      10A85C10 
 3420      A85C10A9 
 3420      5D11A85D 
 3420      11
 3421 06c0 AA6013AE 		.ascii	"\252`\023\256e\026\261k\034\263o!\265s%\265w)\265x)"
 3421      6516B16B 
 3421      1CB36F21 
 3421      B57325B5 
 3421      7729B578 
 3422 06d5 B47929B6 		.ascii	"\264y)\266x(\266v&\266t!\263q\034\263m\032\261j\026"
 3422      7828B676 
 3422      26B67421 
 3422      B3711CB3 
 3422      6D1AB16A 
 3423 06ea AF6614AC 		.ascii	"\257f\024\254c\023\252`\021\251_\017\250^\016\250]\016"
 3423      6313AA60 
 3423      11A95F0F 
 3423      A85E0EA8 
 3423      5D0E
 3424 06fc A85D0EA8 		.ascii	"\250]\016\250]\016\251^\017\251^\017\237V\022\240U\021"
 3424      5D0EA95E 
 3424      0FA95E0F 
 3424      9F5612A0 
 3424      5511
 3425 070e A05511A0 		.ascii	"\240U\021\240V\022\243X\024\243Z\026\244[\027\245\\"
 3425      5612A358 
 3425      14A35A16 
ARM GAS  C:\Users\pbant\AppData\Local\Temp\ccAmOMRv.s 			page 138


 3425      A45B17A5 
 3425      5C
 3426 071f 17A55C18 		.ascii	"\027\245\\\030\242[\027\241Y\025\243X\024\242X\024\242"
 3426      A25B17A1 
 3426      5915A358 
 3426      14A25814 
 3426      A2
 3427 0730 5713A255 		.ascii	"W\023\242U\021\240V\016\240T\014\237R\012\240Q\013\235"
 3427      11A0560E 
 3427      A0540C9F 
 3427      520AA051 
 3427      0B9D
 3428 0742 4E099E4B 		.ascii	"N\011\236K\007\235K\006\244O\004\214J\026l<\"X9-B39"
 3428      079D4B06 
 3428      A44F048C 
 3428      4A166C3C 
 3428      2258392D 
 3429 0759 3E343A47 		.ascii	">4:G9>UA;uK*\231W\031\255_\016\255^\014\247[\020\245"
 3429      393E5541 
 3429      3B754B2A 
 3429      995719AD 
 3429      5F0EAD5E 
 3430 0772 5A10A459 		.ascii	"Z\020\244Y\021\244X\021\245X\017\245W\017\245Y\016\245"
 3430      11A45811 
 3430      A5580FA5 
 3430      570FA559 
 3430      0EA5
 3431 0784 590DA557 		.ascii	"Y\015\245W\013\245W\013\245W\012\245W\012\245W\012\245"
 3431      0BA5570B 
 3431      A5570AA5 
 3431      570AA557 
 3431      0AA5
 3432 0796 570AA658 		.ascii	"W\012\246X\013\247Y\014\250[\014\251]\016\250]\016\251"
 3432      0BA7590C 
 3432      A85B0CA9 
 3432      5D0EA85D 
 3432      0EA9
 3433 07a8 5E0FA95E 		.ascii	"^\017\251^\017\252_\020\252_\021\252_\021\251^\020\250"
 3433      0FAA5F10 
 3433      AA5F11AA 
 3433      5F11A95E 
 3433      10A8
 3434 07ba 5E0FA95E 		.ascii	"^\017\251^\020\251]\020\250]\017\251\\\020\252[\016"
 3434      10A95D10 
 3434      A85D0FA9 
 3434      5C10AA5B 
 3434      0E
 3435 07cb A95C0EA8 		.ascii	"\251\\\016\250]"
 3435      5D
 3436 07d0 0FA85E10 		.ascii	"\017\250^\020\251^\020\252^\021\253]\021\251\\\020\250"
 3436      A95E10AA 
 3436      5E11AB5D 
 3436      11A95C10 
 3436      A8
 3437 07e1 5C10A95D 		.ascii	"\\\020\251]\021\252^\021\251_\020\252c\024\257i\032"
 3437      11AA5E11 
 3437      A95F10AA 
ARM GAS  C:\Users\pbant\AppData\Local\Temp\ccAmOMRv.s 			page 139


 3437      6314AF69 
 3437      1A
 3438 07f2 B36F1FB4 		.ascii	"\263o\037\264s$\265v(\265w(\265x(\264x'\265v%\264s!"
 3438      7324B576 
 3438      28B57728 
 3438      B57828B4 
 3438      7827B576 
 3439 080a B3711CB1 		.ascii	"\263q\034\261n\031\262l\027\260g\024\254d\023\253b\022"
 3439      6E19B26C 
 3439      17B06714 
 3439      AC6413AB 
 3439      6212
 3440 081c AB5F10AB 		.ascii	"\253_\020\253^\017\252]\016\250]\016\250]\016\250]\016"
 3440      5E0FAA5D 
 3440      0EA85D0E 
 3440      A85D0EA8 
 3440      5D0E
 3441 082e A85D0EA9 		.ascii	"\250]\016\251^\017\240S\020\237S\017\240T\020\241U\022"
 3441      5E0FA053 
 3441      109F530F 
 3441      A05410A1 
 3441      5512
 3442 0840 A15612A2 		.ascii	"\241V\022\242X\024\244\\\030\245\\\030\246^\032\244"
 3442      5814A45C 
 3442      18A55C18 
 3442      A65E1AA4 
 3443 0850 5E1AA35D 		.ascii	"^\032\243]\030\243\\\030\243\\\030\244\\\030\245[\026"
 3443      18A35C18 
 3443      A35C18A4 
 3443      5C18A55B 
 3443      16
 3444 0861 A45911A2 		.ascii	"\244Y\021\242U\015\237Q\012\237O\011\237M\011\236K\007"
 3444      550D9F51 
 3444      0A9F4F09 
 3444      9F4D099E 
 3444      4B07
 3445 0873 A54D016B 		.ascii	"\245M\001kF3\021\"L\002\0179\000\0148\002\024G\004\026"
 3445      46331122 
 3445      4C020F39 
 3445      000C3802 
 3445      14470416 
 3446 0887 4801103E 		.ascii	"H\001\020>\002\026I\006\034N\031$GH8<\201Q+\251]\025"
 3446      02164906 
 3446      1C4E1924 
 3446      4748383C 
 3446      81512BA9 
 3447 089d B05D0CA9 		.ascii	"\260]\014\251Y\017\245Y\021\245Y\020\245X\016\244Y\015"
 3447      590FA559 
 3447      11A55910 
 3447      A5580EA4 
 3447      590D
 3448 08af A5590DA4 		.ascii	"\245Y\015\244W\013\244W\013\245W\012\245W\012\246W\012"
 3448      570BA457 
 3448      0BA5570A 
 3448      A5570AA6 
 3448      570A
 3449 08c1 A6580BA6 		.ascii	"\246X\013\246Y\014\247Y\014\250[\014\250\\\015\247\\"
ARM GAS  C:\Users\pbant\AppData\Local\Temp\ccAmOMRv.s 			page 140


 3449      590CA759 
 3449      0CA85B0C 
 3449      A85C0DA7 
 3449      5C
 3450 08d2 0DA95E0F 		.ascii	"\015\251^\017\251^\017\252_\020\252_\021\252_\021\251"
 3450      A95E0FAA 
 3450      5F10AA5F 
 3450      11AA5F11 
 3450      A9
 3451 08e3 5E10AA5F 		.ascii	"^\020\252_\021\253`\022\252_\021\251_\020\252^\020\252"
 3451      11AB6012 
 3451      AA5F11A9 
 3451      5F10AA5E 
 3451      10AA
 3452 08f5 5D0FA95D 		.ascii	"]\017\251]\017\250]\017\250^\020\251^\020\252^\021\252"
 3452      0FA85D0F 
 3452      A85E10A9 
 3452      5E10AA5E 
 3452      11AA
 3453 0907 5D11A95C 		.ascii	"]\021\251\\\020\250\\\021\251^\021\252_\021\253`\022"
 3453      10A85C11 
 3453      A95E11AA 
 3453      5F11AB60 
 3453      12
 3454 0918 AE6617B1 		.ascii	"\256f\027\261l\036\264r$\265w)\265z+\266z+\266y)\266"
 3454      6C1EB472 
 3454      24B57729 
 3454      B57A2BB6 
 3454      7A2BB679 
 3455 092e 7626B574 		.ascii	"v&\265t#\264q\037\263n\032\260l\027\260i\025\256e\022"
 3455      23B4711F 
 3455      B36E1AB0 
 3455      6C17B069 
 3455      15AE6512 
 3456 0942 AB6211AA 		.ascii	"\253b\021\252`\021\253^\017\253^\017\252]\016\250]\016"
 3456      6011AB5E 
 3456      0FAB5E0F 
 3456      AA5D0EA8 
 3456      5D0E
 3457 0954 A85D0EA8 		.ascii	"\250]\016\250]\016\250^\016\252_\020\240R\017\240R\017"
 3457      5D0EA85E 
 3457      0EAA5F10 
 3457      A0520FA0 
 3457      520F
 3458 0966 A15310A0 		.ascii	"\241S\020\240U\021\242W\023\242X\025\244\\\027\244^"
 3458      5511A257 
 3458      13A25815 
 3458      A45C17A4 
 3458      5E
 3459 0977 18A55F19 		.ascii	"\030\245_\031\246`\032\246`\032\245^\032\245_\032\245"
 3459      A6601AA6 
 3459      601AA55E 
 3459      1AA55F1A 
 3459      A5
 3460 0988 5F19A75E 		.ascii	"_\031\247^\031\244Z\022\242U\015\237O\013\236M\010\234"
 3460      19A45A12 
 3460      A2550D9F 
ARM GAS  C:\Users\pbant\AppData\Local\Temp\ccAmOMRv.s 			page 141


 3460      4F0B9E4D 
 3460      089C
 3461 099a 4B06A14A 		.ascii	"K\006\241J\005\225J\016\032$H\002\022@\010\0160\010"
 3461      05954A0E 
 3461      1A244802 
 3461      1240080E 
 3461      3008
 3462 09ac 0C320914 		.ascii	"\0142\011\024>\013\025@\014\0218\013\0205\013\025?\010"
 3462      3E0B1540 
 3462      0C11380B 
 3462      10350B15 
 3462      3F08
 3463 09be 19470617 		.ascii	"\031G\006\027F\014\036M46NuO5\245^\032\262`\016\251"
 3463      460C1E4D 
 3463      34364E75 
 3463      4F35A55E 
 3463      1AB2600E 
 3464 09d3 5C12A65C 		.ascii	"\\\022\246\\\021\245[\020\246Y\020\244W\016\244W\016"
 3464      11A55B10 
 3464      A65910A4 
 3464      570EA457 
 3464      0E
 3465 09e4 A5580DA6 		.ascii	"\245X\015\246X\014\246X\013\246X\013\247X\014\247Y\014"
 3465      580CA658 
 3465      0BA6580B 
 3465      A7580CA7 
 3465      590C
 3466 09f6 A75A0BA7 		.ascii	"\247Z\013\247[\014\246\\\015\250]\017\251^\020\252`"
 3466      5B0CA65C 
 3466      0DA85D0F 
 3466      A95E10AA 
 3466      60
 3467 0a07 11AA6111 		.ascii	"\021\252a\021\252`\021\251_\022\253a\022\253b\022\253"
 3467      AA6011A9 
 3467      5F12AB61 
 3467      12AB6212 
 3467      AB
 3468 0a18 6112AA61 		.ascii	"a\022\252a\021\251_\020\251^\020\251^\020\251^\020\251"
 3468      11A95F10 
 3468      A95E10A9 
 3468      5E10A95E 
 3468      10A9
 3469 0a2a 5E10A95E 		.ascii	"^\020\251^\020\251^\020\252^\021\252^\021\252^\021\252"
 3469      10A95E10 
 3469      AA5E11AA 
 3469      5E11AA5E 
 3469      11AA
 3470 0a3c 5F11AA60 		.ascii	"_\021\252`\022\256c\025\261h\031\262n \265t&\266y-\267"
 3470      12AE6315 
 3470      B16819B2 
 3470      6E20B574 
 3470      26B6792D 
 3471 0a51 7B2FB77C 		.ascii	"{/\267|-\270z)\267v$\266s \262q\034\262m\031\260i\025"
 3471      2DB87A29 
 3471      B77624B6 
 3471      7320B271 
 3471      1CB26D19 
ARM GAS  C:\Users\pbant\AppData\Local\Temp\ccAmOMRv.s 			page 142


 3472 0a68 AF6515AC 		.ascii	"\257e\025\254b\023\254_\020\253^\017\253^\017\253^\017"
 3472      6213AC5F 
 3472      10AB5E0F 
 3472      AB5E0FAB 
 3472      5E0F
 3473 0a7a AA5E0FA9 		.ascii	"\252^\017\251^\017\251^\017\252_\020\252`\020\252a\022"
 3473      5E0FA95E 
 3473      0FAA5F10 
 3473      AA6010AA 
 3473      6112
 3474 0a8c 9F510EA0 		.ascii	"\237Q\016\240R\017\241S\020\240U\021\242W\023\242X\024"
 3474      520FA153 
 3474      10A05511 
 3474      A25713A2 
 3474      5814
 3475 0a9e A45C18A5 		.ascii	"\244\\\030\245_\032\245`\032\247`\033\247`\034\247`"
 3475      5F1AA560 
 3475      1AA7601B 
 3475      A7601CA7 
 3475      60
 3476 0aaf 1DA8611E 		.ascii	"\035\250a\036\247a\035\246^\031\244Z\022\241U\014\236"
 3476      A7611DA6 
 3476      5E19A45A 
 3476      12A1550C 
 3476      9E
 3477 0ac0 4F099D4B 		.ascii	"O\011\235K\006\233I\004\245K\002p? \007\031G\013\017"
 3477      069B4904 
 3477      A54B0270 
 3477      3F200719 
 3477      470B0F
 3478 0ad3 34080D32 		.ascii	"4\010\0152\013\0165\017\0219\031\025@\032\031F\034\032"
 3478      0B0E350F 
 3478      11391915 
 3478      401A1946 
 3478      1C1A
 3479 0ae5 481F1E4C 		.ascii	"H\037\036L\035\033J\023\031G\015\034J\004\033O\006!"
 3479      1D1B4A13 
 3479      19470D1C 
 3479      4A041B4F 
 3479      0621
 3480 0af7 5C293859 		.ascii	"\\)8YrS<\252b\035\261b\022\250_\023\250[\022\245Z\020"
 3480      72533CAA 
 3480      621DB162 
 3480      12A85F13 
 3480      A85B12A5 
 3481 0b0d A65A0FA7 		.ascii	"\246Z\017\247Y\015\247X\014\246X\013\246X\013\246X\013"
 3481      590DA758 
 3481      0CA6580B 
 3481      A6580BA6 
 3481      580B
 3482 0b1f A7590BA6 		.ascii	"\247Y\013\246Z\013\247[\014\250]\016\252_\020\252a\020"
 3482      5A0BA75B 
 3482      0CA85D0E 
 3482      AA5F10AA 
 3482      6110
 3483 0b31 AB6111AC 		.ascii	"\253a\021\254c\022\254b\023\254a\024\255c\024\255d\024"
 3483      6312AC62 
ARM GAS  C:\Users\pbant\AppData\Local\Temp\ccAmOMRv.s 			page 143


 3483      13AC6114 
 3483      AD6314AD 
 3483      6414
 3484 0b43 AB6312AB 		.ascii	"\253c\022\253b\022\252`\021\251^\020\251^\020\251^\020"
 3484      6212AA60 
 3484      11A95E10 
 3484      A95E10A9 
 3484      5E10
 3485 0b55 A85D0FA8 		.ascii	"\250]\017\250]\017\251^\020\251_\020\252`\021\254a\023"
 3485      5D0FA95E 
 3485      10A95F10 
 3485      AA6011AC 
 3485      6113
 3486 0b67 AC6314AE 		.ascii	"\254c\024\256c\025\257g\031\260l\036\263p\"\266v(\266"
 3486      6315AF67 
 3486      19B06C1E 
 3486      B37022B6 
 3486      7628B6
 3487 0b7a 7A2EB77C 		.ascii	"z.\267|0\267{,\267x&\264u \263r\035\261n\032\260j\027"
 3487      30B77B2C 
 3487      B77826B4 
 3487      7520B372 
 3487      1DB16E1A 
 3488 0b91 AF6614AC 		.ascii	"\257f\024\254c\022\252`\021\253^\017\253^\017\253^\017"
 3488      6312AA60 
 3488      11AB5E0F 
 3488      AB5E0FAB 
 3488      5E0F
 3489 0ba3 AB5E0FA9 		.ascii	"\253^\017\251^\017\251_\020\254a\021\254b\022\255c\023"
 3489      5E0FA95F 
 3489      10AC6111 
 3489      AC6212AD 
 3489      6313
 3490 0bb5 AE64149F 		.ascii	"\256d\024\237Q\016\240R\017\241S\020\240U\021\242W\023"
 3490      510EA052 
 3490      0FA15310 
 3490      A05511A2 
 3490      5713
 3491 0bc7 A25914A6 		.ascii	"\242Y\024\246]\031\246_\033\247_\033\250`\035\250`\034"
 3491      5D19A65F 
 3491      1BA75F1B 
 3491      A8601DA8 
 3491      601C
 3492 0bd9 A9621CA9 		.ascii	"\251b\034\251b\037\247a\035\246^\030\244Z\022\241T\013"
 3492      621FA761 
 3492      1DA65E18 
 3492      A45A12A1 
 3492      540B
 3493 0beb 9D4E069D 		.ascii	"\235N\006\235I\005\235H\004\250L\001Q3,\002\023D\010"
 3493      49059D48 
 3493      04A84C01 
 3493      51332C02 
 3493      134408
 3494 0bfe 0D30070E 		.ascii	"\0150\007\0165\021\027E \"R1&Z>%^L*hJ4pJ.jG-g1!X!\036"
 3494      35111745 
 3494      20225231 
 3494      265A3E25 
ARM GAS  C:\Users\pbant\AppData\Local\Temp\ccAmOMRv.s 			page 144


 3494      5E4C2A68 
 3495 0c20 51111E55 		.ascii	"Q\021\036U\007\"]\016(b67O\207\\3\266g\025\256`\020"
 3495      07225D0E 
 3495      28623637 
 3495      4F875C33 
 3495      B66715AE 
 3496 0c36 A65E11A7 		.ascii	"\246^\021\247]\016\250Z\014\247X\014\247X\014\247X\013"
 3496      5D0EA85A 
 3496      0CA7580C 
 3496      A7580CA7 
 3496      580B
 3497 0c48 A6590AA7 		.ascii	"\246Y\012\247[\014\247\\\015\251^\017\252_\020\254a"
 3497      5B0CA75C 
 3497      0DA95E0F 
 3497      AA5F10AC 
 3497      61
 3498 0c59 12AC6313 		.ascii	"\022\254c\023\254c\023\256d\024\257e\025\256e\025\256"
 3498      AC6313AE 
 3498      6414AF65 
 3498      15AE6515 
 3498      AE
 3499 0c6a 6515AD63 		.ascii	"e\025\255c\024\254b\022\253b\022\252`\021\251^\017\251"
 3499      14AC6212 
 3499      AB6212AA 
 3499      6011A95E 
 3499      0FA9
 3500 0c7c 5E0FA95E 		.ascii	"^\017\251^\020\251]\020\251]\020\251_\020\252b\021\254"
 3500      10A95D10 
 3500      A95D10A9 
 3500      5F10AA62 
 3500      11AC
 3501 0c8e 6313AD64 		.ascii	"c\023\255d\024\257f\025\257h\030\257j\033\262n\"\266"
 3501      14AF6615 
 3501      AF6818AF 
 3501      6A1BB26E 
 3501      22B6
 3502 0ca0 7326B778 		.ascii	"s&\267x)\266z,\266{-\267z)\267v\"\264r\035\262o\032"
 3502      29B67A2C 
 3502      B67B2DB7 
 3502      7A29B776 
 3502      22B4721D 
 3503 0cb7 B06B16B0 		.ascii	"\260k\026\260g\026\255d\025\253b\022\252`\020\253^\017"
 3503      6716AD64 
 3503      15AB6212 
 3503      AA6010AB 
 3503      5E0F
 3504 0cc9 AB5E0FAB 		.ascii	"\253^\017\253^\017\251^\017\251^\017\251a\020\254d\023"
 3504      5E0FA95E 
 3504      0FA95E0F 
 3504      A96110AC 
 3504      6413
 3505 0cdb AE6515AF 		.ascii	"\256e\025\257g\026\261h\030\237Q\016\240R\017\241S\020"
 3505      6716B168 
 3505      189F510E 
 3505      A0520FA1 
 3505      5310
 3506 0ced A05511A1 		.ascii	"\240U\021\241W\023\243[\027\247_\033\247a\034\250a\035"
ARM GAS  C:\Users\pbant\AppData\Local\Temp\ccAmOMRv.s 			page 145


 3506      5713A35B 
 3506      17A75F1B 
 3506      A7611CA8 
 3506      611D
 3507 0cff A9631EAA 		.ascii	"\251c\036\252c\037\252c\037\252d\"\247a\037\247`\032"
 3507      631FAA63 
 3507      1FAA6422 
 3507      A7611FA7 
 3507      601A
 3508 0d11 A55B12A1 		.ascii	"\245[\022\241T\015\236O\010\236K\006\236I\005\251M\002"
 3508      540D9E4F 
 3508      089E4B06 
 3508      9E4905A9 
 3508      4D02
 3509 0d23 51312800 		.ascii	"Q1(\000\023E\011\024?\010\030G\022\037R=:tWK\214Y:}"
 3509      13450914 
 3509      3F081847 
 3509      121F523D 
 3509      3A74574B 
 3510 0d3b 62317470 		.ascii	"b1tp7zg7zi?~c<{a7rd6kC/d\021(c\0243p\036.aSHM\251e!"
 3510      377A6737 
 3510      7A693F7E 
 3510      633C7B61 
 3510      37726436 
 3511 0d62 B2630EA8 		.ascii	"\262c\016\250]\017\247[\016\247Z\014\246Y\014\246Z\014"
 3511      5D0FA75B 
 3511      0EA75A0C 
 3511      A6590CA6 
 3511      5A0C
 3512 0d74 A85B0CA9 		.ascii	"\250[\014\251]\015\251^\017\255b\023\255b\023\256d\024"
 3512      5D0DA95E 
 3512      0FAD6213 
 3512      AD6213AE 
 3512      6414
 3513 0d86 AF6616B0 		.ascii	"\257f\026\260f\026\260f\026\257f\026\257i\031\257h\030"
 3513      6616B066 
 3513      16AF6616 
 3513      AF6919AF 
 3513      6818
 3514 0d98 AF6617AE 		.ascii	"\257f\027\256e\025\255d\024\254b\023\253`\021\252_\021"
 3514      6515AD64 
 3514      14AC6213 
 3514      AB6011AA 
 3514      5F11
 3515 0daa AA6011AA 		.ascii	"\252`\021\252`\021\254`\023\254c\023\256e\025\257f\026"
 3515      6011AC60 
 3515      13AC6313 
 3515      AE6515AF 
 3515      6616
 3516 0dbc B06717B0 		.ascii	"\260g\027\260h\030\260l\033\261n\037\265s&\267v(\267"
 3516      6818B06C 
 3516      1BB16E1F 
 3516      B57326B7 
 3516      7628B7
 3517 0dcf 792BB77A 		.ascii	"y+\267z+\267z*\267w&\265s\037\262o\032\261l\027\256"
 3517      2BB77A2A 
 3517      B77726B5 
ARM GAS  C:\Users\pbant\AppData\Local\Temp\ccAmOMRv.s 			page 146


 3517      731FB26F 
 3517      1AB16C17 
 3518 0de4 6815AD64 		.ascii	"h\025\255d\023\253a\021\252a\021\252`\021\252^\020\252"
 3518      13AB6111 
 3518      AA6111AA 
 3518      6011AA5E 
 3518      10AA
 3519 0df6 5E0FAA5E 		.ascii	"^\017\252^\017\252_\017\253`\021\254c\023\257f\026\261"
 3519      0FAA5F0F 
 3519      AB6011AC 
 3519      6313AF66 
 3519      16B1
 3520 0e08 6818B169 		.ascii	"h\030\261i\031\260l\034\237Q\016\240R\017\241S\020\242"
 3520      19B06C1C 
 3520      9F510EA0 
 3520      520FA153 
 3520      10A2
 3521 0e1a 5612A15A 		.ascii	"V\022\241Z\026\244]\031\247a\035\247b\035\250d\036\251"
 3521      16A45D19 
 3521      A7611DA7 
 3521      621DA864 
 3521      1EA9
 3522 0e2c 6521AB67 		.ascii	"e!\253g$\252g&\252e(\251c\"\250a\033\245\\\023\242U"
 3522      24AA6726 
 3522      AA6528A9 
 3522      6322A861 
 3522      1BA55C13 
 3523 0e42 0DA05009 		.ascii	"\015\240P\011\241O\007\237N\007\250P\002k>\"\001\034"
 3523      A14F079F 
 3523      4E07A850 
 3523      026B3E22 
 3523      011C
 3524 0e54 530B2159 		.ascii	"S\013!Y\012\034Q\007\027H-;vMS\233IA\212N5{q9|`;\204"
 3524      0A1C5107 
 3524      17482D3B 
 3524      764D539B 
 3524      49418A4E 
 3525 0e70 873E837C 		.ascii	"\207>\203|?\205eC\201uN\206f:p\"\027M\020-m\0370l''"
 3525      3F856543 
 3525      81754E86 
 3525      663A7022 
 3525      174D102D 
 3526 0e8a 5F2F395F 		.ascii	"_/9_\205\\6\264d\015\252^\012\250\\\015\247\\\015\250"
 3526      855C36B4 
 3526      640DAA5E 
 3526      0AA85C0D 
 3526      A75C0DA8 
 3527 0e9e 5D0EA95E 		.ascii	"]\016\251^\017\253a\021\253b\022\255d\024\260f\026\260"
 3527      0FAB6111 
 3527      AB6212AD 
 3527      6414B066 
 3527      16B0
 3528 0eb0 6717AF67 		.ascii	"g\027\257g\030\257h\030\260h\030\260i\031\260k\033\260"
 3528      18AF6818 
 3528      B06818B0 
 3528      6919B06B 
 3528      1BB0
ARM GAS  C:\Users\pbant\AppData\Local\Temp\ccAmOMRv.s 			page 147


 3529 0ec2 6B1AB069 		.ascii	"k\032\260i\032\257i\031\257g\027\257d\025\255c\024\254"
 3529      1AAF6919 
 3529      AF6717AF 
 3529      6415AD63 
 3529      14AC
 3530 0ed4 6313AC63 		.ascii	"c\023\254c\023\255d\024\256e\025\257f\027\260g\030\261"
 3530      13AD6414 
 3530      AE6515AF 
 3530      6617B067 
 3530      18B1
 3531 0ee6 6919B16A 		.ascii	"i\031\261j\032\261j\032\261m\036\264r$\266v(\265x*\266"
 3531      1AB16A1A 
 3531      B16D1EB4 
 3531      7224B676 
 3531      28B5782A 
 3532 0efb 792BB679 		.ascii	"y+\266y*\267y'\265v!\264q\036\261m\030\261i\025\255"
 3532      2AB77927 
 3532      B57621B4 
 3532      711EB16D 
 3532      18B16915 
 3533 0f10 6515AC62 		.ascii	"e\025\254b\023\253`\021\253`\021\252_\020\251_\020\250"
 3533      13AB6011 
 3533      AB6011AA 
 3533      5F10A95F 
 3533      10A8
 3534 0f22 6010AA61 		.ascii	"`\020\252a\021\253b\022\255e\025\257g\027\261j\032\260"
 3534      11AB6212 
 3534      AD6515AF 
 3534      6717B16A 
 3534      1AB0
 3535 0f34 6B1BB06B 		.ascii	"k\033\260k\033\257n\035\241S\020\242T\021\243U\022\243"
 3535      1BAF6E1D 
 3535      A15310A2 
 3535      5411A355 
 3535      12A3
 3536 0f46 5915A45E 		.ascii	"Y\025\244^\031\247`\033\250a\035\247b\035\252e!\251"
 3536      19A7601B 
 3536      A8611DA7 
 3536      621DAA65 
 3536      21A9
 3537 0f58 6825AB6A 		.ascii	"h%\253j*\252j-\252h,\253e$\251a\034\247]\025\244W\017"
 3537      2AAA6A2D 
 3537      AA682CAB 
 3537      6524A961 
 3537      1CA75D15 
 3538 0f6f A05409A1 		.ascii	"\240T\011\241T\011\240T\010\244S\004\222Q\030\022.a"
 3538      5409A054 
 3538      08A45304 
 3538      92511812 
 3538      2E61
 3539 0f81 051C560A 		.ascii	"\005\034V\012\030D\025\035L0-lL3{q8\202\207;\203\232"
 3539      1844151D 
 3539      4C302D6C 
 3539      4C337B71 
 3539      3882873B 
 3540 0f97 3F869347 		.ascii	"?\206\223G\224\246C\212\267"
 3540      94A6438A 
ARM GAS  C:\Users\pbant\AppData\Local\Temp\ccAmOMRv.s 			page 148


 3540      B7
 3541 0fa0 4D8C9549 		.ascii	"M\214\225I\212{D\205{8rl*bE$^\033#a$2l97k 0hZLL\250"
 3541      8A7B4485 
 3541      7B38726C 
 3541      2A624524 
 3541      5E1B2361 
 3542 0fc1 6415B05F 		.ascii	"d\025\260_\012\250_\017\253`\020\253b\022\255c\024\256"
 3542      0AA85F0F 
 3542      AB6010AB 
 3542      6212AD63 
 3542      14AE
 3543 0fd3 6414AF66 		.ascii	"d\024\257f\026\260h\030\262k\033\257k\032\257l\033\260"
 3543      16B06818 
 3543      B26B1BAF 
 3543      6B1AAF6C 
 3543      1BB0
 3544 0fe5 6C1CAF6C 		.ascii	"l\034\257l\034\256m\034\260m\034\260l\034\260l\033\260"
 3544      1CAE6D1C 
 3544      B06D1CB0 
 3544      6C1CB06C 
 3544      1BB0
 3545 0ff7 6B1BB169 		.ascii	"k\033\261i\031\257h\030\257g\026\257f\026\256f\026\257"
 3545      19AF6818 
 3545      AF6716AF 
 3545      6616AE66 
 3545      16AF
 3546 1009 6717B068 		.ascii	"g\027\260h\031\261j\033\261l\035\260m\035\260l\036\262"
 3546      19B16A1B 
 3546      B16C1DB0 
 3546      6D1DB06C 
 3546      1EB2
 3547 101b 6F22B574 		.ascii	"o\"\265t'\266w)\266x+\266x*\266w&\267v#\264s\036\263"
 3547      27B67729 
 3547      B6782BB6 
 3547      782AB677 
 3547      26B77623 
 3548 1033 6F1BB26A 		.ascii	"o\033\262j\027\257f\023\254c\022\254a\021\252_\020\252"
 3548      17AF6613 
 3548      AC6312AC 
 3548      6111AA5F 
 3548      10AA
 3549 1045 5F10AA5F 		.ascii	"_\020\252_\020\252`\020\252b\022\254c\023\256d\025\261"
 3549      10AA6010 
 3549      AA6212AC 
 3549      6313AE64 
 3549      15B1
 3550 1057 6918B06B 		.ascii	"i\030\260k\032\261m\035\260n\034\261n\035\262p\037\242"
 3550      1AB16D1D 
 3550      B06E1CB1 
 3550      6E1DB270 
 3550      1FA2
 3551 1069 5411A355 		.ascii	"T\021\243U\022\245W\024\245Z\026\245^\032\247a\035\251"
 3551      12A55714 
 3551      A55A16A5 
 3551      5E1AA761 
 3551      1DA9
 3552 107b 631EA964 		.ascii	"c\036\251d\037\254f!\252i&\252m,\254m0\254j-\255h$\252"
ARM GAS  C:\Users\pbant\AppData\Local\Temp\ccAmOMRv.s 			page 149


 3552      1FAC6621 
 3552      AA6926AA 
 3552      6D2CAC6D 
 3552      30AC6A2D 
 3553 1093 641CA860 		.ascii	"d\034\250`\027\247]\020\244Z\014\243Y\013\243W\012\243"
 3553      17A75D10 
 3553      A45A0CA3 
 3553      590BA357 
 3553      0AA3
 3554 10a5 5607A75A 		.ascii	"V\007\247Z\0128/;\002\026J\014\030>$\034HR#^f/q\204"
 3554      0A382F3B 
 3554      02164A0C 
 3554      183E241C 
 3554      4852235E 
 3555 10bd 34769F3A 		.ascii	"4v\237:u\244C\202\266K\210\316Y\203\335j\204\311l\212"
 3555      75A44382 
 3555      B64B88CE 
 3555      5983DD6A 
 3555      84C96C8A 
 3556 10d1 B25C90C3 		.ascii	"\262\\\220\303Y\212\274Mx\2143i}8lV4q-4qF@o(.q2@i\227"
 3556      598ABC4D 
 3556      788C3369 
 3556      7D386C56 
 3556      34712D34 
 3557 10f0 602AB464 		.ascii	"`*\264d\012\255d\025\257f\025\257f\026\257g\027\260"
 3557      0AAD6415 
 3557      AF6615AF 
 3557      6616AF67 
 3557      17B0
 3558 1102 6919B06B 		.ascii	"i\031\260k\033\262n\035\260n\035\261o\036\261o\036\261"
 3558      1BB26E1D 
 3558      B06E1DB1 
 3558      6F1EB16F 
 3558      1EB1
 3559 1114 6F1EB06E 		.ascii	"o\036\260n\035\260n\035\260o\036\261o\037\261n\035\261"
 3559      1DB06E1D 
 3559      B06F1EB1 
 3559      6F1FB16E 
 3559      1DB1
 3560 1126 6E1DB06B 		.ascii	"n\035\260k\033\261j\032\261i\031\260i\031\261i\031\260"
 3560      1BB16A1A 
 3560      B16919B0 
 3560      6919B169 
 3560      19B0
 3561 1138 6B1AB16C 		.ascii	"k\032\261l\034\261n\036\261o \262o!\264p#\266t&\270"
 3561      1CB16E1E 
 3561      B16F20B2 
 3561      6F21B470 
 3561      23B67426 
 3562 114d 7628B677 		.ascii	"v(\266w*\266v'\265t#\264r!\262n\033\261j\027\260f\024"
 3562      2AB67627 
 3562      B57423B4 
 3562      7221B26E 
 3562      1BB16A17 
 3563 1164 AD6311AB 		.ascii	"\255c\021\253a\017\253a\020\252_\021\252_\021\252_\020"
 3563      610FAB61 
 3563      10AA5F11 
ARM GAS  C:\Users\pbant\AppData\Local\Temp\ccAmOMRv.s 			page 150


 3563      AA5F11AA 
 3563      5F10
 3564 1176 AB6011AE 		.ascii	"\253`\021\256d\025\257f\026\260g\030\263k\033\262m\034"
 3564      6415AF66 
 3564      16B06718 
 3564      B36B1BB2 
 3564      6D1C
 3565 1188 B26F20B1 		.ascii	"\262o \261p\036\263p\037\265q#\243U\022\245V\023\246"
 3565      701EB370 
 3565      1FB57123 
 3565      A35512A5 
 3565      5613A6
 3566 119b 5814A65B 		.ascii	"X\024\246[\027\245^\032\247`\034\251b\036\252e \254"
 3566      17A55E1A 
 3566      A7601CA9 
 3566      621EAA65 
 3566      20AC
 3567 11ad 6722AB6A 		.ascii	"g\"\253j'\254n-\255o/\256l,\255j#\253f\034\251c\027"
 3567      27AC6E2D 
 3567      AD6F2FAE 
 3567      6C2CAD6A 
 3567      23AB661C 
 3568 11c4 A96012A8 		.ascii	"\251`\022\250_\017\246]\015\245Z\013\245X\013\255\\"
 3568      5F0FA65D 
 3568      0DA55A0B 
 3568      A5580BAD 
 3568      5C
 3569 11d5 0769401F 		.ascii	"\007i@\037\002\016:\012\0228\032\031CP S|0c\223@t\264"
 3569      020E3A0A 
 3569      12381A19 
 3569      43502053 
 3569      7C306393 
 3570 11ec 517BB255 		.ascii	"Q{\262U~\271_\200\316t\207\315s\206\316u\205\325s\220"
 3570      7EB95F80 
 3570      CE7487CD 
 3570      7386CE75 
 3570      85D57390 
 3571 1200 D87C91DD 		.ascii	"\330|\221\335~\222\342t\212\311_~\265Sy\217>pL4pGHy"
 3571      7E92E274 
 3571      8AC95F7E 
 3571      B553798F 
 3571      3E704C34 
 3572 1218 2F3F7E1F 		.ascii	"/?~\037:s\210b=\274j\014\257h\026\260j\031\260k\032"
 3572      3A738862 
 3572      3DBC6A0C 
 3572      AF6816B0 
 3572      6A19B06B 
 3573 122d B16C1CB1 		.ascii	"\261l\034\261o\035\262o\036\262p \263q!\263q \262q\037"
 3573      6F1DB26F 
 3573      1EB27020 
 3573      B37121B3 
 3573      7120B271 
 3574 1242 B2711FB3 		.ascii	"\262q\037\263q\037\264q \264r!\261r\037\261p\037\260"
 3574      711FB471 
 3574      20B47221 
 3574      B1721FB1 
 3574      701FB0
ARM GAS  C:\Users\pbant\AppData\Local\Temp\ccAmOMRv.s 			page 151


 3575 1255 6E1FB16E 		.ascii	"n\037\261n\036\262l\035\261k\033\263l\033\262m\035\261"
 3575      1EB26C1D 
 3575      B16B1BB3 
 3575      6C1BB26D 
 3575      1DB1
 3576 1267 6E1EB370 		.ascii	"n\036\263p!\264r#\264p\"\265q#\266s&\267u(\265v(\265"
 3576      21B47223 
 3576      B47022B5 
 3576      7123B673 
 3576      26B77528 
 3577 127f 7426B472 		.ascii	"t&\264r\"\261n\035\260j\030\257f\025\256d\022\255c\021"
 3577      22B16E1D 
 3577      B06A18AF 
 3577      6615AE64 
 3577      12AD6311 
 3578 1293 AB610EAB 		.ascii	"\253a\016\253a\016\253`\020\254a\022\254c\023\255e\025"
 3578      610EAB60 
 3578      10AC6112 
 3578      AC6313AD 
 3578      6515
 3579 12a5 B06817B1 		.ascii	"\260h\027\261i\031\257k\031\262m\034\263n \265p#\264"
 3579      6919AF6B 
 3579      19B26D1C 
 3579      B36E20B5 
 3579      7023B4
 3580 12b8 7223B573 		.ascii	"r#\265s$\265t$\244V\023\245X\024\250Z\025\247\\\026"
 3580      24B57424 
 3580      A45613A5 
 3580      5814A85A 
 3580      15A75C16 
 3581 12cc A55F18A7 		.ascii	"\245_\030\247b\033\252d\037\252e \255h#\255l'\255n-"
 3581      621BAA64 
 3581      1FAA6520 
 3581      AD6823AD 
 3581      6C27AD6E 
 3582 12e1 AD6F2CAE 		.ascii	"\255o,\256l(\255j!\254g\032\253c\025\252`\022\250_\017"
 3582      6C28AD6A 
 3582      21AC671A 
 3582      AB6315AA 
 3582      6012A85F 
 3583 12f6 A55D0DA4 		.ascii	"\245]\015\244[\012\246Z\011\251Z\011\244Z\012*!.\000"
 3583      5B0AA65A 
 3583      09A95A09 
 3583      A45A0A2A 
 3583      212E00
 3584 1309 0C3E151B 		.ascii	"\014>\025\033KA([l4h\207Ft\247W\202\267_\202\301i\214"
 3584      4B41285B 
 3584      6C346887 
 3584      4674A757 
 3584      82B75F82 
 3585 1320 C56F96C3 		.ascii	"\305o\226\303s\227\304u\227\302t\233\326\214\217\351"
 3585      7397C475 
 3585      97C2749B 
 3585      D68C8FE9 
 3586 1330 9589F694 		.ascii	"\225\211\366\224\207\357\216\204\343\200\205\322l\201"
 3586      87EF8E84 
 3586      E38085D2 
ARM GAS  C:\Users\pbant\AppData\Local\Temp\ccAmOMRv.s 			page 152


 3586      6C81
 3587 133e BF5B7A87 		.ascii	"\277[z\207S\202OM\213B;y&;\177ydP\271n\023\261l\030"
 3587      53824F4D 
 3587      8B423B79 
 3587      263B7F79 
 3587      6450B96E 
 3588 1356 B06E1CB2 		.ascii	"\260n\034\262o \262r\"\263s%\263u'\264v*\263v(\263u"
 3588      6F20B272 
 3588      22B37325 
 3588      B37527B4 
 3588      762AB376 
 3589 136d 27B37526 		.ascii	"'\263u&\263u&\264t&\265s$\265s#\265s#\264p\"\264p!\263"
 3589      B37526B4 
 3589      7426B573 
 3589      24B57323 
 3589      B57323B4 
 3590 1387 6F20B26F 		.ascii	"o \262o \262n\037\264p!\264p\"\264t$\264u%\265t%\266"
 3590      20B26E1F 
 3590      B47021B4 
 3590      7022B474 
 3590      24B47525 
 3591 139f 7426B675 		.ascii	"t&\266u(\266v(\264u%\264r#\263p!\260m\033\257i\026\257"
 3591      28B67628 
 3591      B47525B4 
 3591      7223B370 
 3591      21B06D1B 
 3592 13b7 6514AD63 		.ascii	"e\024\255c\022\255b\021\255a\016\255a\016\254a\017\255"
 3592      12AD6211 
 3592      AD610EAD 
 3592      610EAC61 
 3592      0FAD
 3593 13c9 6211AF66 		.ascii	"b\021\257f\026\257j\031\260l\030\261l\035\260m\035\263"
 3593      16AF6A19 
 3593      B06C18B1 
 3593      6C1DB06D 
 3593      1DB3
 3594 13db 711FB272 		.ascii	"q\037\262r!\265t%\267t%\267v'\265v&\244V\023\245X\024"
 3594      21B57425 
 3594      B77425B7 
 3594      7627B576 
 3594      26A45613 
 3595 13f2 A75B16A6 		.ascii	"\247[\026\246]\027\246`\031\251e\033\253g\035\254g!"
 3595      5D17A660 
 3595      19A9651B 
 3595      AB671DAC 
 3595      6721
 3596 1404 AE6A24AE 		.ascii	"\256j$\256m'\256n*\256n(\257l#\255h\034\254e\026\254"
 3596      6D27AE6E 
 3596      2AAE6E28 
 3596      AF6C23AD 
 3596      681CAC65 
 3597 141a 6212A95E 		.ascii	"b\022\251^\017\246]\015\245[\013\246[\012\246Z\011\246"
 3597      0FA65D0D 
 3597      A55B0BA6 
 3597      5B0AA65A 
 3597      09A6
 3598 142c 590AB05B 		.ascii	"Y\012\260[\006\203H\027\010\023A\011\030H%#Sp4h\230"
ARM GAS  C:\Users\pbant\AppData\Local\Temp\ccAmOMRv.s 			page 153


 3598      06834817 
 3598      08134109 
 3598      18482523 
 3598      53703468 
 3599 1441 45719249 		.ascii	"Eq\222I{\231P\201\237O\177\255Y\215\266h\231\272m\240"
 3599      7B995081 
 3599      9F4F7FAD 
 3599      598DB668 
 3599      99BA6DA0 
 3600 1455 C572A2CC 		.ascii	"\305r\242\314\202\247\334\231\242\351\235\216\360\242"
 3600      82A7DC99 
 3600      A2E99D8E 
 3600      F0A2
 3601 1463 92F5A18C 		.ascii	"\222\365\241\214\363\236\207\360\227\204\363\225\212"
 3601      F39E87F0 
 3601      9784F395 
 3601      8A
 3602 1470 C97D877A 		.ascii	"\311}\207zT\204iT\213%=\211i^Z\275t\031\263q\036\264"
 3602      54846954 
 3602      8B253D89 
 3602      695E5ABD 
 3602      7419B371 
 3603 1486 7426B276 		.ascii	"t&\262v+\263y/\263z/\265{2\267}5\266|4\266{0\264z/\263"
 3603      2BB3792F 
 3603      B37A2FB5 
 3603      7B32B77D 
 3603      35B67C34 
 3604 14a1 782EB576 		.ascii	"x.\265v*\266u'\266s%\265r#\263q\"\263r#\263q\"\263p"
 3604      2AB67527 
 3604      B67325B5 
 3604      7223B371 
 3604      22B37223 
 3605 14ba 22B47324 		.ascii	"\"\264s$\265v'\265x*\265x*\265x*\266w(\266x(\266x)\264"
 3605      B57627B5 
 3605      782AB578 
 3605      2AB5782A 
 3605      B67728B6 
 3606 14d4 7626B472 		.ascii	"v&\264r$\261o \261m\033\257k\027\257h\024\255d\021\253"
 3606      24B16F20 
 3606      B16D1BAF 
 3606      6B17AF68 
 3606      14AD6411 
 3607 14e9 620FAC61 		.ascii	"b\017\254a\016\255a\016\254b\017\255d\022\257f\026\260"
 3607      0EAD610E 
 3607      AC620FAD 
 3607      6412AF66 
 3607      16B0
 3608 14fb 6B1AB06E 		.ascii	"k\032\260n\033\261o\037\263p \265s$\264v'\265w(\265"
 3608      1BB16F1F 
 3608      B37020B5 
 3608      7324B476 
 3608      27B57728 
 3609 1510 7729B678 		.ascii	"w)\266x)\266w'\245W\024\245Y\025\243]\027\244_\030\247"
 3609      29B67727 
 3609      A55714A5 
 3609      5915A35D 
 3609      17A45F18 
ARM GAS  C:\Users\pbant\AppData\Local\Temp\ccAmOMRv.s 			page 154


 3610 1525 6119AA66 		.ascii	"a\031\252f\033\254i\035\254h \256l\"\256m$\257m$\257"
 3610      1BAC691D 
 3610      AC6820AE 
 3610      6C22AE6D 
 3610      24AF6D24 
 3611 153a 6D24AE6A 		.ascii	"m$\256j\036\254g\027\253c\023\252_\020\247\\\015\250"
 3611      1EAC6717 
 3611      AB6313AA 
 3611      5F10A75C 
 3611      0DA8
 3612 154c 5B0CA75A 		.ascii	"[\014\247Z\013\247Z\013\246Z\013\246Y\012\246W\007\256"
 3612      0BA75A0B 
 3612      A65A0BA6 
 3612      590AA657 
 3612      07AE
 3613 155e 59036A40 		.ascii	"Y\003j@#\006\033Q\013\034QE(W{2g\2316m\254F\201\265"
 3613      23061B51 
 3613      0B1C5145 
 3613      28577B32 
 3613      6799366D 
 3614 1576 4C80B84F 		.ascii	"L\200\270O~\276U\206\270]\223\277a\222\310w\251\324"
 3614      7EBE5586 
 3614      B85D93BF 
 3614      6192C877 
 3614      A9D4
 3615 1588 88AEE599 		.ascii	"\210\256\345\231\240\352\247\241\354\256\240\367\265"
 3615      A0EAA7A1 
 3615      ECAEA0F7 
 3615      B5
 3616 1595 90FAB68B 		.ascii	"\220\372\266\213\371\260\211\376\264\210\351\233\204"
 3616      F9B089FE 
 3616      B488E99B 
 3616      84
 3617 15a2 93648970 		.ascii	"\223d\211pY\214\0369\214^[`\273x\"\267v'\265y0\267}"
 3617      598C1E39 
 3617      8C5E5B60 
 3617      BB7822B7 
 3617      7627B579 
 3618 15b9 36B97E38 		.ascii	"6\271~8\272\177:\273\201=\273\201>\271\200;\270~6\267"
 3618      BA7F3ABB 
 3618      813DBB81 
 3618      3EB9803B 
 3618      B87E36B7 
 3619 15cd 7C34B679 		.ascii	"|4\266y0\265v(\265r#\263r#\263q\"\263q\"\264r#\266s"
 3619      30B57628 
 3619      B57223B3 
 3619      7223B371 
 3619      22B37122 
 3620 15e6 24B67528 		.ascii	"$\266u(\265y.\267|4\270|6\267{4\266z0\267z+\267y+\265"
 3620      B5792EB7 
 3620      7C34B87C 
 3620      36B77B34 
 3620      B67A30B7 
 3621 1600 7628B573 		.ascii	"v(\265s%\263p!\261m\032\257h\025\257f\020\254c\017\253"
 3621      25B37021 
 3621      B16D1AAF 
 3621      6815AF66 
ARM GAS  C:\Users\pbant\AppData\Local\Temp\ccAmOMRv.s 			page 155


 3621      10AC630F 
 3622 1615 620EAD61 		.ascii	"b\016\255a\016\255a\016\253c\020\257f\025\257g\030\257"
 3622      0EAD610E 
 3622      AB6310AF 
 3622      6615AF67 
 3622      18AF
 3623 1627 6B1BB270 		.ascii	"k\033\262p\035\262q!\265r$\266w*\265y.\267z3\266{3\266"
 3623      1DB27121 
 3623      B57224B6 
 3623      772AB579 
 3623      2EB77A33 
 3624 163f 7C31B67C 		.ascii	"|1\266|.\245Y\025\242[\024\244_\027\247c\030\251f\032"
 3624      2EA55915 
 3624      A25B14A4 
 3624      5F17A763 
 3624      18A9661A 
 3625 1653 AB671CAD 		.ascii	"\253g\034\255i\036\254i\036\256j \256l!\256l\037\256"
 3625      691EAC69 
 3625      1EAE6A20 
 3625      AE6C21AE 
 3625      6C1FAE
 3626 1666 6A1EAD67 		.ascii	"j\036\255g\031\256e\023\253a\016\247^\015\246Z\013\251"
 3626      19AE6513 
 3626      AB610EA7 
 3626      5E0DA65A 
 3626      0BA9
 3627 1678 5A0BA859 		.ascii	"Z\013\250Y\012\247Y\012\246Y\012\247Y\012\246W\010\246"
 3627      0AA7590A 
 3627      A6590AA7 
 3627      590AA657 
 3627      08A6
 3628 168a 5606AE58 		.ascii	"V\006\256X\002lF-\007\034N\032\027I~-a\316Yr\325p\200"
 3628      026C462D 
 3628      071C4E1A 
 3628      17497E2D 
 3628      61CE5972 
 3629 16a1 D37487D1 		.ascii	"\323t\207\321y\220\321\200\240\322|\241\315q\225\327"
 3629      7990D180 
 3629      A0D27CA1 
 3629      CD7195D7 
 3630 16b1 7FA5D978 		.ascii	"\177\245\331x\236\332|\234\336\216\243\352\246\256\365"
 3630      9EDA7C9C 
 3630      DE8EA3EA 
 3630      A6AEF5
 3631 16c0 B3A3F2B6 		.ascii	"\263\243\362\266\214\367\264\211\373\274\207\375\301"
 3631      8CF7B489 
 3631      FBBC87FD 
 3631      C1
 3632 16cd 85F2B780 		.ascii	"\205\362\267\200\234x\212\206~\236\0318\207YYa\276|"
 3632      9C788A86 
 3632      7E9E1938 
 3632      87595961 
 3632      BE7C
 3633 16df 2AB87B30 		.ascii	"*\270{0\270}7\272\177:\273\200;\274\203@\275\203B\274"
 3633      B87D37BA 
 3633      7F3ABB80 
 3633      3BBC8340 
ARM GAS  C:\Users\pbant\AppData\Local\Temp\ccAmOMRv.s 			page 156


 3633      BD8342BC 
 3634 16f3 8343BB82 		.ascii	"\203C\273\202>\272\2009\270{2\267x+\267u&\264r#\263"
 3634      3EBA8039 
 3634      B87B32B7 
 3634      782BB775 
 3634      26B47223 
 3635 1708 7122B371 		.ascii	"q\"\263q\"\264s#\267w'\267z-\267|4\271\1779\272\177"
 3635      22B47323 
 3635      B77727B7 
 3635      7A2DB77C 
 3635      34B97F39 
 3636 171e 3AB97F3A 		.ascii	":\271\177:\270}7\271|3\271z-\266v(\264r$\263n\035\263"
 3636      B87D37B9 
 3636      7C33B97A 
 3636      2DB67628 
 3636      B47224B3 
 3637 1735 6B18B067 		.ascii	"k\030\260g\024\256d\020\254a\016\253b\016\254`\015\255"
 3637      14AE6410 
 3637      AC610EAB 
 3637      620EAC60 
 3637      0DAD
 3638 1747 610EAC64 		.ascii	"a\016\254d\017\260g\025\261i\030\261l\033\263p\037\265"
 3638      0FB06715 
 3638      B16918B1 
 3638      6C1BB370 
 3638      1FB5
 3639 1759 7324B576 		.ascii	"s$\265v)\266y/\270{4\272~;\273\200<\273\201<\271\202"
 3639      29B6792F 
 3639      B87B34BA 
 3639      7E3BBB80 
 3639      3CBB813C 
 3640 176f 3B       		.ascii	";"
 3641 1770 A35A16A2 		.ascii	"\243Z\026\242]\024\246a\027\251e\032\252f\033\253g\034"
 3641      5D14A661 
 3641      17A9651A 
 3641      AA661BAB 
 3641      671C
 3642 1782 AC681DAD 		.ascii	"\254h\035\255i\035\255i\036\255j\036\255k\033\255i\027"
 3642      691DAD69 
 3642      1EAD6A1E 
 3642      AD6B1BAD 
 3642      6917
 3643 1794 AD6515AC 		.ascii	"\255e\025\254b\020\252^\014\247\\\011\247Y\012\250X"
 3643      6210AA5E 
 3643      0CA75C09 
 3643      A7590AA8 
 3643      58
 3644 17a5 0AA8580A 		.ascii	"\012\250X\012\247X\011\247X\011\247X\011\247X\011\246"
 3644      A75809A7 
 3644      5809A758 
 3644      09A75809 
 3644      A6
 3645 17b6 5608A757 		.ascii	"V\010\247W\005\253Z\010\" 8'\027G\314bS\342~Z\323xi"
 3645      05AB5A08 
 3645      22203827 
 3645      1747CC62 
 3645      53E27E5A 
ARM GAS  C:\Users\pbant\AppData\Local\Temp\ccAmOMRv.s 			page 157


 3646 17cd D57875D9 		.ascii	"\325xu\331~y\334\206\215\332\207\232\327\206\236\332"
 3646      7E79DC86 
 3646      8DDA879A 
 3646      D7869EDA 
 3647 17dd 89A6D37F 		.ascii	"\211\246\323\177\237\325y\221\313l\221\331\202\243\346"
 3647      9FD57991 
 3647      CB6C91D9 
 3647      82A3E6
 3648 17ec 93A1F2AB 		.ascii	"\223\241\362\253\220\366\267\214\361\270\210\365\300"
 3648      90F6B78C 
 3648      F1B888F5 
 3648      C0
 3649 17f9 87FDC782 		.ascii	"\207\375\307\202\355\310|\250\212\215\217\206\236\025"
 3649      EDC87CA8 
 3649      8A8D8F86 
 3649      9E15
 3650 1807 327F6D61 		.ascii	"2\177maX\302\177+\270|4\271~7\273\200;\273\203>\274"
 3650      58C27F2B 
 3650      B87C34B9 
 3650      7E37BB80 
 3650      3BBB833E 
 3651 181c 8343BB83 		.ascii	"\203C\273\203C\272\202@\272\2009\270}3\270z-\267v'\266"
 3651      43BA8240 
 3651      BA8039B8 
 3651      7D33B87A 
 3651      2DB77627 
 3652 1831 7223B370 		.ascii	"r#\263p!\263q\"\266s#\267w(\267{1\271}7\273\1779\273"
 3652      21B37122 
 3652      B67323B7 
 3652      7728B77B 
 3652      31B97D37 
 3653 1849 803AB97F 		.ascii	"\200:\271\1779\267|5\270z/\270x)\264r#\261n\035\261"
 3653      39B77C35 
 3653      B87A2FB8 
 3653      7829B472 
 3653      23B16E1D 
 3654 185e 6A17B066 		.ascii	"j\027\260f\024\255c\017\255`\015\255_\014\254_\014\253"
 3654      14AD630F 
 3654      AD600DAD 
 3654      5F0CAC5F 
 3654      0CAB
 3655 1870 5F0CAC61 		.ascii	"_\014\254a\015\255c\016\260f\024\261j\027\261m\033\262"
 3655      0DAD630E 
 3655      B06614B1 
 3655      6A17B16D 
 3655      1BB2
 3656 1882 6F20B673 		.ascii	"o \266s%\267y,\267{3\271}7\273\202=\275\205D\275\205"
 3656      25B7792C 
 3656      B77B33B9 
 3656      7D37BB82 
 3656      3DBD8544 
 3657 1898 47BB8546 		.ascii	"G\273\205F\242\\\027\244_\027\250c\032\253g\034\252"
 3657      A25C17A4 
 3657      5F17A863 
 3657      1AAB671C 
 3657      AA
 3658 18a9 661BAB67 		.ascii	"f\033\253g\034\253h\035\253h\032\254h\032\254i\031\255"
ARM GAS  C:\Users\pbant\AppData\Local\Temp\ccAmOMRv.s 			page 158


 3658      1CAB681D 
 3658      AB681AAC 
 3658      681AAC69 
 3658      19AD
 3659 18bb 6918AC66 		.ascii	"i\030\254f\024\254b\021\252_\015\252\\\012\250Y\010"
 3659      14AC6211 
 3659      AA5F0DAA 
 3659      5C0AA859 
 3659      08
 3660 18cc A75708A6 		.ascii	"\247W\010\246W\010\247X\010\247X\010\247X\011\247X\011"
 3660      5708A758 
 3660      08A75808 
 3660      A75809A7 
 3660      5809
 3661 18de A75809A7 		.ascii	"\247X\011\247X\010\247X\006\256]\005A,)\015\020=z2E"
 3661      5808A758 
 3661      06AE5D05 
 3661      412C290D 
 3661      103D7A32 
 3662 18f3 C84B50DD 		.ascii	"\310KP\335XZ\337cf\340fi\343st\345\177\203\360\215\215"
 3662      585ADF63 
 3662      66E06669 
 3662      E37374E5 
 3662      7F83F08D 
 3663 1908 E88E94E7 		.ascii	"\350\216\224\347\217\243\352\223\225\335\205\221\327"
 3663      8FA3EA93 
 3663      95DD8591 
 3663      D7
 3664 1915 829FD579 		.ascii	"\202\237\325y\225\330\177\214\350\233\211\364\265}\372"
 3664      95D87F8C 
 3664      E89B89F4 
 3664      B57DFA
 3665 1924 C185EFB9 		.ascii	"\301\205\357\271\211\371\324}\353\311v\253\214\225\204"
 3665      89F9D47D 
 3665      EBC976AB 
 3665      8C9584
 3666 1933 7EA91F37 		.ascii	"~\251\0377}\204iK\302\177/\271}8\272\177:\272\200>\273"
 3666      7D84694B 
 3666      C27F2FB9 
 3666      7D38BA7F 
 3666      3ABA803E 
 3667 1948 8240BB82 		.ascii	"\202@\273\202?\272\200<\270}7\267{1\265w+\265t&\264"
 3667      3FBA803C 
 3667      B87D37B7 
 3667      7B31B577 
 3667      2BB57426 
 3668 195d 7122B270 		.ascii	"q\"\262p!\263q\"\265s%\267x,\267|3\271}7\272\1779\270"
 3668      21B37122 
 3668      B57325B7 
 3668      782CB77C 
 3668      33B97D37 
 3669 1975 7E39B87D 		.ascii	"~9\270}5\267y/\266v'\263p\"\260m\034\260i\026\254c\020"
 3669      35B7792F 
 3669      B67627B3 
 3669      7022B06D 
 3669      1CB06916 
 3670 198c AA600DAA 		.ascii	"\252`\015\252\\\012\252[\011\252Z\011\252[\011\252]"
ARM GAS  C:\Users\pbant\AppData\Local\Temp\ccAmOMRv.s 			page 159


 3670      5C0AAA5B 
 3670      09AA5A09 
 3670      AA5B09AA 
 3670      5D
 3671 199d 0AAC600C 		.ascii	"\012\254`\014\254c\016\260f\024\262j\031\262m\034\263"
 3671      AC630EB0 
 3671      6614B26A 
 3671      19B26D1C 
 3671      B3
 3672 19ae 7020B774 		.ascii	"p \267t&\267y-\270|6\273\201>\276\207G\277\211L\300"
 3672      26B7792D 
 3672      B87C36BB 
 3672      813EBE87 
 3672      47BF894C 
 3673 19c3 8A4EBF89 		.ascii	"\212N\277\211M\244_\026\247b\031\253f\035\254h\035\254"
 3673      4DA45F16 
 3673      A76219AB 
 3673      661DAC68 
 3673      1DAC
 3674 19d5 681DAA66 		.ascii	"h\035\252f\033\252f\033\252g\031\254g\031\254g\027\256"
 3674      1BAA661B 
 3674      AA6719AC 
 3674      6719AC67 
 3674      17AE
 3675 19e7 6616AB63 		.ascii	"f\026\253c\021\253`\016\251]\013\251Y\011\247W\006\246"
 3675      11AB600E 
 3675      A95D0BA9 
 3675      5909A757 
 3675      06A6
 3676 19f9 5706A657 		.ascii	"W\006\246W\006\247X\006\247X\006\250Y\011\250Y\012\250"
 3676      06A75806 
 3676      A75806A8 
 3676      5909A859 
 3676      0AA8
 3677 1a0b 5909A759 		.ascii	"Y\011\247Y\007\247X\007\262]\004g>\036\000\015>G\026"
 3677      07A75807 
 3677      B25D0467 
 3677      3E1E000D 
 3677      3E4716
 3678 1a1e 47BD3B58 		.ascii	"G\275;X\343Z[\361ic\363xk\362\201n\356\207x\360\217"
 3678      E35A5BF1 
 3678      6963F378 
 3678      6BF2816E 
 3678      EE8778F0 
 3679 1a33 87E9908C 		.ascii	"\207\351\220\214\354\226\214\366\244\211\366\242\212"
 3679      EC968CF6 
 3679      A489F6A2 
 3679      8A
 3680 1a40 F09B8CEC 		.ascii	"\360\233\214\354\226\214\344\224\203\335\211\203\347"
 3680      968CE494 
 3680      83DD8983 
 3680      E7
 3681 1a4d 9475F6AF 		.ascii	"\224u\366\257u\363\270\177\356\276\204\367\323\200\350"
 3681      75F3B87F 
 3681      EEBE84F7 
 3681      D380E8
 3682 1a5c C5749F93 		.ascii	"\305t\237\223\235\204y\256.N\215\237t@\277~0\272~9\273"
ARM GAS  C:\Users\pbant\AppData\Local\Temp\ccAmOMRv.s 			page 160


 3682      9D8479AE 
 3682      2E4E8D9F 
 3682      7440BF7E 
 3682      30BA7E39 
 3683 1a71 7F3BBB80 		.ascii	"\177;\273\200;\272\2009\272~7\270{4\267y-\266v(\265"
 3683      3BBA8039 
 3683      BA7E37B8 
 3683      7B34B779 
 3683      2DB67628 
 3684 1a86 7325B371 		.ascii	"s%\263q\"\263q\"\265s$\266u&\265x*\266z/\271|3\271|"
 3684      22B37122 
 3684      B57324B6 
 3684      7526B578 
 3684      2AB67A2F 
 3685 1a9f 36B77C35 		.ascii	"6\267|5\267z/\266w'\263r!\261m\035\260h\027\255c\022"
 3685      B77A2FB6 
 3685      7727B372 
 3685      21B16D1D 
 3685      B06817AD 
 3686 1ab5 AA5F0DA9 		.ascii	"\252_\015\251\\\011\250Y\010\247X\010\247X\007\250Y"
 3686      5C09A859 
 3686      08A75808 
 3686      A75807A8 
 3686      59
 3687 1ac6 08AB5C0A 		.ascii	"\010\253\\\012\255_\014\254c\015\260g\024\261j\032\261"
 3687      AD5F0CAC 
 3687      630DB067 
 3687      14B16A1A 
 3687      B1
 3688 1ad7 6C1CB270 		.ascii	"l\034\262p\037\266r%\267y.\271~;\274\205D\300\211O\302"
 3688      1FB67225 
 3688      B7792EB9 
 3688      7E3BBC85 
 3688      44C0894F 
 3689 1aec 8B52C38C 		.ascii	"\213R\303\214S\303\214S\246a\030\251e\034\254h \254"
 3689      53C38C53 
 3689      A66118A9 
 3689      651CAC68 
 3689      20AC
 3690 1afe 681FAB67 		.ascii	"h\037\253g\035\252f\033\252f\033\254f\032\254d\026\256"
 3690      1DAA661B 
 3690      AA661BAC 
 3690      661AAC64 
 3690      16AE
 3691 1b10 6515AD64 		.ascii	"e\025\255d\022\253b\016\253^\013\247[\011\250X\006\246"
 3691      12AB620E 
 3691      AB5E0BA7 
 3691      5B09A858 
 3691      06A6
 3692 1b22 5806A857 		.ascii	"X\006\250W\005\251W\005\252Y\005\257Z\004\260]\004\261"
 3692      05A95705 
 3692      AA5905AF 
 3692      5A04B05D 
 3692      04B1
 3693 1b34 5D06B05B 		.ascii	"]\006\260[\006\260\\\004\257[\002\262[\001\251X\005"
 3693      06B05C04 
 3693      AF5B02B2 
ARM GAS  C:\Users\pbant\AppData\Local\Temp\ccAmOMRv.s 			page 161


 3693      5B01A958 
 3693      05
 3694 1b45 27213128 		.ascii	"'!1(\026H\2336Z\332Ya\362qj\366zq\374\207m\376\212r"
 3694      16489B36 
 3694      5ADA5961 
 3694      F2716AF6 
 3694      7A71FC87 
 3695 1b5d FC947FFA 		.ascii	"\374\224\177\372\234\204\365\235\212\357\236\201\354"
 3695      9C84F59D 
 3695      8AEF9E81 
 3695      EC
 3696 1b6a 9D81E99E 		.ascii	"\235\201\351\236}\356\245z\367\255x\370\262}\357\247"
 3696      7DEEA57A 
 3696      F7AD78F8 
 3696      B27DEFA7 
 3697 1b7a 7CEEA27A 		.ascii	"|\356\242z\355\245}\367\273~\356\276|\357\314y\327\303"
 3697      EDA57DF7 
 3697      BB7EEEBE 
 3697      7CEFCC79 
 3697      D7C3
 3698 1b8c 69897D9A 		.ascii	"i\211}\232\204\215\316Wn\225\266{1\271}1\271|6\271|"
 3698      848DCE57 
 3698      6E95B67B 
 3698      31B97D31 
 3698      B97C36B9 
 3699 1ba1 35B97C34 		.ascii	"5\271|4\267{1\267z-\267w)\265s$\264r#\264r\"\264s#\266"
 3699      B77B31B7 
 3699      7A2DB777 
 3699      29B57324 
 3699      B47223B4 
 3700 1bbb 7424B475 		.ascii	"t$\264u%\264x(\266y+\270y.\270z0\267y.\265v)\264s#\263"
 3700      25B47828 
 3700      B6792BB8 
 3700      792EB87A 
 3700      30B7792E 
 3701 1bd6 6F1EB16B 		.ascii	"o\036\261k\030\256e\022\253`\015\251\\\012\251Y\007"
 3701      18AE6512 
 3701      AB600DA9 
 3701      5C0AA959 
 3701      07
 3702 1be7 A75706A7 		.ascii	"\247W\006\247W\006\247W\006\250X\007\253\\\011\254`"
 3702      5706A757 
 3702      06A85807 
 3702      AB5C09AC 
 3702      60
 3703 1bf8 0CAC630E 		.ascii	"\014\254c\016\260g\024\261j\031\260l\032\261o\035\264"
 3703      B06714B1 
 3703      6A19B06C 
 3703      1AB16F1D 
 3703      B4
 3704 1c09 7324B879 		.ascii	"s$\270y-\272\200<\273\206F\300\213Q\304\215U\304\217"
 3704      2DBA803C 
 3704      BB8646C0 
 3704      8B51C48D 
 3704      55C48F
 3705 1c1c 58C48E56 		.ascii	"X\304\216V\247b\031\253f\035\255i \254h\037\253g\035"
 3705      A76219AB 
ARM GAS  C:\Users\pbant\AppData\Local\Temp\ccAmOMRv.s 			page 162


 3705      661DAD69 
 3705      20AC681F 
 3705      AB671D
 3706 1c2f AB671CAB 		.ascii	"\253g\034\253g\034\254e\032\254d\026\254c\023\254b\017"
 3706      671CAC65 
 3706      1AAC6416 
 3706      AC6313AC 
 3706      620F
 3707 1c41 A9600CAA 		.ascii	"\251`\014\252]\011\255[\005\261Z\001\262\\\001\256["
 3707      5D09AD5B 
 3707      05B15A01 
 3707      B25C01AE 
 3707      5B
 3708 1c52 05A6590B 		.ascii	"\005\246Y\013\231X\026\216V\"\204Q(}N)wN,tO/wQ0{Q+\212"
 3708      9958168E 
 3708      56228451 
 3708      287D4E29 
 3708      774E2C74 
 3709 1c6f 57235E48 		.ascii	"W#^H;\030!Uy#T\341Pe\347`g\336^k\344eh\357oi\360vn\370"
 3709      3B182155 
 3709      792354E1 
 3709      5065E760 
 3709      67DE5E6B 
 3710 1c8d 8D71FA95 		.ascii	"\215q\372\225~\372\235z\366\236{\364\241y\356\246r\341"
 3710      7EFA9D7A 
 3710      F69E7BF4 
 3710      A179EEA6 
 3710      72E1
 3711 1c9f A26AE6A5 		.ascii	"\242j\346\245r\360\255y\361\255w\357\253s\350\251w\356"
 3711      72F0AD79 
 3711      F1AD77EF 
 3711      AB73E8A9 
 3711      77EE
 3712 1cb1 B972E9B9 		.ascii	"\271r\351\271s\350\304n\303\261fr{\251w\217\331won\300"
 3712      73E8C46E 
 3712      C3B16672 
 3712      7BA9778F 
 3712      D9776F6E 
 3713 1cc6 7C26B779 		.ascii	"|&\267y-\267y,\267y+\265x)\264v&\264s#\262p\037\263"
 3713      2DB7792C 
 3713      B7792BB5 
 3713      7829B476 
 3713      26B47323 
 3714 1cde 7120B573 		.ascii	"q \265s!\265s\"\265t#\265t$\265v&\266v'\267v(\266w("
 3714      21B57322 
 3714      B57423B5 
 3714      7424B576 
 3714      26B67627 
 3715 1cf8 B67527B4 		.ascii	"\266u'\264r$\261o\037\260k\031\260h\023\254d\016\253"
 3715      7224B16F 
 3715      1FB06B19 
 3715      B06813AC 
 3715      640EAB
 3716 1d0b 5E0BA859 		.ascii	"^\013\250Y\010\246W\007\247V\005\250V\005\250W\006\251"
 3716      08A65707 
 3716      A75605A8 
 3716      5605A857 
ARM GAS  C:\Users\pbant\AppData\Local\Temp\ccAmOMRv.s 			page 163


 3716      06A9
 3717 1d1d 5807A95B 		.ascii	"X\007\251[\011\252`\014\253c\015\257f\023\261i\027\262"
 3717      09AA600C 
 3717      AB630DAF 
 3717      6613B169 
 3717      17B2
 3718 1d2f 6A17B16D 		.ascii	"j\027\261m\032\264r!\270y*\272\200:\275\207H\302\214"
 3718      1AB47221 
 3718      B8792ABA 
 3718      803ABD87 
 3718      48C28C
 3719 1d42 52C58F56 		.ascii	"R\305\217V\303\220Z\303\220Z\250c\033\253f\036\255i"
 3719      C3905AC3 
 3719      905AA863 
 3719      1BAB661E 
 3719      AD69
 3720 1d54 20AC681F 		.ascii	" \254h\037\253g\036\253f\034\253f\035\252e\031\252c"
 3720      AB671EAB 
 3720      661CAB66 
 3720      1DAA6519 
 3720      AA63
 3721 1d66 15AA6112 		.ascii	"\025\252a\022\253`\013\263a\006\260^\011\230U\022wH"
 3721      AB600BB3 
 3721      6106B05E 
 3721      09985512 
 3721      7748
 3722 1d78 21593D2F 		.ascii	"!Y=/>7A*/J\030,S\015)Y\017%\\\025-d\030,` 'Y%-_'1b)"
 3722      3E37412A 
 3722      2F4A182C 
 3722      530D2959 
 3722      0F255C15 
 3723 1d9b 2D5F253C 		.ascii	"-_%<o\027.`\211*J\323RZ\344c`\345qb\346\200a\355\211"
 3723      6F172E60 
 3723      892A4AD3 
 3723      525AE463 
 3723      60E57162 
 3724 1db4 5FF29063 		.ascii	"_\362\220c\361\220a\357\214i\365\226j\371\240g\371\242"
 3724      F19061EF 
 3724      8C69F596 
 3724      6AF9A067 
 3724      F9A2
 3725 1dc6 64F6A167 		.ascii	"d\366\241g\355\240f\331\224e\321\220c\334\235h\352\257"
 3725      EDA066D9 
 3725      9465D190 
 3725      63DC9D68 
 3725      EAAF
 3726 1dd8 6DEDB870 		.ascii	"m\355\270p\351\266p\353\272m\355\311a\353\312a\236\222"
 3726      E9B670EB 
 3726      BA6DEDC9 
 3726      61EBCA61 
 3726      9E92
 3727 1dea 694659A2 		.ascii	"iFY\242-T\237\225rE\275y \267v'\266v&\264t$\263r \263"
 3727      2D549F95 
 3727      7245BD79 
 3727      20B77627 
 3727      B67626B4 
 3728 1e04 701DB16F 		.ascii	"p\035\261o\033\261o\034\264q \264s\"\264t#\265t$\265"
ARM GAS  C:\Users\pbant\AppData\Local\Temp\ccAmOMRv.s 			page 164


 3728      1BB16F1C 
 3728      B47120B4 
 3728      7322B474 
 3728      23B57424 
 3729 1e19 7424B573 		.ascii	"t$\265s$\265s$\265t$\265r!\263p\035\261m\027\260i\022"
 3729      24B57324 
 3729      B57424B5 
 3729      7221B370 
 3729      1DB16D17 
 3730 1e30 AE650FAB 		.ascii	"\256e\017\253a\014\252]\012\250X\006\246W\004\246V\004"
 3730      610CAA5D 
 3730      0AA85806 
 3730      A65704A6 
 3730      5604
 3731 1e42 A75605A8 		.ascii	"\247V\005\250W\006\250X\007\251Z\010\252]\012\251`\012"
 3731      5706A858 
 3731      07A95A08 
 3731      AA5D0AA9 
 3731      600A
 3732 1e54 AC640FAF 		.ascii	"\254d\017\257g\021\261i\025\261l\027\263r\037\267y)"
 3732      6711B169 
 3732      15B16C17 
 3732      B3721FB7 
 3732      7929
 3733 1e66 BA8137BD 		.ascii	"\272\2017\275\206F\303\214R\304\220W\304\221\\\304\222"
 3733      8646C38C 
 3733      52C49057 
 3733      C4915CC4 
 3733      92
 3734 1e77 5CA7611C 		.ascii	"\\\247a\034\254f\036\255h\037\254h\037\254h\037\254"
 3734      AC661EAD 
 3734      681FAC68 
 3734      1FAC681F 
 3734      AC
 3735 1e88 671EAC67 		.ascii	"g\036\254g\036\252e\033\253b\026\260c\014\251`\016{"
 3735      1EAA651B 
 3735      AB6216B0 
 3735      630CA960 
 3735      0E7B
 3736 1e9a 4E263A32 		.ascii	"N&:2?\022\037F\004\025H\001\021B\002\023E\010\026J\027"
 3736      3F121F46 
 3736      04154801 
 3736      11420213 
 3736      4508164A 
 3737 1eaf 1B4D3025 		.ascii	"\033M0%U\032 P\024#U\030%[\037$Y0/a5.`A4e?=k\030\035"
 3737      551A2050 
 3737      14235518 
 3737      255B1F24 
 3737      59302F61 
 3738 1ece 4A7C2B44 		.ascii	"J|+D\332kK\352\216N\357\231S\362\237U\362\236T\361\231"
 3738      DA6B4BEA 
 3738      8E4EEF99 
 3738      53F29F55 
 3738      F29E54F1 
 3739 1ee3 5AF09860 		.ascii	"Z\360\230`\357\227_\357\233]\357\233_\365\237\\\361"
 3739      EF975FEF 
 3739      9B5DEF9B 
ARM GAS  C:\Users\pbant\AppData\Local\Temp\ccAmOMRv.s 			page 165


 3739      5FF59F5C 
 3739      F1
 3740 1ef4 9C5EEC9D 		.ascii	"\234^\354\235\\\344\224_\323\207]\302}b\275\205g\324"
 3740      5CE4945F 
 3740      D3875DC2 
 3740      7D62BD85 
 3740      67D4
 3741 1f06 9E61E4B5 		.ascii	"\236a\344\265b\350\276d\363\323X\367\342T\351\307eb"
 3741      62E8BE64 
 3741      F3D358F7 
 3741      E254E9C7 
 3741      6562
 3742 1f18 64750134 		.ascii	"du\0014\225<\\\216\271u!\265q\035\264q\037\263p\036"
 3742      953C5C8E 
 3742      B97521B5 
 3742      711DB471 
 3742      1FB3701E 
 3743 1f2c B26E1BB2 		.ascii	"\262n\033\262m\030\261m\030\261o\031\261p\034\261p\035"
 3743      6D18B16D 
 3743      18B16F19 
 3743      B1701CB1 
 3743      701D
 3744 1f3e B472     		.ascii	"\264r"
 3745 1f40 1FB4721F 		.ascii	"\037\264r\037\263q\036\263q\037\263q \262p\036\263n"
 3745      B3711EB3 
 3745      711FB371 
 3745      20B2701E 
 3745      B36E
 3746 1f52 1AB16D15 		.ascii	"\032\261m\025\260i\022\256f\017\254b\014\252^\013\251"
 3746      B06912AE 
 3746      660FAC62 
 3746      0CAA5E0B 
 3746      A9
 3747 1f63 5B09A958 		.ascii	"[\011\251X\005\247W\004\246V\004\247W\006\251W\006\251"
 3747      05A75704 
 3747      A65604A7 
 3747      5706A957 
 3747      06A9
 3748 1f75 5807A95A 		.ascii	"X\007\251Z\010\253]\012\252^\011\254b\013\255d\015\257"
 3748      08AB5D0A 
 3748      AA5E09AC 
 3748      620BAD64 
 3748      0DAF
 3749 1f87 6511B169 		.ascii	"e\021\261i\024\263o\035\267w'\272\1774\275\205B\302"
 3749      14B36F1D 
 3749      B77727BA 
 3749      7F34BD85 
 3749      42C2
 3750 1f99 8B4FC48F 		.ascii	"\213O\304\217U\306\220X\305\217W\250b\032\253g\035\255"
 3750      55C69058 
 3750      C58F57A8 
 3750      621AAB67 
 3750      1DAD
 3751 1fab 691FAC68 		.ascii	"i\037\254h \254h!\255j\"\254h\"\256g\034\266h\026\205"
 3751      20AC6821 
 3751      AD6A22AC 
 3751      6822AE67 
ARM GAS  C:\Users\pbant\AppData\Local\Temp\ccAmOMRv.s 			page 166


 3751      1CB66816 
 3752 1fc0 5423312E 		.ascii	"T#1.?\005\024B\000\012:\006\0176\020\024> \031D0\034"
 3752      3F051442 
 3752      000A3A06 
 3752      0F361014 
 3752      3E201944 
 3753 1fd6 4E3B2054 		.ascii	"N; TT0_]=oM!RI\033KV\"Sn2\\\202?c\206@a\225He\232Zg"
 3753      54305F5D 
 3753      3D6F4D21 
 3753      52491B4B 
 3753      5622536E 
 3754 1ff8 15163D5C 		.ascii	"\025\026=\\(9\334q9\334wB\326nL\325iU\341mW\351r]\346"
 3754      2839DC71 
 3754      39DC7742 
 3754      D66E4CD5 
 3754      6955E16D 
 3755 2011 7460EE7E 		.ascii	"t`\356~\\\364\211]\366\214c\362\212e\364\216f\362\221"
 3755      5CF4895D 
 3755      F68C63F2 
 3755      8A65F48E 
 3755      66F291
 3756 2024 60F29B58 		.ascii	"`\362\233X\361\235W\345\232U\306\177N\232ZJ\266}N\334"
 3756      F19D57E5 
 3756      9A55C67F 
 3756      4E9A5A4A 
 3756      B67D4EDC 
 3757 2038 A85AE4B7 		.ascii	"\250Z\344\267]\367\330T\354\312g\227sh\0349z\006H\255"
 3757      5DF7D854 
 3757      ECCA6797 
 3757      73681C39 
 3757      7A0648AD 
 3758 204c 7F6C5ABD 		.ascii	"\177lZ\275p\014\262n\027\261m\026\261k\025\260k\023"
 3758      700CB26E 
 3758      17B16D16 
 3758      B16B15B0 
 3758      6B13
 3759 205e B26C14B2 		.ascii	"\262l\024\262n\027\261n\031\262n\031\262o\032\261o\032"
 3759      6E17B16E 
 3759      19B26E19 
 3759      B26F1AB1 
 3759      6F1A
 3760 2070 B16E1AB2 		.ascii	"\261n\032\262n\031\262n\030\261m\026\260j\024\257h\021"
 3760      6E19B26E 
 3760      18B16D16 
 3760      B06A14AF 
 3760      6811
 3761 2082 AF650FAF 		.ascii	"\257e\017\257c\015\255a\013\252^\011\251\\\007\250Y"
 3761      630DAD61 
 3761      0BAA5E09 
 3761      A95C07A8 
 3761      59
 3762 2093 06A85805 		.ascii	"\006\250X\005\250W\005\250X\005\251X\006\252Y\007\252"
 3762      A85705A8 
 3762      5805A958 
 3762      06AA5907 
 3762      AA
 3763 20a4 5C08AB5D 		.ascii	"\\\010\253]\011\253^\010\254_\011\254a\013\256c\015"
ARM GAS  C:\Users\pbant\AppData\Local\Temp\ccAmOMRv.s 			page 167


 3763      09AB5E08 
 3763      AC5F09AC 
 3763      610BAE63 
 3763      0D
 3764 20b5 AF6710B2 		.ascii	"\257g\020\262m\030\266t\"\271|.\274\2019\300\207E\277"
 3764      6D18B674 
 3764      22B97C2E 
 3764      BC8139C0 
 3764      8745BF
 3765 20c8 894AC38C 		.ascii	"\211J\303\214N\303\214P\251e\031\253g\033\256j\037\256"
 3765      4EC38C50 
 3765      A96519AB 
 3765      671BAE6A 
 3765      1FAE
 3766 20da 6923AF6A 		.ascii	"i#\257j$\256l%\263l\"\255h!V;/\010\024=\003\023C\013"
 3766      24AE6C25 
 3766      B36C22AD 
 3766      6821563B 
 3766      2F08143D 
 3767 20f2 0F380E0F 		.ascii	"\0178\016\0175\036\032E9$XK'^X/dT-dV/f[2g\1774`\236"
 3767      351E1A45 
 3767      3924584B 
 3767      275E582F 
 3767      64542D64 
 3768 2110 3D5FAC4A 		.ascii	"=_\254Je\276Zg\305fg\310ml\337\201m\266ra\022\0202j"
 3768      65BE5A67 
 3768      C56667C8 
 3768      6D6CDF81 
 3768      6DB67261 
 3769 2128 203FC247 		.ascii	" ?\302GH\325XK\327]R\323eT\336sR\350~Y\345\213Z\351"
 3769      48D5584B 
 3769      D75D52D3 
 3769      6554DE73 
 3769      52E87E59 
 3770 2140 9459EA9E 		.ascii	"\224Y\352\236[\354\237`\350\240b\353\242d\357\255\\"
 3770      5BEC9F60 
 3770      E8A062EB 
 3770      A264EFAD 
 3770      5C
 3771 2151 F5BC58F9 		.ascii	"\365\274X\371\302N\367\300G\370\305G\255sJ\217NN\340"
 3771      C24EF7C0 
 3771      47F8C547 
 3771      AD734A8F 
 3771      4E4EE0
 3772 2164 A547F1C5 		.ascii	"\245G\361\305H\360\277S\354\312[\365\341U\263\230V\026"
 3772      48F0BF53 
 3772      ECCA5BF5 
 3772      E155B398 
 3772      5616
 3773 2176 37832A5E 		.ascii	"7\203*^\245\256l\035\262g\015\257g\021\257g\020\257"
 3773      A5AE6C1D 
 3773      B2670DAF 
 3773      6711AF67 
 3773      10AF
 3774 2188 6711B169 		.ascii	"g\021\261i\023\262j\024\262k\024\262l\024\261l\025\261"
 3774      13B26A14 
 3774      B26B14B2 
ARM GAS  C:\Users\pbant\AppData\Local\Temp\ccAmOMRv.s 			page 168


 3774      6C14B16C 
 3774      15B1
 3775 219a 6C15B16C 		.ascii	"l\025\261l\025\262l\025\261k\024\260i\021\256f\017\255"
 3775      15B26C15 
 3775      B16B14B0 
 3775      6911AE66 
 3775      0FAD
 3776 21ac 640FAD61 		.ascii	"d\017\255a\014\257`\012\255`\011\253^\010\252]\007\251"
 3776      0CAF600A 
 3776      AD6009AB 
 3776      5E08AA5D 
 3776      07A9
 3777 21be 5B07AA59 		.ascii	"[\007\252Y\006\251X\005\251Y\006\251Y\006\252Z\007\252"
 3777      06A95805 
 3777      A95906A9 
 3777      5906AA5A 
 3777      07AA
 3778 21d0 5D07AB5E 		.ascii	"]\007\253^\010\253^\010\254_\011\253`\012\255b\013\256"
 3778      08AB5E08 
 3778      AC5F09AB 
 3778      600AAD62 
 3778      0BAE
 3779 21e2 650CB269 		.ascii	"e\014\262i\023\265p\031\271z5\272\1774\273\205D\275"
 3779      13B57019 
 3779      B97A35BA 
 3779      7F34BB85 
 3779      44BD
 3780 21f4 8442BD86 		.ascii	"\204B\275\206C\276\210D\251e\032\253g\034\256j \256"
 3780      43BE8844 
 3780      A9651AAB 
 3780      671CAE6A 
 3780      20AE
 3781 2206 6923B06B 		.ascii	"i#\260k$\260l%\253n-94A\000\0074\004\011-\014\0174\026"
 3781      24B06C25 
 3781      AB6E2D39 
 3781      34410007 
 3781      3404092D 
 3782 221e 133C2D1C 		.ascii	"\023<-\034LG\"WU']E&\\[*b\2101f\214:`\216@c\236He\265"
 3782      4C472257 
 3782      55275D45 
 3782      265C5B2A 
 3782      62883166 
 3783 223c 6064CC6D 		.ascii	"`d\314mb\323wb\317{j\317\207m\336\227l\264\204a:\035"
 3783      62D37762 
 3783      CF7B6ACF 
 3783      876DDE97 
 3783      6CB48461 
 3784 2252 3D782547 		.ascii	"=x%G\251DO\332cS\346pY\352vY\352zQ\356\177W\357\211"
 3784      A9444FDA 
 3784      6353E670 
 3784      59EA7659 
 3784      EA7A51EE 
 3785 226a 59F4975E 		.ascii	"Y\364\227^\370\241Z\367\251U\362\252R\357\261W\355\266"
 3785      F8A15AF7 
 3785      A955F2AA 
 3785      52EFB157 
 3785      EDB6
ARM GAS  C:\Users\pbant\AppData\Local\Temp\ccAmOMRv.s 			page 169


 3786 227c 5DE6B360 		.ascii	"]\346\263`\322\240]\345\273L\367\324F\360\307L\305\206"
 3786      D2A05DE5 
 3786      BB4CF7D4 
 3786      46F0C74C 
 3786      C586
 3787 228e 4ACF8741 		.ascii	"J\317\207A\370\3224\375\3419\366\323L\366\327Z\377\344"
 3787      F8D234FD 
 3787      E139F6D3 
 3787      4CF6D75A 
 3787      FFE4
 3788 22a0 5BA28850 		.ascii	"[\242\210P\011@\244wsm\267d\002\255c\016\256c\016\257"
 3788      0940A477 
 3788      736DB764 
 3788      02AD630E 
 3788      AE630EAF 
 3789 22b4 650EAF66 		.ascii	"e\016\257f\020\260g\021\260h\021\261i\023\262i\022\261"
 3789      10B06711 
 3789      B06811B1 
 3789      6913B269 
 3789      12B1
 3790 22c6 6911B068 		.ascii	"i\021\260h\021\260h\021\260g\021\257e\017\256c\015\255"
 3790      11B06811 
 3790      B06711AF 
 3790      650FAE63 
 3790      0DAD
 3791 22d8 630BAB61 		.ascii	"c\013\253a\012\252_\012\253_\011\254^\007\252\\\007"
 3791      0AAA5F0A 
 3791      AB5F09AC 
 3791      5E07AA5C 
 3791      07
 3792 22e9 A95B08A9 		.ascii	"\251[\010\251Z\010\251Y\006\250Y\006\250[\006\251\\"
 3792      5A08A959 
 3792      06A85906 
 3792      A85B06A9 
 3792      5C
 3793 22fa 06AA5D07 		.ascii	"\006\252]\007\253^\010\254_\011\255`\012\254_\011\255"
 3793      AB5E08AC 
 3793      5F09AD60 
 3793      0AAC5F09 
 3793      AD
 3794 230b 600AAD62 		.ascii	"`\012\255b\013\260f\020\261k\022\266v)\270\202@\270"
 3794      0BB06610 
 3794      B16B12B6 
 3794      7629B882 
 3794      40B8
 3795 231d 7F3CB980 		.ascii	"\177<\271\200;\272\2018\273\2028\252f\033\253g\035\256"
 3795      3BBA8138 
 3795      BB8238AA 
 3795      661BAB67 
 3795      1DAE
 3796 232f 6A21AF6A 		.ascii	"j!\257j#\260j%\270p nR=\000\021E\010\0130\007\014/\024"
 3796      23B06A25 
 3796      B870206E 
 3796      523D0011 
 3796      45080B30 
 3797 2347 173F3129 		.ascii	"\027?1)YD4j9(]G!Vc*al(]\2318V\252MT\227I[\220Ka\242"
 3797      5944346A 
ARM GAS  C:\Users\pbant\AppData\Local\Temp\ccAmOMRv.s 			page 170


 3797      39285D47 
 3797      2156632A 
 3797      616C285D 
 3798 2368 5D64A967 		.ascii	"]d\251gi\262og\265rn\272zy\305\202y\311\207m[:L\202"
 3798      69B26F67 
 3798      B5726EBA 
 3798      7A79C582 
 3798      79C9876D 
 3799 2380 2B4EB541 		.ascii	"+N\265AW\335ZY\351d[\355p[\361wT\364{V\365\206X\367"
 3799      57DD5A59 
 3799      E9645BED 
 3799      705BF177 
 3799      54F47B56 
 3800 2398 965BFCA2 		.ascii	"\226[\374\242R\374\254Q\373\260G\372\267I\364\267M\361"
 3800      52FCAC51 
 3800      FBB047FA 
 3800      B749F4B7 
 3800      4DF1
 3801 23aa C051E3BF 		.ascii	"\300Q\343\277W\330\274R\371\340A\372\325@\355\304D\327"
 3801      57D8BC52 
 3801      F9E041FA 
 3801      D540EDC4 
 3801      44D7
 3802 23bc 9A46E4A6 		.ascii	"\232F\344\246<\371\3272\366\3209\367\314K\370\337V\375"
 3802      3CF9D732 
 3802      F6D039F7 
 3802      CC4BF8DF 
 3802      56FD
 3803 23ce D8536565 		.ascii	"\330Seet;t\301\253k\033\256`\007\255b\014\255d\013\256"
 3803      743B74C1 
 3803      AB6B1BAE 
 3803      6007AD62 
 3803      0CAD640B 
 3804 23e3 660EAE65 		.ascii	"f\016\256e\017\257f\021\257f\021\257e\017\257e\020\256"
 3804      0FAF6611 
 3804      AF6611AF 
 3804      650FAF65 
 3804      10AE
 3805 23f5 6510AE64 		.ascii	"e\020\256d\015\256c\015\255b\014\254a\013\254c\012\252"
 3805      0DAE630D 
 3805      AD620CAC 
 3805      610BAC63 
 3805      0AAA
 3806 2407 610AA95F 		.ascii	"a\012\251_\012\254_\011\254^\007\252\\\010\251[\010"
 3806      0AAC5F09 
 3806      AC5E07AA 
 3806      5C08A95B 
 3806      08
 3807 2418 A95B07A7 		.ascii	"\251[\007\247Z\007\250Z\010\251\\\007\252]\007\253^"
 3807      5A07A85A 
 3807      08A95C07 
 3807      AA5D07AB 
 3807      5E
 3808 2429 08AC5F09 		.ascii	"\010\254_\011\254_\011\254`\012\255a\013\255a\013\255"
 3808      AC5F09AC 
 3808      600AAD61 
 3808      0BAD610B 
ARM GAS  C:\Users\pbant\AppData\Local\Temp\ccAmOMRv.s 			page 171


 3808      AD
 3809 243a 620CB065 		.ascii	"b\014\260e\017\261j\021\264n\027\267z4\272\202K\270"
 3809      0FB16A11 
 3809      B46E17B7 
 3809      7A34BA82 
 3809      4BB8
 3810 244c 7C37BA7B 		.ascii	"|7\272{,\270}-\251e\032\253g\034\257j \257k\"\256j\""
 3810      2CB87D2D 
 3810      A9651AAB 
 3810      671CAF6A 
 3810      20AF6B22 
 3811 2463 B9701E5A 		.ascii	"\271p\036ZC7\000\016?\007\012-\010\0226\024\034G48j"
 3811      4337000E 
 3811      3F070A2D 
 3811      08123614 
 3811      1C473438 
 3812 2478 383A6E47 		.ascii	"8:nG'[f\"Wt(W\2035U\226GX\211F_\210Ie\203Ad\201Gk\215"
 3812      275B6622 
 3812      57742857 
 3812      83355596 
 3812      47588946 
 3813 2497 50709E51 		.ascii	"Pp\236Qj\237Te\242Xq\246^u\267dnwUi^(T\304:S\350RW\352"
 3813      6A9F5465 
 3813      A25871A6 
 3813      5E75B764 
 3813      6E775569 
 3814 24b5 6058E464 		.ascii	"`X\344dX\347gM\353pS\364\203V\364\214R\366\231Q\372"
 3814      58E7674D 
 3814      EB7053F4 
 3814      8356F48C 
 3814      52F69951 
 3815 24ca A849FDBC 		.ascii	"\250I\375\274G\372\302=\367\273E\364\301G\356\306P\330"
 3815      47FAC23D 
 3815      F7BB45F4 
 3815      C147EEC6 
 3815      50D8
 3816 24dc B556DABF 		.ascii	"\265V\332\277F\375\3512\371\3355\360\311A\345\254@\363"
 3816      46FDE932 
 3816      F9DD35F0 
 3816      C941E5AC 
 3816      40F3
 3817 24ee C632FBDF 		.ascii	"\3062\373\3373\373\337A\367\343N\372\327W\334\266`B"
 3817      33FBDF41 
 3817      F7E34EFA 
 3817      D757DCB6 
 3817      6042
 3818 2500 77CC7B77 		.ascii	"w\314{wp\263]\000\255a\010\255b\012\254c\014\255c\015"
 3818      70B35D00 
 3818      AD6108AD 
 3818      620AAC63 
 3818      0CAD630D 
 3819 2514 AE630DAE 		.ascii	"\256c\015\256c\015\256c\015\255c\015\254b\014\253`\012"
 3819      630DAE63 
 3819      0DAD630D 
 3819      AC620CAB 
 3819      600A
 3820 2526 AB600AA9 		.ascii	"\253`\012\251_\011\251_\011\254`\011\254`\011\253_\012"
ARM GAS  C:\Users\pbant\AppData\Local\Temp\ccAmOMRv.s 			page 172


 3820      5F09A95F 
 3820      09AC6009 
 3820      AC6009AB 
 3820      5F0A
 3821 2538 AB5F09AB 		.ascii	"\253_\011\253^\007\252]\007\252\\\010\252\\\007\251"
 3821      5E07AA5D 
 3821      07AA5C08 
 3821      AA5C07A9 
 3822 2548 5B06AA5C 		.ascii	"[\006\252\\\007\252]\007\252]\007\253^\010\254_\011"
 3822      07AA5D07 
 3822      AA5D07AB 
 3822      5E08AC5F 
 3822      09
 3823 2559 AA5F0AAD 		.ascii	"\252_\012\255`\012\255`\012\256b\013\256c\014\257d\017"
 3823      600AAD60 
 3823      0AAE620B 
 3823      AE630CAF 
 3823      640F
 3824 256b B16811B4 		.ascii	"\261h\021\264n\026\265r!\266\200S\266}<\267w'\267w&"
 3824      6E16B572 
 3824      21B68053 
 3824      B67D3CB7 
 3824      7727B777 
 3825 2580 A76319AA 		.ascii	"\247c\031\252f\032\255h\036\255i \255i \267n\034nJ0"
 3825      661AAD68 
 3825      1EAD6920 
 3825      AD6920B7 
 3825      6E1C6E4A 
 3826 2595 000E4106 		.ascii	"\000\016A\006\022;\007\032D\007\026@\033\036L<%YU\""
 3826      123B071A 
 3826      44071640 
 3826      1B1E4C3C 
 3826      25595522 
 3827 25a9 54752952 		.ascii	"Tu)R\2058U\210?X\211Ba|;by6^}7\\\207?]\233Pn\232Ne\230"
 3827      85385588 
 3827      3F588942 
 3827      617C3B62 
 3827      79365E7D 
 3828 25c9 515FA656 		.ascii	"Q_\246Vh\264et\317yn\204ow9 O\306QL\333hV\325aY\333"
 3828      68B46574 
 3828      CF796E84 
 3828      6F773920 
 3828      4FC6514C 
 3829 25e4 665AEB7D 		.ascii	"fZ\353}W\360\212T\364\236S\372\260M\373\275D\373\267"
 3829      57F08A54 
 3829      F49E53FA 
 3829      B04DFBBD 
 3829      44FBB7
 3830 25f7 42FBBE40 		.ascii	"B\373\276@\373\3058\371\275F\365\271O\356\277S\360\313"
 3830      FBC538F9 
 3830      BD46F5B9 
 3830      4FEEBF53 
 3830      F0CB
 3831 2609 49CBB14F 		.ascii	"I\313\261O\353\325=\377\3540\373\351,\362\321:\363\313"
 3831      EBD53DFF 
 3831      EC30FBE9 
 3831      2CF2D13A 
ARM GAS  C:\Users\pbant\AppData\Local\Temp\ccAmOMRv.s 			page 173


 3831      F3CB
 3832 261b 37FBE029 		.ascii	"7\373\340)\371\3379\372\334I\365\327R\374\325^\240\223"
 3832      F9DF39FA 
 3832      DC49F5D7 
 3832      52FCD55E 
 3832      A093
 3833 262d 9F467CC2 		.ascii	"\237F|\302\247b\027\256]\003\254_\012\253`\012\254a"
 3833      A76217AE 
 3833      5D03AC5F 
 3833      0AAB600A 
 3833      AC61
 3834 263f 0BAC610B 		.ascii	"\013\254a\013\254a\013\254a\013\254`\012\254^\011\253"
 3834      AC610BAC 
 3834      610BAC60 
 3834      0AAC5E09 
 3834      AB
 3835 2650 5D07AA5D 		.ascii	"]\007\252]\007\252]\007\252]\010\254^\011\254_\011\254"
 3835      07AA5D07 
 3835      AA5D08AC 
 3835      5E09AC5F 
 3835      09AC
 3836 2662 5F09AB5E 		.ascii	"_\011\253^\010\252]\007\252]\007\252]\007\252]\007\251"
 3836      08AA5D07 
 3836      AA5D07AA 
 3836      5D07AA5D 
 3836      07A9
 3837 2674 5C06AB5E 		.ascii	"\\\006\253^\007\253^\010\252]\010\253]\007\254^\007"
 3837      07AB5E08 
 3837      AA5D08AB 
 3837      5D07AC5E 
 3837      07
 3838 2685 AA6313AB 		.ascii	"\252c\023\253a\015\256`\011\256c\014\257e\014\260e\020"
 3838      610DAE60 
 3838      09AE630C 
 3838      AF650CB0 
 3838      6510
 3839 2697 B06812B3 		.ascii	"\260h\022\263m\025\265o\027\267}H\265~J\264v.\267t\036"
 3839      6D15B56F 
 3839      17B77D48 
 3839      B57E4AB4 
 3839      762EB774 
 3840 26ac A96217A8 		.ascii	"\251b\027\250e\030\252f\032\252g\034\251g\034\256h\027"
 3840      6518AA66 
 3840      1AAA671C 
 3840      A9671CAE 
 3840      6817
 3841 26be 9F621E20 		.ascii	"\237b\036 $>\001\034T\007\033I\012\025;$\031BM\032L"
 3841      243E011C 
 3841      54071B49 
 3841      0A153B24 
 3841      19424D1A 
 3842 26d3 62265172 		.ascii	"b&Qr5\\\177@ay9^l(S\177,R\220@_\224Mj\222Od\236Uf\245"
 3842      355C7F40 
 3842      6179395E 
 3842      6C28537F 
 3842      2C529040 
 3843 26f2 586BC569 		.ascii	"Xk\305ig\321xd\317{d\331\213e_AJ\237JE\322bQ\317_Q\337"
ARM GAS  C:\Users\pbant\AppData\Local\Temp\ccAmOMRv.s 			page 174


 3843      67D17864 
 3843      CF7B64D9 
 3843      8B655F41 
 3843      4A9F4A45 
 3844 270d 794FEE   		.ascii	"yO\356"
 3845 2710 9351F2A6 		.ascii	"\223Q\362\246L\367\263D\367\301?\371\310A\367\3019\370"
 3845      4CF7B344 
 3845      F7C13FF9 
 3845      C841F7C1 
 3845      39F8
 3846 2722 BA41F8BB 		.ascii	"\272A\370\273@\371\276?\370\276A\366\274J\362\275O\367"
 3846      40F9BE3F 
 3846      F8BE41F6 
 3846      BC4AF2BD 
 3846      4FF7
 3847 2734 CC45E4C8 		.ascii	"\314E\344\310J\316\261K\372\3459\376\357)\373\352%\367"
 3847      4ACEB14B 
 3847      FAE539FE 
 3847      EF29FBEA 
 3847      25F7
 3848 2746 D734F7DB 		.ascii	"\3274\367\333/\374\345.\371\330>\370\333H\366\335W\353"
 3848      2FFCE52E 
 3848      F9D83EF8 
 3848      DB48F6DD 
 3848      57EB
 3849 2758 BB845D80 		.ascii	"\273\204]\200\311zsl\262Z\000\251_\010\251_\010\252"
 3849      C97A736C 
 3849      B25A00A9 
 3849      5F08A95F 
 3849      08AA
 3850 276a 600AAB60 		.ascii	"`\012\253`\012\253`\012\254_\011\253]\010\251\\\006"
 3850      0AAB600A 
 3850      AC5F09AB 
 3850      5D08A95C 
 3850      06
 3851 277b A95A05AA 		.ascii	"\251Z\005\252Z\005\252Z\005\254[\007\253]\007\252^\010"
 3851      5A05AA5A 
 3851      05AC5B07 
 3851      AB5D07AA 
 3851      5E08
 3852 278d AB5E08AA 		.ascii	"\253^\010\252]\007\252]\007\252]\007\251]\007\252]\007"
 3852      5D07AA5D 
 3852      07AA5D07 
 3852      A95D07AA 
 3852      5D07
 3853 279f AA5D07AB 		.ascii	"\252]\007\253^\010\253^\010\254^\007\252a\020\255`\012"
 3853      5E08AB5E 
 3853      08AC5E07 
 3853      AA6110AD 
 3853      600A
 3854 27b1 AA620DAE 		.ascii	"\252b\015\256j\035\255c\014\257d\014\256e\017\260g\021"
 3854      6A1DAD63 
 3854      0CAF640C 
 3854      AE650FB0 
 3854      6711
 3855 27c3 B26913B2 		.ascii	"\262i\023\262m\024\264o\027\265x6\270\203P\262v@\266"
 3855      6D14B46F 
ARM GAS  C:\Users\pbant\AppData\Local\Temp\ccAmOMRv.s 			page 175


 3855      17B57836 
 3855      B88350B2 
 3855      7640B6
 3856 27d6 741CA960 		.ascii	"t\034\251`\026\251a\025\252c\026\252c\030\251c\030\251"
 3856      16A96115 
 3856      AA6316AA 
 3856      6318A963 
 3856      18A9
 3857 27e8 6417B46C 		.ascii	"d\027\264l\027\226d) ,T\000\022E\013\0226\023\025:6"
 3857      17966429 
 3857      202C5400 
 3857      12450B12 
 3857      3613153A 
 3858 27fd 1D495327 		.ascii	"\035IS'Sp3Xo.Xu)Y\221:[\235LZ\234R\\\246S_\256UZ\275"
 3858      53703358 
 3858      6F2E5875 
 3858      2959913A 
 3858      5B9D4C5A 
 3859 281b 5C57B962 		.ascii	"\\W\271b`\306o]\312yZ\327\201c\216_R=\0266\260L?\326"
 3859      60C66F5D 
 3859      CA795AD7 
 3859      81638E5F 
 3859      523D1636 
 3860 2833 803BF2A6 		.ascii	"\200;\362\246:\365\252@\361\251F\360\260A\363\265@\362"
 3860      3AF5AA40 
 3860      F1A946F0 
 3860      B041F3B5 
 3860      40F2
 3861 2845 B33BF0B1 		.ascii	"\263;\360\261D\360\261E\360\263B\365\267@\366\267A\362"
 3861      44F0B145 
 3861      F0B342F5 
 3861      B740F6B7 
 3861      41F2
 3862 2857 BB46F6BF 		.ascii	"\273F\366\277E\367\303F\370\312H\364\321=\316\257J\340"
 3862      45F7C346 
 3862      F8CA48F4 
 3862      D13DCEAF 
 3862      4AE0
 3863 2869 C444FFEC 		.ascii	"\304D\377\354<\375\357*\375\352(\372\3361\374\346-\372"
 3863      3CFDEF2A 
 3863      FDEA28FA 
 3863      DE31FCE6 
 3863      2DFA
 3864 287b E132FADB 		.ascii	"\3412\372\333E\367\332[\372\322\202\255\217\243Jv\266"
 3864      45F7DA5B 
 3864      FAD282AD 
 3864      8FA34A76 
 3864      B6
 3865 288c A76211AA 		.ascii	"\247b\021\252\\\003\253]\010\253^\010\253]\010\253^"
 3865      5C03AB5D 
 3865      08AB5E08 
 3865      AB5D08AB 
 3865      5E
 3866 289d 07AB5E07 		.ascii	"\007\253^\007\250[\006\247Z\004\247X\003\251X\003\252"
 3866      A85B06A7 
 3866      5A04A758 
 3866      03A95803 
ARM GAS  C:\Users\pbant\AppData\Local\Temp\ccAmOMRv.s 			page 176


 3866      AA
 3867 28ae 5904AA59 		.ascii	"Y\004\252Y\004\251[\006\252]\007\252]\007\251\\\006"
 3867      04A95B06 
 3867      AA5D07AA 
 3867      5D07A95C 
 3867      06
 3868 28bf A95C06A9 		.ascii	"\251\\\006\251\\\006\251\\\006\252]\007\252]\007\252"
 3868      5C06A95C 
 3868      06AA5D07 
 3868      AA5D07AA 
 3869 28cf 5D07AB5E 		.ascii	"]\007\253^\010\254^\006\253b\026\252f!\253`\002\255"
 3869      08AC5E06 
 3869      AB6216AA 
 3869      6621AB60 
 3869      02AD
 3870 28e1 6616B36D 		.ascii	"f\026\263m$\257d\014\256e\020\261i\022\262l\024\262"
 3870      24AF640C 
 3870      AE6510B1 
 3870      6912B26C 
 3870      14B2
 3871 28f3 6E16B370 		.ascii	"n\026\263p\027\262s.\272\205O\265\177P\267{A\250_\022"
 3871      17B2732E 
 3871      BA854FB5 
 3871      7F50B77B 
 3871      41A85F12 
 3872 2907 A65E11A7 		.ascii	"\246^\021\247_\022\247`\024\250b\026\252g\033\254i\037"
 3872      5F12A760 
 3872      14A86216 
 3872      AA671BAC 
 3872      691F
 3873 2919 B9701B9A 		.ascii	"\271p\033\232c&+&5\000\0073\002\016<\021\030C(\037J"
 3873      63262B26 
 3873      35000733 
 3873      020E3C11 
 3873      1843281F 
 3874 292e 5125506B 		.ascii	"Q%Pk!R\260IX\260\\W\254VP\265MG\267KL\300YP\317gX\332"
 3874      2152B049 
 3874      58B05C57 
 3874      AC5650B5 
 3874      4D47B74B 
 3875 294a 7059DC72 		.ascii	"pY\334r]\344z^\350\202Y:'8S!4\330y6\364\2343\361\232"
 3875      5DE47A5E 
 3875      E882593A 
 3875      27385321 
 3875      34D87936 
 3876 2963 3DF39743 		.ascii	"=\363\227C\360\230H\357\235F\360\241E\355\242I\357\244"
 3876      F09848EF 
 3876      9D46F0A1 
 3876      45EDA249 
 3876      EFA4
 3877 2975 4DEAAA4E 		.ascii	"M\352\252N\351\250M\352\253N\350\257S\346\263S\360\277"
 3877      E9A84DEA 
 3877      AB4EE8AF 
 3877      53E6B353 
 3877      F0BF
 3878 2987 48F8C845 		.ascii	"H\370\310E\371\313D\367\317;\354\322=\317\251E\367\333"
 3878      F9CB44F7 
ARM GAS  C:\Users\pbant\AppData\Local\Temp\ccAmOMRv.s 			page 177


 3878      CF3BECD2 
 3878      3DCFA945 
 3878      F7DB
 3879 2999 3EFDE441 		.ascii	">\375\344A\376\351,\375\343*\372\3334\374\3447\370\330"
 3879      FEE92CFD 
 3879      E32AFADB 
 3879      34FCE437 
 3879      F8D8
 3880 29ab 40F7D951 		.ascii	"@\367\331Q\365\333x\343\263\217Xs\301zna\262W\000\252"
 3880      F5DB78E3 
 3880      B38F5873 
 3880      C17A6E61 
 3880      B25700AA 
 3881 29bf 5B07AC5C 		.ascii	"[\007\254\\\007\253[\006\253\\\006\253\\\006\251Z\005"
 3881      07AB5B06 
 3881      AB5C06AB 
 3881      5C06A95A 
 3881      05
 3882 29d0 A85803A7 		.ascii	"\250X\003\247W\002\250X\003\250X\003\251Y\005\252[\006"
 3882      5702A858 
 3882      03A85803 
 3882      A95905AA 
 3882      5B06
 3883 29e2 AA5B05AA 		.ascii	"\252[\005\252[\005\252[\005\252[\005\252[\005\252[\005"
 3883      5B05AA5B 
 3883      05AA5B05 
 3883      AA5B05AA 
 3883      5B05
 3884 29f4 AA5B06AA 		.ascii	"\252[\006\252[\006\254\\\007\252\\\006\253^\010\255"
 3884      5B06AC5C 
 3884      07AA5C06 
 3884      AB5E08AD 
 3885 2a04 5F05AA66 		.ascii	"_\005\252f\037\252e\033\255_\004\260l\"\261n&\257f\015"
 3885      1FAA651B 
 3885      AD5F04B0 
 3885      6C22B16E 
 3885      26AF660D 
 3886 2a18 B26B15B3 		.ascii	"\262k\025\263o\025\264o\032\264q\027\262r0\270}8\274"
 3886      6F15B46F 
 3886      1AB47117 
 3886      B27230B8 
 3886      7D38BC
 3887 2a2b 834DB782 		.ascii	"\203M\267\202c\250]\021\246]\021\247_\022\250b\025\252"
 3887      63A85D11 
 3887      A65D11A7 
 3887      5F12A862 
 3887      15AA
 3888 2a3d 6417AD69 		.ascii	"d\027\255i\036\261l!\255l \266r\037\257m!oK(+%6\016"
 3888      1EB16C21 
 3888      AD6C20B6 
 3888      721FAF6D 
 3888      216F4B28 
 3889 2a55 1C490119 		.ascii	"\034I\001\031K\020\023B\2139M\317kM\275QG\310GL\316"
 3889      4B101342 
 3889      8B394DCF 
 3889      6B4DBD51 
 3889      47C8474C 
ARM GAS  C:\Users\pbant\AppData\Local\Temp\ccAmOMRv.s 			page 178


 3890 2a6a 4F4CDF62 		.ascii	"OL\337bN\352hO\342cV\341cS\340kO\346yS\317}M>\0352}"
 3890      4EEA684F 
 3890      E26356E1 
 3890      6353E06B 
 3890      4FE67953 
 3891 2a85 3137A157 		.ascii	"17\241WH\327\177J\350\216T\360\223T\362\233M\364\244"
 3891      48D77F4A 
 3891      E88E54F0 
 3891      9354F29B 
 3891      4DF4A4
 3892 2a98 4CF3AA4B 		.ascii	"L\363\252K\360\257K\356\262F\361\267E\356\271C\347\260"
 3892      F0AF4BEE 
 3892      B246F1B7 
 3892      45EEB943 
 3892      E7B0
 3893 2aaa 4AE4B052 		.ascii	"J\344\260R\332\250T\330\244Q\335\252I\343\256C\357\301"
 3893      DAA854D8 
 3893      A451DDAA 
 3893      49E3AE43 
 3893      EFC1
 3894 2abc 3FFDDD36 		.ascii	"?\375\3356\335\3046\330\262E\374\331@\374\334<\374\346"
 3894      DDC436D8 
 3894      B245FCD9 
 3894      40FCDC3C 
 3894      FCE6
 3895 2ace 2BFCDE2F 		.ascii	"+\374\336/\373\3308\373\330:\365\324P\364\333q\361\305"
 3895      FBD838FB 
 3895      D83AF5D4 
 3895      50F4DB71 
 3895      F1C5
 3896 2ae0 86947DA4 		.ascii	"\206\224}\244Lu\255\253]\015\254Y\001\253[\006\253["
 3896      4C75ADAB 
 3896      5D0DAC59 
 3896      01AB5B06 
 3896      AB5B
 3897 2af2 06AB5A06 		.ascii	"\006\253Z\006\252Z\005\252X\003\250X\004\247X\003\250"
 3897      AA5A05AA 
 3897      5803A858 
 3897      04A75803 
 3897      A8
 3898 2b03 5803A858 		.ascii	"X\003\250X\003\252Z\005\253Z\005\252Y\004\252Z\005\252"
 3898      03AA5A05 
 3898      AB5A05AA 
 3898      5904AA5A 
 3898      05AA
 3899 2b15 5A05AA5A 		.ascii	"Z\005\252Z\005\252Z\005\252Z\005\252Z\005\252Z\005\252"
 3899      05AA5A05 
 3899      AA5A05AA 
 3899      5A05AA5A 
 3899      05AA
 3900 2b27 5A05AA5C 		.ascii	"Z\005\252\\\006\251\\\006\253]\006\254_\007\253l1\254"
 3900      06A95C06 
 3900      AB5D06AC 
 3900      5F07AB6C 
 3900      31AC
 3901 2b39 6822AF61 		.ascii	"h\"\257a\007\263r0\261o$\264l\023\261q\031\264q\037"
 3901      07B37230 
ARM GAS  C:\Users\pbant\AppData\Local\Temp\ccAmOMRv.s 			page 179


 3901      B16F24B4 
 3901      6C13B171 
 3901      19B4711F 
 3902 2b4d B4721DB4 		.ascii	"\264r\035\264v4\265u,\303\225d\270\202W\247\\\020\247"
 3902      7634B575 
 3902      2CC39564 
 3902      B88257A7 
 3902      5C10A7
 3903 2b60 5F12A860 		.ascii	"_\022\250`\023\251c\026\253h\032\256k \261n#\257p!\256"
 3903      13A96316 
 3903      AB681AAE 
 3903      6B20B16E 
 3903      23AF7021 
 3904 2b75 6D22B16D 		.ascii	"m\"\261m\037\272q\034\260k\034\231b\"cG5\006\015>C'"
 3904      1FBA711C 
 3904      B06B1C99 
 3904      62226347 
 3904      35060D3E 
 3905 2b8b 3C8F2F44 		.ascii	"<\217/D\300=N\325SN\342aW\333\\X\321SO\320YL\332vM\336"
 3905      C03D4ED5 
 3905      534EE261 
 3905      57DB5C58 
 3905      D1534FD0 
 3906 2ba5 854BE284 		.ascii	"\205K\342\204M\335~Mo26\313h5\254ZI\263]P\317yX\340"
 3906      4DDD7E4D 
 3906      6F3236CB 
 3906      6835AC5A 
 3906      49B35D50 
 3907 2bbd 875CEB8F 		.ascii	"\207\\\353\217T\362\232N\371\253K\371\267@\367\265>"
 3907      54F29A4E 
 3907      F9AB4BF9 
 3907      B740F7B5 
 3907      3E
 3908 2bce F4B23CF8 		.ascii	"\364\262<\370\274:\371\300:\367\277>\364\304D\361\311"
 3908      BC3AF9C0 
 3908      3AF7BF3E 
 3908      F4C444F1 
 3908      C9
 3909 2bdf 43ECC63E 		.ascii	"C\354\306>\342\267<\332\247A\343\254E\337\275<\275\232"
 3909      E2B73CDA 
 3909      A741E3AC 
 3909      45DFBD3C 
 3909      BD9A
 3910 2bf1 47ECC33F 		.ascii	"G\354\303?\370\317C\372\335>\373\342+\372\3274\371\322"
 3910      F8CF43FA 
 3910      DD3EFBE2 
 3910      2BFAD734 
 3910      F9D2
 3911 2c03 3DF3D14D 		.ascii	"=\363\321M\362\327i\360\314~\312\231\221Ft\302\211n"
 3911      F2D769F0 
 3911      CC7ECA99 
 3911      914674C2 
 3911      896E
 3912 2c15 52B05600 		.ascii	"R\260V\000\251[\003\252Z\004\252Z\005\250[\006\247Z"
 3912      A95B03AA 
 3912      5A04AA5A 
 3912      05A85B06 
ARM GAS  C:\Users\pbant\AppData\Local\Temp\ccAmOMRv.s 			page 180


 3912      A75A
 3913 2c27 06AD5905 		.ascii	"\006\255Y\005\251Y\005\251Y\004\251Y\004\251Y\004\252"
 3913      A95905A9 
 3913      5904A959 
 3913      04A95904 
 3913      AA
 3914 2c38 5A05AA5A 		.ascii	"Z\005\252Z\005\253[\006\253[\006\252Z\005\252Z\005\252"
 3914      05AB5B06 
 3914      AB5B06AA 
 3914      5A05AA5A 
 3914      05AA
 3915 2c4a 5904AA59 		.ascii	"Y\004\252Y\004\251Y\005\251\\\006\252`\012\251[\006"
 3915      04A95905 
 3915      A95C06AA 
 3915      600AA95B 
 3915      06
 3916 2c5b AB5B07AD 		.ascii	"\253[\007\255]\006\257f\023\261{T\255h\035\257e\014"
 3916      5D06AF66 
 3916      13B17B54 
 3916      AD681DAF 
 3916      650C
 3917 2c6d B5793BB6 		.ascii	"\265y;\266s \263o\027\264r \271w%\267{9\264t*\301\223"
 3917      7320B36F 
 3917      17B47220 
 3917      B97725B7 
 3917      7B39B474 
 3918 2c84 64C18D58 		.ascii	"d\301\215X\247\\\021\250_\022\251b\023\251c\026\253"
 3918      A75C11A8 
 3918      5F12A962 
 3918      13A96316 
 3918      AB
 3919 2c95 681AAF6C 		.ascii	"h\032\257l!\261o$\260p\"\257m\"\257k\037\255j\034\254"
 3919      21B16F24 
 3919      B07022AF 
 3919      6D22AF6B 
 3919      1FAD6A1C 
 3920 2caa 6818B268 		.ascii	"h\030\262h\025\270n\017V:)\000\007;(\021A\204-N\306"
 3920      15B86E0F 
 3920      563A2900 
 3920      073B2811 
 3920      41842D4E 
 3921 2cbf 4858D851 		.ascii	"HX\330QT\311HS\320fS\344\211C\343\211F\332mK\334cJ\351"
 3921      54C94853 
 3921      D06653E4 
 3921      8943E389 
 3921      46DA6D4B 
 3922 2cd7 834A8F57 		.ascii	"\203J\217WG\247N9\352\201J\330rS\320nS\327yW\341\202"
 3922      47A74E39 
 3922      EA814AD8 
 3922      7253D06E 
 3922      53D77957 
 3923 2ced 53E5854F 		.ascii	"S\345\205O\360\220P\362\232D\365\243?\372\2648\372\272"
 3923      F09050F2 
 3923      9A44F5A3 
 3923      3FFAB438 
 3923      FABA
 3924 2cff 33F8B833 		.ascii	"3\370\2703\367\266:\367\277?\373\315<\374\3225\373\323"
ARM GAS  C:\Users\pbant\AppData\Local\Temp\ccAmOMRv.s 			page 181


 3924      F7B63AF7 
 3924      BF3FFBCD 
 3924      3CFCD235 
 3924      FBD3
 3925 2d11 34F5CA35 		.ascii	"4\365\3125\363\3107\360\3117\323\252<\314\246<\353\270"
 3925      F3C837F0 
 3925      C937D3AA 
 3925      3CCCA63C 
 3925      EBB8
 3926 2d23 44F4C93E 		.ascii	"D\364\311>\371\3248\370\3313\366\315?\365\324P\364\317"
 3926      F9D438F8 
 3926      D933F6CD 
 3926      3FF5D450 
 3926      F4CF
 3927 2d35 5DF0CB72 		.ascii	"]\360\313r\346\263\213wx\256Xu\233\260[\005\244\\\016"
 3927      E6B38B77 
 3927      78AE5875 
 3927      9BB05B05 
 3927      A45C0E
 3928 2d48 A95B06AF 		.ascii	"\251[\006\257[\002\227T\022wK0\233X\026\254Z\002\251"
 3928      5B029754 
 3928      12774B30 
 3928      9B5816AC 
 3928      5A02A9
 3929 2d5b 5904A959 		.ascii	"Y\004\251Y\004\251Y\004\252Z\005\253\\\007\254\\\007"
 3929      04A95904 
 3929      AA5A05AB 
 3929      5C07AC5C 
 3929      07
 3930 2d6c AC5C07AB 		.ascii	"\254\\\007\253[\006\253[\006\252[\005\252[\006\251Y"
 3930      5B06AB5B 
 3930      06AA5B05 
 3930      AA5B06A9 
 3930      59
 3931 2d7d 02AD6315 		.ascii	"\002\255c\025\252d\027\252Y\003\254[\007\255]\011\252"
 3931      AA6417AA 
 3931      5903AC5B 
 3931      07AD5D09 
 3931      AA
 3932 2d8e 5D03AF6A 		.ascii	"]\003\257j\034\263\177b\257k\025\262m\026\267{@\264"
 3932      1CB37F62 
 3932      AF6B15B2 
 3932      6D16B77B 
 3932      40B4
 3933 2da0 7421B572 		.ascii	"t!\265r\035\267u#\267\177C\266|=\277\207L\306\232y\250"
 3933      1DB77523 
 3933      B77F43B6 
 3933      7C3DBF87 
 3933      4CC69A79 
 3934 2db5 5E10A95F 		.ascii	"^\020\251_\021\253a\023\252d\025\252h\031\255k\035\260"
 3934      11AB6113 
 3934      AA6415AA 
 3934      6819AD6B 
 3934      1DB0
 3935 2dc7 6F21AF6F 		.ascii	"o!\257o#\257m!\254k\034\254h\031\252e\024\252c\020\255"
 3935      23AF6D21 
 3935      AC6B1CAC 
ARM GAS  C:\Users\pbant\AppData\Local\Temp\ccAmOMRv.s 			page 182


 3935      6819AA65 
 3935      14AA6310 
 3936 2ddc 620CAD62 		.ascii	"b\014\255b\014d?\036\032\034A+\031O\232.L\316MR\336"
 3936      0C643F1E 
 3936      1A1C412B 
 3936      194F9A2E 
 3936      4CCE4D52 
 3937 2df1 6F4CE790 		.ascii	"oL\347\220G\334zD\322ZB\330dG\334yF\357\220K\307\204"
 3937      47DC7A44 
 3937      D25A42D8 
 3937      6447DC79 
 3937      46EF904B 
 3938 2e07 5770344B 		.ascii	"Wp4K\317RG\353sN\353zN\346{N\345xN\344zK\353\205I\357"
 3938      CF5247EB 
 3938      734EEB7A 
 3938      4EE67B4E 
 3938      E5784EE4 
 3939 2e21 8E45F296 		.ascii	"\216E\362\226@\370\2603\372\2701\371\2701\372\2717\366"
 3939      40F8B033 
 3939      FAB831F9 
 3939      B831FAB9 
 3939      37F6
 3940 2e33 B83DF8BE 		.ascii	"\270=\370\276;\371\3073\374\3123\371\3100\367\3016\373"
 3940      3BF9C733 
 3940      FCCA33F9 
 3940      C830F7C1 
 3940      36FB
 3941 2e45 C736FFD8 		.ascii	"\3076\377\3305\324\2609\305\223I\352\260Q\370\316E\366"
 3941      35D4B039 
 3941      C59349EA 
 3941      B051F8CE 
 3941      45F6
 3942 2e57 D53CF9D0 		.ascii	"\325<\371\320:\365\313U\360\312a\354\303c\347\273\207"
 3942      3AF5CB55 
 3942      F0CA61EC 
 3942      C363E7BB 
 3942      87
 3943 2e68 AE8B9D3D 		.ascii	"\256\213\235=n\274\224d9\200K'f=(\243Z\015\255[\002"
 3943      6EBC9464 
 3943      39804B27 
 3943      663D28A3 
 3943      5A0DAD5B 
 3944 2e7d 9D5B1791 		.ascii	"\235[\027\221V\037\256[\002\252Z\004\252Z\005\253[\006"
 3944      561FAE5B 
 3944      02AA5A04 
 3944      AA5A05AB 
 3944      5B06
 3945 2e8f AB5C07AB 		.ascii	"\253\\\007\253^\007\253^\007\253^\010\253]\007\254]"
 3945      5E07AB5E 
 3945      07AB5E08 
 3945      AB5D07AC 
 3945      5D
 3946 2ea0 07AB5D07 		.ascii	"\007\253]\007\253]\007\254[\002\254b\024\256o/\253["
 3946      AB5D07AC 
 3946      5B02AC62 
 3946      14AE6F2F 
 3946      AB5B
ARM GAS  C:\Users\pbant\AppData\Local\Temp\ccAmOMRv.s 			page 183


 3947 2eb2 03AC5C06 		.ascii	"\003\254\\\006\256^\010\255`\012\257`\002\257vE\265"
 3947      AE5E08AD 
 3947      600AAF60 
 3947      02AF7645 
 3947      B5
 3948 2ec3 825FB36C 		.ascii	"\202_\263l\013\264t(\267\202G\264q\032\274\201:\274"
 3948      0BB47428 
 3948      B78247B4 
 3948      711ABC81 
 3948      3ABC
 3949 2ed5 8A61BA86 		.ascii	"\212a\272\206X\273\206@\306\233{"
 3949      58BB8640 
 3949      C69B7B
 3950 2ee0 A85E10A9 		.ascii	"\250^\020\251_\021\254a\023\253b\024\253f\027\255i\033"
 3950      5F11AC61 
 3950      13AB6214 
 3950      AB6617AD 
 3950      691B
 3951 2ef2 AF6B1EAE 		.ascii	"\257k\036\256l!\256j\036\253g\030\253d\025\250`\021"
 3951      6C21AE6A 
 3951      1EAB6718 
 3951      AB6415A8 
 3951      6011
 3952 2f04 A85D0CA8 		.ascii	"\250]\014\250Z\012\250Y\010\261[\003\227X\026#1Ro#I"
 3952      5A0AA859 
 3952      08B15B03 
 3952      97581623 
 3952      31526F23 
 3953 2f19 D56043E4 		.ascii	"\325`C\344\211>\323d?\310LC\332bE\346uF\354xI\372\210"
 3953      893ED364 
 3953      3FC84C43 
 3953      DA6245E6 
 3953      7546EC78 
 3954 2f30 4ECB8553 		.ascii	"N\313\205SY-E\321j<\345\206H\352\215G\342\207R\337\210"
 3954      592D45D1 
 3954      6A3CE586 
 3954      48EA8D47 
 3954      E28752DF 
 3955 2f45 4EE29145 		.ascii	"N\342\221E\354\244B\362\2577\361\2536\363\2641\365\271"
 3955      ECA442F2 
 3955      AF37F1AB 
 3955      36F3B431 
 3955      F5B9
 3956 2f57 2CF6BB2B 		.ascii	",\366\273+\366\2700\364\2675\370\2758\370\276;\370\274"
 3956      F6B830F4 
 3956      B735F8BD 
 3956      38F8BE3B 
 3956      F8BC
 3957 2f69 36F9BB2F 		.ascii	"6\371\273/\370\2714\372\3012\372\3107\372\326:\316\252"
 3957      F8B934FA 
 3957      C132FAC8 
 3957      37FAD63A 
 3957      CEAA
 3958 2f7b 44BD8563 		.ascii	"D\275\205c\357\262]\366\315K\364\317=\364\311F\354\304"
 3958      EFB25DF6 
 3958      CD4BF4CF 
 3958      3DF4C946 
ARM GAS  C:\Users\pbant\AppData\Local\Temp\ccAmOMRv.s 			page 184


 3958      ECC4
 3959 2f8d 69E9C270 		.ascii	"i\351\302p\351\265v\324\231\217Jj\267`cl\267[\000\211"
 3959      E9B576D4 
 3959      998F4A6A 
 3959      B760636C 
 3959      B75B0089 
 3960 2fa1 501E8C52 		.ascii	"P\036\214R\036\260\\\001\251^\020\247^\025\254\\\003"
 3960      1EB05C01 
 3960      A95E10A7 
 3960      5E15AC5C 
 3960      03
 3961 2fb2 AB5C05AB 		.ascii	"\253\\\005\253\\\007\254\\\010\253^\007\253_\010\254"
 3961      5C07AC5C 
 3961      08AB5E07 
 3961      AB5F08AC 
 3962 2fc2 5F08AD60 		.ascii	"_\010\255`\010\254`\011\254`\011\253_\010\253_\007\255"
 3962      08AC6009 
 3962      AC6009AB 
 3962      5F08AB5F 
 3962      07AD
 3963 2fd4 5E05AC5C 		.ascii	"^\005\254\\\007\261uA\255d\027\254[\003\256_\011\255"
 3963      07B17541 
 3963      AD6417AC 
 3963      5B03AE5F 
 3963      09AD
 3964 2fe6 6109B063 		.ascii	"a\011\260c\013\257h\025\261\177f\261\177K\265p\023\266"
 3964      0BAF6815 
 3964      B17F66B1 
 3964      7F4BB570 
 3964      13B6
 3965 2ff8 7B38BC88 		.ascii	"{8\274\210Q\301\216V\303\227w\300\226}\301\223d\306"
 3965      51C18E56 
 3965      C39777C0 
 3965      967DC193 
 3965      64C6
 3966 300a 996EA75D 		.ascii	"\231n\247]\017\247^\020\251_\021\253a\022\255d\024\253"
 3966      0FA75E10 
 3966      A95F11AB 
 3966      6112AD64 
 3966      14AB
 3967 301c 6616AE68 		.ascii	"f\026\256h\032\254i\032\253f\027\251b\022\247^\016\245"
 3967      1AAC691A 
 3967      AB6617A9 
 3967      6212A75E 
 3967      0EA5
 3968 302e 5909A556 		.ascii	"Y\011\245V\007\246S\005\245R\004\243R\005\260W\000t"
 3968      07A65305 
 3968      A55204A3 
 3968      5205B057 
 3968      0074
 3969 3040 441C120F 		.ascii	"D\034\022\017@\232?8\322T>\330TD\343fL\352jH\361iD\364"
 3969      409A3F38 
 3969      D2543ED8 
 3969      5444E366 
 3969      4CEA6A48 
 3970 3058 6D47FD81 		.ascii	"mG\375\201G\253Y;\240U$\351\221.\333y@\334|H\342\222"
 3970      47AB593B 
ARM GAS  C:\Users\pbant\AppData\Local\Temp\ccAmOMRv.s 			page 185


 3970      A05524E9 
 3970      912EDB79 
 3970      40DC7C48 
 3971 306e 4DE49E45 		.ascii	"M\344\236E\354\2528\360\261;\357\2639\356\2600\354\260"
 3971      ECAA38F0 
 3971      B13BEFB3 
 3971      39EEB030 
 3971      ECB0
 3972 3080 32EEB133 		.ascii	"2\356\2613\351\2623\354\2634\356\264:\360\267:\365\277"
 3972      E9B233EC 
 3972      B334EEB4 
 3972      3AF0B73A 
 3972      F5BF
 3973 3092 34F9C030 		.ascii	"4\371\3000\366\273.\370\300/\370\272-\372\301-\370\307"
 3973      F6BB2EF8 
 3973      C02FF8BA 
 3973      2DFAC12D 
 3973      F8C7
 3974 30a4 30F9D339 		.ascii	"0\371\3239\301\234E\266yc\355\271]\362\316O\362\313"
 3974      C19C45B6 
 3974      7963EDB9 
 3974      5DF2CE4F 
 3974      F2CB
 3975 30b6 4AEFC25B 		.ascii	"J\357\302[\354\275j\344\254j\332\227}rd\225/]\234\252"
 3975      ECBD6AE4 
 3975      AC6ADA97 
 3975      7D726495 
 3975      2F5D9CAA 
 3976 30ca 5E10A75B 		.ascii	"^\020\247[\012\226X\036\257^\001\251`\025\251`\021\253"
 3976      0A96581E 
 3976      AF5E01A9 
 3976      6015A960 
 3976      11AB
 3977 30dc 5D04AB5E 		.ascii	"]\004\253^\007\253^\005\254]\006\252^\007\255_\011\254"
 3977      07AB5E05 
 3977      AC5D06AA 
 3977      5E07AD5F 
 3977      09AC
 3978 30ee 6007AE62 		.ascii	"`\007\256b\010\256b\011\256c\011\256c\011\255b\012\255"
 3978      08AE6209 
 3978      AE6309AE 
 3978      6309AD62 
 3978      0AAD
 3979 3100 6108AF64 		.ascii	"a\010\257d\011\265yK\264yM\253_\001\254b\011\255d\013"
 3979      09B5794B 
 3979      B4794DAB 
 3979      5F01AC62 
 3979      09AD640B 
 3980 3114 B0660DB2 		.ascii	"\260f\015\262o\025\266\177T\256\200t\257y<\266r\031"
 3980      6F15B67F 
 3980      54AE8074 
 3980      AF793CB6 
 3980      7219
 3981 3126 C09573C1 		.ascii	"\300\225s\301\224i\300\221h\303\241\226\314\247\212"
 3981      9469C091 
 3981      68C3A196 
 3981      CCA78A
ARM GAS  C:\Users\pbant\AppData\Local\Temp\ccAmOMRv.s 			page 186


 3982 3135 CDA583A6 		.ascii	"\315\245\203\246\\\016\246[\015\247]\017\250_\017\252"
 3982      5C0EA65B 
 3982      0DA75D0F 
 3982      A85F0FAA 
 3983 3145 6111A961 		.ascii	"a\021\251a\022\252a\024\253b\024\251_\021\246[\014\244"
 3983      12AA6114 
 3983      AB6214A9 
 3983      5F11A65B 
 3983      0CA4
 3984 3157 5708A455 		.ascii	"W\010\244U\006\245S\005\243Q\003\242P\002\242P\002\246"
 3984      06A55305 
 3984      A35103A2 
 3984      5002A250 
 3984      02A6
 3985 3169 53039D52 		.ascii	"S\003\235R\010\031\0262R\024?\253;I\320WJ\343^P\353"
 3985      08191632 
 3985      52143FAB 
 3985      3B49D057 
 3985      4AE35E50 
 3986 317e 604EEA5C 		.ascii	"`N\352\\A\351^>\373\204F\204X2}1\037\321i)\330\2021"
 3986      41E95E3E 
 3986      FB844684 
 3986      58327D31 
 3986      1FD16929 
 3987 3195 EBA03CF2 		.ascii	"\353\240<\362\260?\353\246=\345\247>\353\253C\354\252"
 3987      B03FEBA6 
 3987      3DE5A73E 
 3987      EBAB43EC 
 3987      AA
 3988 31a6 40ECAF3E 		.ascii	"@\354\257>\352\257>\351\2619\354\2666\356\2757\356\272"
 3988      EAAF3EE9 
 3988      B139ECB6 
 3988      36EEBD37 
 3988      EEBA
 3989 31b8 36EEB736 		.ascii	"6\356\2676\361\2733\364\3015\365\307'\374\317$\373\315"
 3989      F1BB33F4 
 3989      C135F5C7 
 3989      27FCCF24 
 3989      FBCD
 3990 31ca 24FCCA24 		.ascii	"$\374\312$\373\306*\374\310/\371\3239\264\216M\254o"
 3990      FBC62AFC 
 3990      C82FF9D3 
 3990      39B48E4D 
 3990      AC6F
 3991 31dc 64ECB75A 		.ascii	"d\354\267Z\360\313U\356\303W\353\261`\346\251m\337\231"
 3991      F0CB55EE 
 3991      C357EBB1 
 3991      60E6A96D 
 3991      DF99
 3992 31ee 759D6982 		.ascii	"u\235i\202!W\247\203cF\261\\\000\234] \256^\004\245"
 3992      2157A783 
 3992      6346B15C 
 3992      009C5D20 
 3992      AE5E04A5 
 3993 3202 5F14A95F 		.ascii	"_\024\251_\015\254_\006\254_\007\256e\022\254c\014\254"
 3993      0DAC5F06 
 3993      AC5F07AE 
ARM GAS  C:\Users\pbant\AppData\Local\Temp\ccAmOMRv.s 			page 187


 3993      6512AC63 
 3993      0CAC
 3994 3214 6005AD62 		.ascii	"`\005\255b\010\256b\010\257c\011\260d\012\261e\013\260"
 3994      08AE6208 
 3994      AF6309B0 
 3994      640AB165 
 3994      0BB0
 3995 3226 660CAF66 		.ascii	"f\014\257f\017\257f\014\257e\006\262t0\273\215\203\260"
 3995      0FAF660C 
 3995      AF6506B2 
 3995      7430BB8D 
 3995      83B0
 3996 3238 6F1EAF63 		.ascii	"o\036\257c\004\256d\010\261k\030\264v&\275\206M\270"
 3996      04AE6408 
 3996      B16B18B4 
 3996      7626BD86 
 3996      4DB8
 3997 324a 8A7AB381 		.ascii	"\212z\263\201]\273\212U\276\211O\304\236\207\310\237"
 3997      5DBB8A55 
 3997      BE894FC4 
 3997      9E87C89F 
 3998 325a 80C29F96 		.ascii	"\200\302\237\226\320\255\240\317\251\221\247\\\017\246"
 3998      D0ADA0CF 
 3998      A991A75C 
 3998      0FA6
 3999 3268 5B0DA65B 		.ascii	"[\015\246[\015\246[\014\246]\015\246_\016\247_\017\246"
 3999      0DA65B0C 
 3999      A65D0DA6 
 3999      5F0EA75F 
 3999      0FA6
 4000 327a 5E0DA559 		.ascii	"^\015\245Y\013\245U\010\244S\006\244S\005\243R\004\242"
 4000      0BA55508 
 4000      A45306A4 
 4000      5305A352 
 4000      04A2
 4001 328c 5002A250 		.ascii	"P\002\242P\002\242P\002\243Q\003\252V\002Q1$H\031F\215"
 4001      02A25002 
 4001      A35103AA 
 4001      56025131 
 4001      24481946 
 4002 32a1 2C49CB42 		.ascii	",I\313BP\353HI\343SJ\332YJ\360}F\377\260;\220v%1\012"
 4002      50EB4849 
 4002      E3534ADA 
 4002      594AF07D 
 4002      46FFB03B 
 4003 32ba 18CA6921 		.ascii	"\030\312i!\353\217*\352\2238\360\231F\354\231I\351\236"
 4003      EB8F2AEA 
 4003      9338F099 
 4003      46EC9949 
 4003      E99E
 4004 32cc 49EBA546 		.ascii	"I\353\245F\352\254A\344\252E\341\251A\344\253<\345\257"
 4004      EAAC41E4 
 4004      AA45E1A9 
 4004      41E4AB3C 
 4004      E5AF
 4005 32de 3BE9B53A 		.ascii	";\351\265:\346\2634\352\2654\353\2608\350\2605\350\255"
 4005      E6B334EA 
ARM GAS  C:\Users\pbant\AppData\Local\Temp\ccAmOMRv.s 			page 188


 4005      B534EBB0 
 4005      38E8B035 
 4005      E8AD
 4006 32f0 2EEDB729 		.ascii	".\355\267)\362\301%\372\315#\374\321'\374\320)\375\321"
 4006      F2C125FA 
 4006      CD23FCD1 
 4006      27FCD029 
 4006      FDD1
 4007 3302 2FF8D83D 		.ascii	"/\370\330=\254\203S\261j^\346\260Z\360\304b\352\263"
 4007      AC8353B1 
 4007      6A5EE6B0 
 4007      5AF0C462 
 4007      EAB3
 4008 3314 58E8A76D 		.ascii	"X\350\247m\344\233k\270qz4Q\234Mc\201\266_\000\236]"
 4008      E49B6BB8 
 4008      717A3451 
 4008      9C4D6381 
 4008      B65F009E 
 4009 3329 1BA95E0D 		.ascii	"\033\251^\015\246`\022\253`\011\255`\011\255a\010\254"
 4009      A66012AB 
 4009      6009AD60 
 4009      09AD6108 
 4009      AC
 4010 333a 630CAF6C 		.ascii	"c\014\257l\036\255c\012\256b\010\256f\012\257e\013\257"
 4010      1EAD630A 
 4010      AE6208AE 
 4010      660AAF65 
 4010      0BAF
 4011 334c 670CB069 		.ascii	"g\014\260i\015\261i\020\262j\022\262l\022\261j\017\260"
 4011      0DB16910 
 4011      B26A12B2 
 4011      6C12B16A 
 4011      0FB0
 4012 335e 680BBC8D 		.ascii	"h\013\274\215p\277\222w\264t \265q\034\273\200<\273"
 4012      70BF9277 
 4012      B47420B5 
 4012      711CBB80 
 4012      3CBB
 4013 3370 864DBC86 		.ascii	"\206M\274\206D\275\217o\267\216~\301\223o\301\226n\310"
 4013      44BD8F6F 
 4013      B78E7EC1 
 4013      936FC196 
 4013      6EC8
 4014 3382 A489CFB2 		.ascii	"\244\211\317\262\250\305\244\236\320\256\250\322\254"
 4014      A8C5A49E 
 4014      D0AEA8D2 
 4014      AC
 4015 338f 9DA85D10 		.ascii	"\235\250]\020\246[\015\245Z\013\245Y\012\245Y\011\246"
 4015      A65B0DA5 
 4015      5A0BA559 
 4015      0AA55909 
 4015      A6
 4016 33a0 5B0BA75C 		.ascii	"[\013\247\\\014\245Y\011\244U\010\243S\006\242R\004"
 4016      0CA55909 
 4016      A45508A3 
 4016      5306A252 
 4016      04
ARM GAS  C:\Users\pbant\AppData\Local\Temp\ccAmOMRv.s 			page 189


 4017 33b1 A35103A2 		.ascii	"\243Q\003\242P\003\242P\002\242P\002\242P\001\243Q\002"
 4017      5003A250 
 4017      02A25002 
 4017      A25001A3 
 4017      5102
 4018 33c3 A75401A5 		.ascii	"\247T\001\245V\003[<3d)U\256,J\330RH\317RF\342pF\362"
 4018      56035B3C 
 4018      33642955 
 4018      AE2C4AD8 
 4018      5248CF52 
 4019 33dc 9E35FBB6 		.ascii	"\2365\373\266/\322\221'X\036\027\232>\031\266Z+\325"
 4019      2FD29127 
 4019      581E179A 
 4019      3E19B65A 
 4019      2BD5
 4020 33ee 7335E685 		.ascii	"s5\346\205M\354\217N\357\222O\360\233J\365\257A\364"
 4020      4DEC8F4E 
 4020      EF924FF0 
 4020      9B4AF5AF 
 4020      41F4
 4021 3400 B744ECB2 		.ascii	"\267D\354\262B\354\263>\356\2677\363\3000\365\304(\364"
 4021      42ECB33E 
 4021      EEB737F3 
 4021      C030F5C4 
 4021      28F4
 4022 3412 C827F6CC 		.ascii	"\310'\366\314*\367\315'\363\307+\356\300,\351\255/\343"
 4022      2AF7CD27 
 4022      F3C72BEE 
 4022      C02CE9AD 
 4022      2FE3
 4023 3424 A42DE1A9 		.ascii	"\244-\341\2510\343\2604\353\2736\366\314=\361\320G\251"
 4023      30E3B034 
 4023      EBBB36F6 
 4023      CC3DF1D0 
 4023      47A9
 4024 3436 8362B275 		.ascii	"\203b\262u`\340\251c\350\254W\343\230a\342\230c\305"
 4024      60E0A963 
 4024      E8AC57E3 
 4024      9861E298 
 4024      63C5
 4025 3448 76704F53 		.ascii	"vpOS\216![\244\240c\037\251_\016\243b\031\250c\022\256"
 4025      8E215BA4 
 4025      A0631FA9 
 4025      5F0EA362 
 4025      19A86312 
 4026 345d 630AAF63 		.ascii	"c\012\257c\010\257d\010\255b\006\257f\020\255n'\256"
 4026      08AF6408 
 4026      AD6206AF 
 4026      6610AD6E 
 4026      27AE
 4027 346f 660AAF66 		.ascii	"f\012\257f\012\260h\013\260i\015\264l\022\264n\025\265"
 4027      0AB0680B 
 4027      B0690DB4 
 4027      6C12B46E 
 4027      15B5
 4028 3481 7017B470 		.ascii	"p\027\264p\030\263p\030\264p\025\267{6\303\231\236\303"
 4028      18B37018 
ARM GAS  C:\Users\pbant\AppData\Local\Temp\ccAmOMRv.s 			page 190


 4028      B47015B7 
 4028      7B36C399 
 4028      9EC3
 4029 3493 9579BB84 		.ascii	"\225y\273\204=\301\216V\306\233\177\303\224j\300\214"
 4029      3DC18E56 
 4029      C69B7FC3 
 4029      946AC08C 
 4030 34a3 51BA9597 		.ascii	"Q\272\225\227\307\244\227\311\246\224\316\255\244\324"
 4030      C7A497C9 
 4030      A694CEAD 
 4030      A4D4
 4031 34b1 B7AFD0B6 		.ascii	"\267\257\320\266\265\317\261\261\323\262\252\251^\022"
 4031      B5CFB1B1 
 4031      D3B2AAA9 
 4031      5E12
 4032 34bf A75C0EA6 		.ascii	"\247\\\016\246Y\014\246Y\013\245Y\012\250[\013\247Z"
 4032      590CA659 
 4032      0BA5590A 
 4032      A85B0BA7 
 4032      5A
 4033 34d0 0BA6580B 		.ascii	"\013\246X\013\244U\011\244S\010\242R\005\243P\002\242"
 4033      A45509A4 
 4033      5308A252 
 4033      05A35002 
 4033      A2
 4034 34e1 5002A350 		.ascii	"P\002\243P\003\243Q\003\243R\001\243S\001\243T\001\251"
 4034      03A35103 
 4034      A35201A3 
 4034      5301A354 
 4034      01A9
 4035 34f3 5600AA5D 		.ascii	"V\000\252]\0139=Y\2078A\326ZF\327g<\365\2342\360\227"
 4035      0B393D59 
 4035      873841D6 
 4035      5A46D767 
 4035      3CF59C32 
 4036 3509 2FF1922C 		.ascii	"/\361\222,\371\2422\270n5\270I'\277Y,\262I2\302]C\315"
 4036      F9A232B8 
 4036      6E35B849 
 4036      27BF592C 
 4036      B24932C2 
 4037 3520 694AD277 		.ascii	"iJ\322wA\337\215B\354\231C\363\255?\371\3032\375\316"
 4037      41DF8D42 
 4037      EC9943F3 
 4037      AD3FF9C3 
 4037      32FDCE
 4038 3533 30FCD232 		.ascii	"0\374\3222\373\331)\372\326$\371\323'\372\324(\373\324"
 4038      FBD929FA 
 4038      D624F9D3 
 4038      27FAD428 
 4038      FBD4
 4039 3545 24FCD620 		.ascii	"$\374\326 \377\331!\374\320*\370\312)\364\302*\351\257"
 4039      FFD921FC 
 4039      D02AF8CA 
 4039      29F4C22A 
 4039      E9AF
 4040 3557 2DDDA037 		.ascii	"-\335\2407\324\230F\323\230E\311\232]\233y{\270xd\334"
 4040      D49846D3 
ARM GAS  C:\Users\pbant\AppData\Local\Temp\ccAmOMRv.s 			page 191


 4040      9845C99A 
 4040      5D9B797B 
 4040      B87864DC 
 4041 356b 9659DF98 		.ascii	"\226Y\337\230W\321\213^\305xhnV\201\023S\245vaM\264"
 4041      57D18B5E 
 4041      C578686E 
 4041      56811353 
 4041      A576614D 
 4042 3580 6100A060 		.ascii	"a\000\240`\034\247c\025\257f\016\257f\011\257e\011\257"
 4042      1CA76315 
 4042      AF660EAF 
 4042      6609AF65 
 4042      09AF
 4043 3592 6609AE64 		.ascii	"f\011\256d\007\256h\027\254k&\260g\011\262m\025\263"
 4043      07AE6817 
 4043      AC6B26B0 
 4043      6709B26D 
 4043      15B3
 4044 35a4 721FB370 		.ascii	"r\037\263p\024\263q\027\265s\034\267w%\270w$\267z*\275"
 4044      14B37117 
 4044      B5731CB7 
 4044      7725B877 
 4044      24B77A2A 
 4045 35b9 8549BD90 		.ascii	"\205I\275\220|\312\251\264\303\225o\303\220^\306\237"
 4045      7CCAA9B4 
 4045      C3956FC3 
 4045      905EC69F 
 4046 35c9 87CAA38F 		.ascii	"\207\312\243\217\307\231m\303\233\205\276\244\262\324"
 4046      C7996DC3 
 4046      9B85BEA4 
 4046      B2D4
 4047 35d7 B2A0D0B6 		.ascii	"\262\240\320\266\271\321\265\270\321\266\265\325\274"
 4047      B9D1B5B8 
 4047      D1B6B5D5 
 4047      BC
 4048 35e4 C3D9BFC4 		.ascii	"\303\331\277\304\252`\023\251^\020\250\\\017\250\\\015"
 4048      AA6013A9 
 4048      5E10A85C 
 4048      0FA85C0D 
 4049 35f4 A75C0DA8 		.ascii	"\247\\\015\250\\\015\247[\014\246X\013\246X\013\246"
 4049      5C0DA75B 
 4049      0CA6580B 
 4049      A6580BA6 
 4050 3604 570AA554 		.ascii	"W\012\245T\007\244R\004\245S\004\244R\003\244S\002\244"
 4050      07A45204 
 4050      A55304A4 
 4050      5203A453 
 4050      02A4
 4051 3616 5301A554 		.ascii	"S\001\245T\002\245U\002\245U\003\257Z\001c<2\232BC\312"
 4051      02A55502 
 4051      A55503AF 
 4051      5A01633C 
 4051      329A4243 
 4052 362b 6337F7A6 		.ascii	"c7\367\246'\362\214,\357\2102\362\2216\374\2435\331"
 4052      27F28C2C 
 4052      EF8832F2 
 4052      9136FCA3 
ARM GAS  C:\Users\pbant\AppData\Local\Temp\ccAmOMRv.s 			page 192


 4052      35D9
 4053 363d A23D7049 		.ascii	"\242=pIN\337e#\342j,\347y8\347\207G\334\202I\343\211"
 4053      4EDF6523 
 4053      E26A2CE7 
 4053      7938E787 
 4053      47DC8249 
 4054 3653 47EA9741 		.ascii	"G\352\227A\351\240<\356\260:\365\3021\373\324'\375\336"
 4054      E9A03CEE 
 4054      B03AF5C2 
 4054      31FBD427 
 4054      FDDE
 4055 3665 25FCDF23 		.ascii	"%\374\337#\374\341\"\374\344#\375\342#\375\336\037\374"
 4055      FCE122FC 
 4055      E423FDE2 
 4055      23FDDE1F 
 4055      FC
 4056 3676 DB23FBD9 		.ascii	"\333#\373\331'\371\322.\372\311-\370\303-\372\3010\366"
 4056      27F9D22E 
 4056      FAC92DF8 
 4056      C32DFAC1 
 4056      30F6
 4057 3688 B936EDAB 		.ascii	"\2716\355\253<\341\230B\310\212`\214ck\220Tf\310}Z\312"
 4057      3CE19842 
 4057      C88A608C 
 4057      636B9054 
 4057      66C87D5A 
 4058 369d 8558C77B 		.ascii	"\205X\307{`\203Tv\025L\233Rcz\267g\002\247b"
 4058      60835476 
 4058      154C9B52 
 4058      637AB767 
 4058      02A762
 4059 36b0 139C6122 		.ascii	"\023\234a\"\262h\013\262g\006\261i\014\257h\015\260"
 4059      B2680BB2 
 4059      6706B169 
 4059      0CAF680D 
 4059      B0
 4060 36c1 670CAE66 		.ascii	"g\014\256f\010\255i\035\257l'\265n\022\266{2\270\177"
 4060      08AD691D 
 4060      AF6C27B5 
 4060      6E12B67B 
 4060      32B87F
 4061 36d4 3FB67825 		.ascii	"?\266x%\267w!\273\2002\274\204E\300\216_\305\227l\301"
 4061      B77721BB 
 4061      8032BC84 
 4061      45C08E5F 
 4061      C5976CC1 
 4062 36e8 9363CBA6 		.ascii	"\223c\313\246\245\315\255\262\313\244\215\317\250\216"
 4062      A5CDADB2 
 4062      CBA48DCF 
 4062      A88E
 4063 36f6 CEACAAC6 		.ascii	"\316\254\252\306\240\205\315\244\204\310\253\266\315"
 4063      A085CDA4 
 4063      84C8ABB6 
 4063      CD
 4064 3703 AEB6D8BB 		.ascii	"\256\266\330\273\267\320\271\304\321\265\276\323\272"
 4064      B7D0B9C4 
 4064      D1B5BED3 
ARM GAS  C:\Users\pbant\AppData\Local\Temp\ccAmOMRv.s 			page 193


 4064      BA
 4065 3710 C2E0C9D0 		.ascii	"\302\340\311\320\251a\024\252_\022\252`\022\252a\021"
 4065      A96114AA 
 4065      5F12AA60 
 4065      12AA6111 
 4066 3720 AA6111AA 		.ascii	"\252a\021\252a\021\250`\020\250_\017\247[\014\246Y\012"
 4066      6111A860 
 4066      10A85F0F 
 4066      A75B0CA6 
 4066      590A
 4067 3732 A65709A4 		.ascii	"\246W\011\244U\006\246T\006\245T\003\244S\002\244U\001"
 4067      5506A654 
 4067      06A55403 
 4067      A45302A4 
 4067      5501
 4068 3744 A65603A6 		.ascii	"\246V\003\246V\003\247W\002\253[\000R-$p+<\347\210)"
 4068      5603A757 
 4068      02AB5B00 
 4068      522D2470 
 4068      2B3CE788 
 4069 3759 EE882CEE 		.ascii	"\356\210,\356\205?\357\205<\357\203:\357\2115\365\225"
 4069      853FEF85 
 4069      3CEF833A 
 4069      EF8935F5 
 4069      95
 4070 376a 32A15E31 		.ascii	"2\241^1\272`\034\355|\"\365\202+\365\2110\364\234A\361"
 4070      BA601CED 
 4070      7C22F582 
 4070      2BF58930 
 4070      F49C41F1 
 4071 377e 9840ED99 		.ascii	"\230@\355\231=\356\234=\364\2515\364\257-\366\273$\371"
 4071      3DEE9C3D 
 4071      F4A935F4 
 4071      AF2DF6BB 
 4071      24F9
 4072 3790 C524F9CD 		.ascii	"\305$\371\315#\374\327$\374\330\"\374\327\"\375\327"
 4072      23FCD724 
 4072      FCD822FC 
 4072      D722FDD7 
 4073 37a0 27FDD625 		.ascii	"'\375\326%\372\324#\374\323*\370\3121\372\311/\367\302"
 4073      FAD423FC 
 4073      D32AF8CA 
 4073      31FAC92F 
 4073      F7C2
 4074 37b2 34F3BC40 		.ascii	"4\363\274@\367\277>\365\255@\357\235H\303\203\\hIe\202"
 4074      F7BF3EF5 
 4074      AD40EF9D 
 4074      48C3835C 
 4074      68496582 
 4075 37c6 465FBB63 		.ascii	"F_\273cS\300s\\\226`r$O\2308c\230\257k\027\266l\012"
 4075      53C0735C 
 4075      96607224 
 4075      4F983863 
 4075      98AF6B17 
 4076 37dd 985D1CA6 		.ascii	"\230]\034\246u6\264\204?\264l\014\261j\016\261k\016"
 4076      7536B484 
 4076      3FB46C0C 
ARM GAS  C:\Users\pbant\AppData\Local\Temp\ccAmOMRv.s 			page 194


 4076      B16A0EB1 
 4076      6B0E
 4077 37ef B06A0EB1 		.ascii	"\260j\016\261j\012\256n(\261q*\266t\027\273\177<\273"
 4077      6A0AAE6E 
 4077      28B1712A 
 4077      B67417BB 
 4077      7F3CBB
 4078 3802 834EB980 		.ascii	"\203N\271\2007\275\205>\305\224g\306\230z\306\234{\305"
 4078      37BD853E 
 4078      C59467C6 
 4078      987AC69C 
 4078      7BC5
 4079 3814 9970CDA5 		.ascii	"\231p\315\245\213\317\262\271\323\267\273\320\254\225"
 4079      8BCFB2B9 
 4079      D3B7BBD0 
 4079      AC95
 4080 3822 D0ACA0CF 		.ascii	"\320\254\240\317\262\264\321\261\237\326\266\264\312"
 4080      B2B4D1B1 
 4080      9FD6B6B4 
 4080      CA
 4081 382f B1C3D7C1 		.ascii	"\261\303\327\301\305\335\306\310\327\303\320\322\273"
 4081      C5DDC6C8 
 4081      D7C3D0D2 
 4081      BB
 4082 383c CAD8C1CC 		.ascii	"\312\330\301\314\253b\025\252b\024\253d\025\253e\025"
 4082      AB6215AA 
 4082      6214AB64 
 4082      15AB6515 
 4083 384c AC6616AD 		.ascii	"\254f\026\255g\027\253f\026\253e\025\252a\021\246]\016"
 4083      6717AB66 
 4083      16AB6515 
 4083      AA6111A6 
 4083      5D0E
 4084 385e A65B0BA6 		.ascii	"\246[\013\246W\011\246U\007\246U\004\246V\004\246V\003"
 4084      5709A655 
 4084      07A65504 
 4084      A65604A6 
 4084      5603
 4085 3870 A75703A7 		.ascii	"\247W\003\247W\003\247W\004\255\\\003>'&\\%5\250UD\274"
 4085      5703A757 
 4085      04AD5C03 
 4085      3E27265C 
 4085      2535A855 
 4086 3886 5F3DCC67 		.ascii	"_=\314g@\325nH\332p:\343e3\356j2\323v-rA!\361\246\022"
 4086      40D56E48 
 4086      DA703AE3 
 4086      6533EE6A 
 4086      32D3762D 
 4087 38a0 F6AE18F2 		.ascii	"\366\256\030\362\261\037\362\2550\352\252?\355\255>"
 4087      B11FF2AD 
 4087      30EAAA3F 
 4087      EDAD3E
 4088 38af ECAE3FEA 		.ascii	"\354\256?\352\2618\353\2646\355\270-\361\301+\365\305"
 4088      B138EBB4 
 4088      36EDB82D 
 4088      F1C12BF5 
 4088      C5
ARM GAS  C:\Users\pbant\AppData\Local\Temp\ccAmOMRv.s 			page 195


 4089 38c0 25F7CD24 		.ascii	"%\367\315$\370\320!\374\326\035\373\330\036\374\331"
 4089      F8D021FC 
 4089      D61DFBD8 
 4089      1EFCD9
 4090 38cf 1FFAD129 		.ascii	"\037\372\321)\373\322,\371\316-\366\307.\363\3026\362"
 4090      FBD22CF9 
 4090      CE2DF6C7 
 4090      2EF3C236 
 4090      F2
 4091 38e0 BF42F0BD 		.ascii	"\277B\360\275F\363\267F\344\243O\340\232X\273zXdD\\"
 4091      46F3B746 
 4091      E4A34FE0 
 4091      9A58BB7A 
 4091      5864445C 
 4092 38f4 70365DB7 		.ascii	"p6]\267ba\257oo=X\232'b\254\231o5\273o\005\252m\036"
 4092      6261AF6F 
 4092      6F3D589A 
 4092      2762AC99 
 4092      6F35BB6F 
 4093 390c 827B797E 		.ascii	"\202{y~\221\240\253\216[\274p\011\270o\020\262n\022"
 4093      91A0AB8E 
 4093      5BBC7009 
 4093      B86F10B2 
 4093      6E12
 4094 391e B26F15B6 		.ascii	"\262o\025\266q\022\261v7\267\177E\275\206A\276\213V"
 4094      7112B176 
 4094      37B77F45 
 4094      BD8641BE 
 4094      8B56
 4095 3930 BF8C64C0 		.ascii	"\277\214d\300\217Y\311\235t\310\237}\306\240\215\315"
 4095      8F59C99D 
 4095      74C89F7D 
 4095      C6A08DCD 
 4096 3940 A795D4B2 		.ascii	"\247\225\324\262\241\323\263\244\323\272\300\325\275"
 4096      A1D3B3A4 
 4096      D3BAC0D5 
 4096      BD
 4097 394d C0D5B5A9 		.ascii	"\300\325\265\251\321\264\263\321\262\264\325\267\266"
 4097      D1B4B3D1 
 4097      B2B4D5B7 
 4097      B6
 4098 395a D0B9C4CD 		.ascii	"\320\271\304\315\267\307\335\304\312\336\313\323\325"
 4098      B7C7DDC4 
 4098      CADECBD3 
 4098      D5
 4099 3967 C2D5D7C0 		.ascii	"\302\325\327\300\324\253e\027\252f\027\252g\030\254"
 4099      D4AB6517 
 4099      AA6617AA 
 4099      6718AC
 4100 3976 691AAE6B 		.ascii	"i\032\256k\034\256k\034\254k\033\254h\032\254d\027\252"
 4100      1CAE6B1C 
 4100      AC6B1BAC 
 4100      681AAC64 
 4100      17AA
 4101 3988 6112A85E 		.ascii	"a\022\250^\015\246Z\011\247X\007\245W\005\247W\003\247"
 4101      0DA65A09 
 4101      A75807A5 
ARM GAS  C:\Users\pbant\AppData\Local\Temp\ccAmOMRv.s 			page 196


 4101      5705A757 
 4101      03A7
 4102 399a 5704A757 		.ascii	"W\004\247W\003\247W\002\250W\003\256\\\002^9\034k*9"
 4102      03A75702 
 4102      A85703AE 
 4102      5C025E39 
 4102      1C6B2A39 
 4103 39ae BF633EBC 		.ascii	"\277c>\274aF\310Y=\327^;\340^2\340e-\345z*\363\236\036"
 4103      6146C859 
 4103      3DD75E3B 
 4103      E05E32E0 
 4103      652DE57A 
 4104 39c6 AA7118D2 		.ascii	"\252q\030\322\213\013\377\305\004\365\270\025\364\275"
 4104      8B0BFFC5 
 4104      04F5B815 
 4104      F4BD
 4105 39d4 22F6C32F 		.ascii	"\"\366\303/\362\3057\357\274B\362\304>\361\304@\363"
 4105      F2C537EF 
 4105      BC42F2C4 
 4105      3EF1C440 
 4105      F3
 4106 39e5 C23CF4C0 		.ascii	"\302<\364\300<\366\3049\367\3145\370\3222\373\336'\376"
 4106      3CF6C439 
 4106      F7CC35F8 
 4106      D232FBDE 
 4106      27FE
 4107 39f7 E026FEE2 		.ascii	"\340&\376\342'\377\341+\375\3400\371\331,\365\3241\364"
 4107      27FFE12B 
 4107      FDE030F9 
 4107      D92CF5D4 
 4107      31F4
 4108 3a09 CA3CF3C5 		.ascii	"\312<\363\305C\361\302N\356\276O\353\262P\354\247L\333"
 4108      43F1C24E 
 4108      EEBE4FEB 
 4108      B250ECA7 
 4108      4CDB
 4109 3a1b 935BB676 		.ascii	"\223[\266vX^BTh<d\260hxK\\\230\034]\257\205nP\275n\003"
 4109      585E4254 
 4109      683C64B0 
 4109      68784B5C 
 4109      981C5DAF 
 4110 3a35 B8A77F83 		.ascii	"\270\247\177\203ty6\036\034s\217\240\230\202c\245e\021"
 4110      7479361E 
 4110      1C738FA0 
 4110      988263A5 
 4110      6511
 4111 3a47 B77313B9 		.ascii	"\267s\023\271w&\265y*\270|/\274\213n\276\215`\276\210"
 4111      7726B579 
 4111      2AB87C2F 
 4111      BC8B6EBE 
 4111      8D60BE88 
 4112 3a5b 42C3946C 		.ascii	"B\303\224l\311\237\216\315\247\213\314\244}\314\250"
 4112      C99F8ECD 
 4112      A78BCCA4 
 4112      7DCCA8
 4113 3a6a A0D2B1A8 		.ascii	"\240\322\261\250\316\254\242\320\254\224\326\265\254"
 4113      CEACA2D0 
ARM GAS  C:\Users\pbant\AppData\Local\Temp\ccAmOMRv.s 			page 197


 4113      AC94D6B5 
 4113      AC
 4114 3a77 D0BBC9D5 		.ascii	"\320\273\311\325\274\306\332\276\275\331\301\305\331"
 4114      BCC6DABE 
 4114      BDD9C1C5 
 4114      D9
 4115 3a84 BFC5D1B6 		.ascii	"\277\305\321\266\277\324\300\311\323\301\324\342\315"
 4115      BFD4C0C9 
 4115      D3C1D4E2 
 4115      CD
 4116 3a91 D8DDCAD9 		.ascii	"\330\335\312\331\324\301\320\254j\032\255j\033\256k"
 4116      D4C1D0AC 
 4116      6A1AAD6A 
 4116      1BAE6B
 4117 3aa0 1CAE6D1D 		.ascii	"\034\256m\035\257n\036\257n\037\257m\037\256k\035\255"
 4117      AF6E1EAF 
 4117      6E1FAF6D 
 4117      1FAE6B1D 
 4117      AD
 4118 3ab1 691AAD65 		.ascii	"i\032\255e\025\253`\020\251]\012\251[\011\246Y\007\247"
 4118      15AB6010 
 4118      A95D0AA9 
 4118      5B09A659 
 4118      07A7
 4119 3ac3 5703A757 		.ascii	"W\003\247W\004\247W\003\247W\002\250W\002\252Y\002\243"
 4119      04A75703 
 4119      A75702A8 
 4119      5702AA59 
 4119      02A3
 4120 3ad5 56066B39 		.ascii	"V\006k9,\256U>\342pE\352hA\346f-\343u2\330q3\345\210"
 4120      2CAE553E 
 4120      E27045EA 
 4120      6841E666 
 4120      2DE37532 
 4121 3aee 1EF2A117 		.ascii	"\036\362\241\027\347\234$\316w\037\360\252\011\372\272"
 4121      E79C24CE 
 4121      771FF0AA 
 4121      09FABA
 4122 3afd 14F8B223 		.ascii	"\024\370\262#\370\2671\366\2729\361\274@\353\274K\351"
 4122      F8B731F6 
 4122      BA39F1BC 
 4122      40EBBC4B 
 4122      E9
 4123 3b0e BD4BEDC2 		.ascii	"\275K\355\302F\361\310A\355\305G\355\277H\356\277?\361"
 4123      46F1C841 
 4123      EDC547ED 
 4123      BF48EEBF 
 4123      3FF1
 4124 3b20 BD38F2BB 		.ascii	"\2758\362\273:\365\3029\364\3058\370\3178\373\3262\371"
 4124      3AF5C239 
 4124      F4C538F8 
 4124      CF38FBD6 
 4124      32F9
 4125 3b32 D93AF7D3 		.ascii	"\331:\367\323=\363\317D\355\307W\352\304a\342\265]\340"
 4125      3DF3CF44 
 4125      EDC757EA 
 4125      C461E2B5 
ARM GAS  C:\Users\pbant\AppData\Local\Temp\ccAmOMRv.s 			page 198


 4125      5DE0
 4126 3b44 AD5BD799 		.ascii	"\255[\327\231Y\326\214c\274qYcKpyP\200bU\212\020Y\257"
 4126      59D68C63 
 4126      BC715963 
 4126      4B707950 
 4126      8062558A 
 4127 3b5b 746B65CC 		.ascii	"tke\314\241d\246\316\337s\207\225\031\035)]~\230\235"
 4127      A164A6CE 
 4127      DF738795 
 4127      191D295D 
 4127      7E989D
 4128 3b6e 8F7B7148 		.ascii	"\217{qH\037\273u\025\260z7\271|/\274}*\277\215^\277"
 4128      1FBB7515 
 4128      B07A37B9 
 4128      7C2FBC7D 
 4128      2ABF8D5E 
 4129 3b83 958BBB86 		.ascii	"\225\213\273\206K\307\227j\313\245\215\323\262\255\325"
 4129      4BC7976A 
 4129      CBA58DD3 
 4129      B2ADD5
 4130 3b92 B6A4D4B4 		.ascii	"\266\244\324\264\242\317\257\255\330\273\266\320\261"
 4130      A2CFAFAD 
 4130      D8BBB6D0 
 4130      B1
 4131 3b9f A9D7B7AC 		.ascii	"\251\327\267\254\326\273\271\314\270\310\331\304\320"
 4131      D6BBB9CC 
 4131      B8C8D9C4 
 4131      D0
 4132 3bac DEC6CBD9 		.ascii	"\336\306\313\331\277\304\326\277\313\327\302\321\315"
 4132      BFC4D6BF 
 4132      CBD7C2D1 
 4132      CD
 4133 3bb9 BDD2D9C6 		.ascii	"\275\322\331\306\325\333\307\326\325\302\323\261n!\261"
 4133      D5DBC7D6 
 4133      D5C2D3B1 
 4133      6E21B1
 4134 3bc8 6D22B26F 		.ascii	"m\"\262o$\263p#\262o\"\261o!\261o!\261l \256k\035\254"
 4134      24B37023 
 4134      B26F22B1 
 4134      6F21B16F 
 4134      21B16C20 
 4135 3be0 6718AD62 		.ascii	"g\030\255b\023\253`\016\251\\\013\250Z\010\251X\006"
 4135      13AB600E 
 4135      A95C0BA8 
 4135      5A08A958 
 4135      06
 4136 3bf1 A95803A8 		.ascii	"\251X\003\250X\003\250X\003\251X\003\251X\003\254Z\000"
 4136      5803A858 
 4136      03A95803 
 4136      A95803AC 
 4136      5A00
 4137 3c03 A658056E 		.ascii	"\246X\005nFF\2134N\334l>\346~1\332j2\343\212%\346\231"
 4137      46468B34 
 4137      4EDC6C3E 
 4137      E67E31DA 
 4137      6A32E38A 
 4138 3c1a 1CE69226 		.ascii	"\034\346\222&\353\224$\350\237(\331\222\"\356\250\037"
ARM GAS  C:\Users\pbant\AppData\Local\Temp\ccAmOMRv.s 			page 199


 4138      EB9424E8 
 4138      9F28D992 
 4138      22EEA81F 
 4139 3c2a F8B520F8 		.ascii	"\370\265 \370\300*\373\3025\376\310A\372\276P\365\274"
 4139      C02AFBC2 
 4139      35FEC841 
 4139      FABE50F5 
 4139      BC
 4140 3c3b 55EDBD51 		.ascii	"U\355\275Q\360\306J\362\315H\362\324D\363\331>\366\332"
 4140      F0C64AF2 
 4140      CD48F2D4 
 4140      44F3D93E 
 4140      F6DA
 4141 3c4d 3AF4D932 		.ascii	":\364\3312\363\3161\354\3003\345\256;\335\242C\334\241"
 4141      F3CE31EC 
 4141      C033E5AE 
 4141      3BDDA243 
 4141      DCA1
 4142 3c5f 47DFA94F 		.ascii	"G\337\251O\337\264U\347\276Y\350\275_\343\252[\324\230"
 4142      DFB455E7 
 4142      BE59E8BD 
 4142      5FE3AA5B 
 4142      D498
 4143 3c71 64B4735B 		.ascii	"d\264s[\266kb\324|o\271iwgM}CM\214\024V\255ijh\310\312"
 4143      B66B62D4 
 4143      7C6FB969 
 4143      77674D7D 
 4143      434D8C14 
 4144 3c8c B23E5F71 		.ascii	"\262>_q}\232\254\221\273\326\214\263\313\203mR|R$\242"
 4144      7D9AAC91 
 4144      BBD68CB3 
 4144      CB836D52 
 4144      7C5224A2 
 4145 3ca0 845B907E 		.ascii	"\204[\220~j\224y\\\252\177A\300\211A\310\234\206\277"
 4145      6A94795C 
 4145      AA7F41C0 
 4145      8941C89C 
 4145      86BF
 4146 3cb2 948AC599 		.ascii	"\224\212\305\231x\310\237\177\316\253\231\327\271\270"
 4146      78C89F7F 
 4146      CEAB99D7 
 4146      B9B8
 4147 3cc0 DFC3BBD4 		.ascii	"\337\303\273\324\267\265\321\265\266\324\267\271\331"
 4147      B7B5D1B5 
 4147      B6D4B7B9 
 4147      D9
 4148 3ccd BEC1DAC1 		.ascii	"\276\301\332\301\275\326\301\306\316\276\320\334\312"
 4148      BDD6C1C6 
 4148      CEBED0DC 
 4148      CA
 4149 3cda D7DEC9D2 		.ascii	"\327\336\311\322\335\311\325\322\302\324\314\272\320"
 4149      DDC9D5D2 
 4149      C2D4CCBA 
 4149      D0
 4150 3ce7 CDBDD0D5 		.ascii	"\315\275\320\325\302\325\323\277\322\261p&\261p'\262"
 4150      C2D5D3BF 
 4150      D2B17026 
ARM GAS  C:\Users\pbant\AppData\Local\Temp\ccAmOMRv.s 			page 200


 4150      B17027B2 
 4151 3cf7 7128B270 		.ascii	"q(\262p'\261p%\262p\"\263p\"\263o\"\261n\037\257j\032"
 4151      27B17025 
 4151      B27022B3 
 4151      7022B36F 
 4151      22B16E1F 
 4152 3d0e AE6515AD 		.ascii	"\256e\025\255a\021\254_\016\252^\012\252\\\007\251Z"
 4152      6111AC5F 
 4152      0EAA5E0A 
 4152      AA5C07A9 
 4152      5A
 4153 3d1f 05A95904 		.ascii	"\005\251Y\004\250X\003\250X\002\251X\002\250X\002\257"
 4153      A85803A8 
 4153      5802A958 
 4153      02A85802 
 4153      AF
 4154 3d30 5A008857 		.ascii	"Z\000\210W\035xII\352\2222\323i4\340\204(\357\226\033"
 4154      1D784949 
 4154      EA9232D3 
 4154      6934E084 
 4154      28EF961B 
 4155 3d44 EA8628ED 		.ascii	"\352\206(\355\2170\360\213-\365\231)\365\242(\366\261"
 4155      8F30F08B 
 4155      2DF59929 
 4155      F5A228F6 
 4155      B1
 4156 3d55 21F1B81F 		.ascii	"!\361\270\037\361\274$\370\310*\371\320,\367\3244\337"
 4156      F1BC24F8 
 4156      C82AF9D0 
 4156      2CF7D434 
 4156      DF
 4157 3d66 C558DCC4 		.ascii	"\305X\334\304^\345\313U\356\330C\365\3435\366\3460\370"
 4157      5EE5CB55 
 4157      EED843F5 
 4157      E335F6E6 
 4157      30F8
 4158 3d78 E72DFCEE 		.ascii	"\347-\374\356*\376\357*\377\347,\375\340%\367\316$\357"
 4158      2AFEEF2A 
 4158      FFE72CFD 
 4158      E025F7CE 
 4158      24EF
 4159 3d8a B330DE95 		.ascii	"\2630\336\225=\320\203G\312\205L\310\202\\\275{`\267"
 4159      3DD08347 
 4159      CA854CC8 
 4159      825CBD7B 
 4159      60B7
 4160 3d9c 7B6A9F63 		.ascii	"{j\237cj\215Vp\223a}\210[}\200W|8D~\015N\243`t\204m"
 4160      6A8D5670 
 4160      93617D88 
 4160      5B7D8057 
 4160      7C38447E 
 4161 3db7 8792142E 		.ascii	"\207\222\024.F9AF\243\277\320\247\334\374\240\244\224"
 4161      46394146 
 4161      A3BFD0A7 
 4161      DCFCA0A4 
 4161      94
 4162 3dc8 B17A3577 		.ascii	"\261z5wnf\245u0\261\201C\227{^\200nZ\245\207w\266\221"
ARM GAS  C:\Users\pbant\AppData\Local\Temp\ccAmOMRv.s 			page 201


 4162      6E66A575 
 4162      30B18143 
 4162      977B5E80 
 4162      6E5AA587 
 4163 3ddf 83B69086 		.ascii	"\203\266\220\206\303\234\212\317\250\225\324\264\253"
 4163      C39C8ACF 
 4163      A895D4B4 
 4163      AB
 4164 3dec DCBFBDE0 		.ascii	"\334\277\275\340\304\302\325\271\277\325\271\275\325"
 4164      C4C2D5B9 
 4164      BFD5B9BD 
 4164      D5
 4165 3df9 BEC6DCC8 		.ascii	"\276\306\334\310\316\332\302\313\324\276\307\320\301"
 4165      CEDAC2CB 
 4165      D4BEC7D0 
 4165      C1
 4166 3e06 D1DBCBDA 		.ascii	"\321\333\313\332\332\307\325\327\307\331\315\301\324"
 4166      DAC7D5D7 
 4166      C7D9CDC1 
 4166      D4
 4167 3e13 D0C4D5CB 		.ascii	"\320\304\325\313\276\323\325\300\323\262r)\262r)\262"
 4167      BED3D5C0 
 4167      D3B27229 
 4167      B27229B2 
 4168 3e23 7328B071 		.ascii	"s(\260q)\260q(\263r&\262r&\263r$\264q#\260m\035\255"
 4168      29B07128 
 4168      B37226B2 
 4168      7226B372 
 4168      24B47123 
 4169 3e3b 6818AB63 		.ascii	"h\030\253c\024\253b\017\253a\014\253_\010\252\\\006"
 4169      14AB620F 
 4169      AB610CAB 
 4169      5F08AA5C 
 4169      06
 4170 3e4c AA5A05A9 		.ascii	"\252Z\005\251Y\004\251Y\003\252Z\002\252Z\002\253Z\001"
 4170      5904A959 
 4170      03AA5A02 
 4170      AA5A02AB 
 4170      5A01
 4171 3e5e A557016A 		.ascii	"\245W\001j:,\276a2\337\203*\347\216#\355\201&\354~1"
 4171      3A2CBE61 
 4171      32DF832A 
 4171      E78E23ED 
 4171      8126EC7E 
 4172 3e73 E67432DF 		.ascii	"\346t2\337o'\334x'\352\211$\363"
 4172      6F27DC78 
 4172      27EA8924 
 4172      F3
 4173 3e80 9C25FFB5 		.ascii	"\234%\377\265&\364\265\035\303\237%\207\200H`ikaj\213"
 4173      26F4B51D 
 4173      C39F2587 
 4173      80486069 
 4173      6B616A8B 
 4174 3e94 927D8AC9 		.ascii	"\222}\212\311\231\200\337\250{\351\260r\354\274h\351"
 4174      9980DFA8 
 4174      7BE9B072 
 4174      ECBC68E9 
ARM GAS  C:\Users\pbant\AppData\Local\Temp\ccAmOMRv.s 			page 202


 4175 3ea4 B964EAC0 		.ascii	"\271d\352\300U\352\302N\357\311C\361\317?\361\3159\366"
 4175      55EAC24E 
 4175      EFC943F1 
 4175      CF3FF1CD 
 4175      39F6
 4176 3eb6 CD3EF7C7 		.ascii	"\315>\367\3079\365\272<\370\2709\360\254G\345\234O\324"
 4176      39F5BA3C 
 4176      F8B839F0 
 4176      AC47E59C 
 4176      4FD4
 4177 3ec8 8759B86B 		.ascii	"\207Y\270ke\232UtzDw]BrKK|@Q\206\035T\234\0307X(C\\"
 4177      659A5574 
 4177      7A44775D 
 4177      42724B4B 
 4177      7C405186 
 4178 3ee5 3C70BE17 		.ascii	"<p\276\027*:259\240\302\331\273\317\317\244\212nsh^"
 4178      2A3A3235 
 4178      39A0C2D9 
 4178      BBCFCFA4 
 4178      8A6E7368 
 4179 3efa C3863CC5 		.ascii	"\303\206<\305\215G\310\221V\252\202^\223t_\240\201u"
 4179      8D47C891 
 4179      56AA825E 
 4179      93745FA0 
 4179      8175
 4180 3f0c A78577A4 		.ascii	"\247\205w\244\216\227\304\244\252\324\264\253\331\274"
 4180      8E97C4A4 
 4180      AAD4B4AB 
 4180      D9BC
 4181 3f1a BADCC4C0 		.ascii	"\272\334\304\300\331\274\304\322\271\300\330\300\306"
 4181      D9BCC4D2 
 4181      B9C0D8C0 
 4181      C6
 4182 3f27 DCC4CEDD 		.ascii	"\334\304\316\335\306\322\331\303\315\330\304\315\322"
 4182      C6D2D9C3 
 4182      CDD8C4CD 
 4182      D2
 4183 3f34 C2D3D9C8 		.ascii	"\302\323\331\310\330\325\307\330\307\275\321\321\302"
 4183      D8D5C7D8 
 4183      C7BDD1D1 
 4183      C2
 4184 3f41 D5C5BAD0 		.ascii	"\325\305\272\320\317\301\325\261t,\261t+\261s*\262r"
 4184      CFC1D5B1 
 4184      742CB174 
 4184      2BB1732A 
 4184      B272
 4185 3f53 29B3722C 		.ascii	")\263r,\262s+\263s*\263t*\264s)\262o#\257k\036\254h"
 4185      B2732BB3 
 4185      732AB374 
 4185      2AB47329 
 4185      B26F23AF 
 4186 3f6b 17AC6511 		.ascii	"\027\254e\021\254c\016\254a\012\252_\010\254\\\006\254"
 4186      AC630EAC 
 4186      610AAA5F 
 4186      08AC5C06 
 4186      AC
 4187 3f7c 5C06AB5B 		.ascii	"\\\006\253[\005\252[\004\252[\004\252[\004\262_\000"
ARM GAS  C:\Users\pbant\AppData\Local\Temp\ccAmOMRv.s 			page 203


 4187      05AA5B04 
 4187      AA5B04AA 
 4187      5B04B25F 
 4187      00
 4188 3f8d 6E3E1949 		.ascii	"n>\031I\0324\261Z,\306i.\276[&\277J(\304Q*\316_'\355"
 4188      1A34B15A 
 4188      2CC6692E 
 4188      BE5B26BF 
 4188      4A28C451 
 4189 3fa6 7E2DFE9A 		.ascii	"~-\376\232,\323\205+\214c+R;CQ<O\202[b\274yV\350\223"
 4189      2CD3852B 
 4189      8C632B52 
 4189      3B43513C 
 4189      4F825B62 
 4190 3fbf 56F39F54 		.ascii	"V\363\237T\357\224V\360\223W\364\230U\363\225W\363\223"
 4190      EF9456F0 
 4190      9357F498 
 4190      55F39557 
 4190      F393
 4191 3fd1 59F59452 		.ascii	"Y\365\224R\363\222Q\363\237E\361\235K\355\244K\354\253"
 4191      F39251F3 
 4191      9F45F19D 
 4191      4BEDA44B 
 4191      ECAB
 4192 3fe3 4FECB34D 		.ascii	"O\354\263M\352\265K\363\273?\357\264C\350\251J\333\230"
 4192      EAB54BF3 
 4192      BB3FEFB4 
 4192      43E8A94A 
 4192      DB98
 4193 3ff5 57D48A6E 		.ascii	"W\324\212n\312\205t\264q|\216P~vJz<M\205\030C\204\013"
 4193      CA8574B4 
 4193      717C8E50 
 4193      7E764A7A 
 4193      3C4D8518 
 4194 400c 1A321F27 		.ascii	"\0322\037'/Hv\242Ht\230\022\030\031[js\243\305\327\222"
 4194      2F4876A2 
 4194      48749812 
 4194      18195B6A 
 4194      73A3C5D7 
 4195 4021 9FAE7267 		.ascii	"\237\256rg_\263\203N\311\230]\306\226`\314\235r\313"
 4195      5FB3834E 
 4195      C9985DC6 
 4195      9660CC9D 
 4195      72CB
 4196 4033 9D78B797 		.ascii	"\235x\267\227\207\262\230\242\313\246\225\314\251\230"
 4196      87B298A2 
 4196      CBA695CC 
 4196      A998
 4197 4041 CDAEB1D4 		.ascii	"\315\256\261\324\267\272\332\277\277\330\277\300\322"
 4197      B7BADABF 
 4197      BFD8BFC0 
 4197      D2
 4198 404e B8C6D8BD 		.ascii	"\270\306\330\275\303\330\301\307\331\304\316\324\302"
 4198      C3D8C1C7 
 4198      D9C4CED4 
 4198      C2
 4199 405b D0DEC9D0 		.ascii	"\320\336\311\320\324\301\320\321\300\324\320\276\323"
ARM GAS  C:\Users\pbant\AppData\Local\Temp\ccAmOMRv.s 			page 204


 4199      D4C1D0D1 
 4199      C0D4D0BE 
 4199      D3
 4200 4068 C9C2D7C6 		.ascii	"\311\302\327\306\277\321\312\275\323\301\276\322\262"
 4200      BFD1CABD 
 4200      D3C1BED2 
 4200      B2
 4201 4075 7630B375 		.ascii	"v0\263u0\263t.\262s,\262s,\262s0\265t3\264u1\264v1\263"
 4201      30B3742E 
 4201      B2732CB2 
 4201      732CB273 
 4201      30B57433 
 4202 4090 722EB26F 		.ascii	"r.\262o(\261k\035\257h\026\256e\022\254b\014\253`\010"
 4202      28B16B1D 
 4202      AF6816AE 
 4202      6512AC62 
 4202      0CAB6008 
 4203 40a4 AC5E07AD 		.ascii	"\254^\007\255^\007\254]\006\253[\005\252[\005\252[\005"
 4203      5E07AC5D 
 4203      06AB5B05 
 4203      AA5B05AA 
 4203      5B05
 4204 40b6 AC5C04AB 		.ascii	"\254\\\004\253^\005_3$\217B4\306d2\311^1\317Y.\360x"
 4204      5E055F33 
 4204      248F4234 
 4204      C66432C9 
 4204      5E31CF59 
 4205 40cd 2CFF8C26 		.ascii	",\377\214&\315{#`>!1\036'_2,\241V6\277g4\305g0\271X"
 4205      CD7B2360 
 4205      3E21311E 
 4205      275F322C 
 4205      A15636BF 
 4206 40e8 29C56337 		.ascii	")\305c7\310g@\320m7\336}/\353\2152\352\237/\364\267"
 4206      C86740D0 
 4206      6D37DE7D 
 4206      2FEB8D32 
 4206      EA9F2FF4 
 4207 40fd 23FAC71A 		.ascii	"#\372\307\032\374\322\025\376\333\020\377\332\024\377"
 4207      FCD215FE 
 4207      DB10FFDA 
 4207      14FF
 4208 410b DB17FFDD 		.ascii	"\333\027\377\335\027\376\333\026\377\322\032\375\315"
 4208      17FEDB16 
 4208      FFD21AFD 
 4208      CD
 4209 4118 1EF7C821 		.ascii	"\036\367\310!\362\275*\352\260G\332\237\\\315\216k\300"
 4209      F2BD2AEA 
 4209      B047DA9F 
 4209      5CCD8E6B 
 4209      C0
 4210 4129 857B7759 		.ascii	"\205{wY\207PL\206%@\201\013/t\022#A\032\026\017[~\235"
 4210      87504C86 
 4210      2540810B 
 4210      2F741223 
 4210      411A160F 
 4211 4140 5A95C62D 		.ascii	"Z\225\306-HS3=?~\222\236\236\241\237\177cJ\224qQ\307"
 4211      4853333D 
ARM GAS  C:\Users\pbant\AppData\Local\Temp\ccAmOMRv.s 			page 205


 4211      3F7E929E 
 4211      9EA19F7F 
 4211      634A9471 
 4212 4156 965ECA9C 		.ascii	"\226^\312\234o\315\245\201\313\243\210\324\261\234\322"
 4212      6FCDA581 
 4212      CBA388D4 
 4212      B19CD2
 4213 4165 B1ADCBA5 		.ascii	"\261\255\313\245\245\323\253\227\315\252\223\315\261"
 4213      A5D3AB97 
 4213      CDAA93CD 
 4213      B1
 4214 4172 B3D4BABF 		.ascii	"\263\324\272\277\334\305\310\325\275\305\321\267\306"
 4214      DCC5C8D5 
 4214      BDC5D1B7 
 4214      C6
 4215 417f DBC6C7DA 		.ascii	"\333\306\307\332\305\320\323\302\323\340\314\331\336"
 4215      C5D0D3C2 
 4215      D3E0CCD9 
 4215      DE
 4216 418c C9D6CDBF 		.ascii	"\311\326\315\277\324\315\271\321\314\272\321\306\300"
 4216      D4CDB9D1 
 4216      CCBAD1C6 
 4216      C0
 4217 4199 D3C3C2D5 		.ascii	"\323\303\302\325\303\300\323\266y6\266x5\265v3\264v"
 4217      C3C0D3B6 
 4217      7936B678 
 4217      35B57633 
 4217      B476
 4218 41ab 32B37632 		.ascii	"2\263v2\265u5\267w<\270z;\270z;\266x9\264u3\263q)\261"
 4218      B57535B7 
 4218      773CB87A 
 4218      3BB87A3B 
 4218      B67839B4 
 4219 41c5 6D1FB068 		.ascii	"m\037\260h\027\257d\017\255b\012\255`\010\254^\007\253"
 4219      17AF640F 
 4219      AD620AAD 
 4219      6008AC5E 
 4219      07AB
 4220 41d7 5D06AA5D 		.ascii	"]\006\252]\004\253]\004\254]\005\252]\005\255_\005\263"
 4220      04AB5D04 
 4220      AC5D05AA 
 4220      5D05AD5F 
 4220      05B3
 4221 41e9 61039F5A 		.ascii	"a\003\237Z \215Z]\325u<\363\205(\372\221+~M\035 \015"
 4221      208D5A5D 
 4221      D5753CF3 
 4221      8528FA91 
 4221      2B7E4D1D 
 4222 41ff 113A0F14 		.ascii	"\021:\017\024m%\033\2144\037\177%!\203*(\227?+\263`"
 4222      6D251B8C 
 4222      341F7F25 
 4222      21832A28 
 4222      973F2BB3 
 4223 4214 2ECF8633 		.ascii	".\317\2063\335\2375\347\2649\353\3054\355\3161\356\320"
 4223      DD9F35E7 
 4223      B439EBC5 
 4223      34EDCE31 
ARM GAS  C:\Users\pbant\AppData\Local\Temp\ccAmOMRv.s 			page 206


 4223      EED0
 4224 4226 2DF5DB23 		.ascii	"-\365\333#\371\346\031\366\343\035\363\334\032\363\332"
 4224      F9E619F6 
 4224      E31DF3DC 
 4224      1AF3DA
 4225 4235 1FF5DA20 		.ascii	"\037\365\332 \370\330!\372\317\"\374\317%\374\317%\370"
 4225      F8D821FA 
 4225      CF22FCCF 
 4225      25FCCF25 
 4225      F8
 4226 4246 C32CF4C2 		.ascii	"\303,\364\302.\366\310;\357\267G\341\233c\324\215s\230"
 4226      2EF6C83B 
 4226      EFB747E1 
 4226      9B63D48D 
 4226      7398
 4227 4258 70813348 		.ascii	"p\2013H\211*7l\017\025=\005\037W\000\001\013@Sat\235"
 4227      892A376C 
 4227      0F153D05 
 4227      1F570001 
 4227      0B405361 
 4228 426e B842667A 		.ascii	"\270Bfz5KUXs\216VPM\201jQ\243\203l\270\221j\317\242"
 4228      354B5558 
 4228      738E5650 
 4228      4D816A51 
 4228      A3836CB8 
 4229 4286 7BCEA790 		.ascii	"{\316\247\220\320\257\236\320\255\234\327\263\244\320"
 4229      D0AF9ED0 
 4229      AD9CD7B3 
 4229      A4D0
 4230 4294 AEACCBA7 		.ascii	"\256\254\313\247\251\331\267\246\326\264\246\320\264"
 4230      A9D9B7A6 
 4230      D6B4A6D0 
 4230      B4
 4231 42a1 B8D4BEC4 		.ascii	"\270\324\276\304\334\306\310\317\270\311\331\303\313"
 4231      DCC6C8CF 
 4231      B8C9D9C3 
 4231      CB
 4232 42ae E2CCD2D8 		.ascii	"\342\314\322\330\305\323\324\304\326\331\305\327\325"
 4232      C5D3D4C4 
 4232      D6D9C5D7 
 4232      D5
 4233 42bb C0D2C6BD 		.ascii	"\300\322\306\275\320\307\272\317\322\277\324\301\275"
 4233      D0C7BACF 
 4233      D2BFD4C1 
 4233      BD
 4234 42c8 D0C0C0D2 		.ascii	"\320\300\300\322\271~=\270{<\266{;\266{:\267{=\270|"
 4234      B97E3DB8 
 4234      7B3CB67B 
 4234      3BB67B3A 
 4234      B77B3DB8 
 4235 42dd 40BA7D44 		.ascii	"@\272}D\271\177D\271\177E\271}D\270|>\266w4\265r)\261"
 4235      B97F44B9 
 4235      7F45B97D 
 4235      44B87C3E 
 4235      B67734B5 
 4236 42f4 6D1CAF67 		.ascii	"m\034\257g\023\255c\015\256b\012\255_\011\253^\007\252"
 4236      13AD630D 
ARM GAS  C:\Users\pbant\AppData\Local\Temp\ccAmOMRv.s 			page 207


 4236      AE620AAD 
 4236      5F09AB5E 
 4236      07AA
 4237 4306 5E04AB5F 		.ascii	"^\004\253_\004\255_\005\255_\004\255`\004\255a\004\260"
 4237      04AD5F05 
 4237      AD5F04AD 
 4237      6004AD61 
 4237      04B0
 4238 4318 6101955D 		.ascii	"a\001\225]\035\226a;\307}7\202d\"\000\000\0158\002\024"
 4238      1D96613B 
 4238      C77D3782 
 4238      64220000 
 4238      0D380214 
 4239 432c 4306164C 		.ascii	"C\006\026L\007\027l!\035\227M&\272u+\315\2220\333\251"
 4239      07176C21 
 4239      1D974D26 
 4239      BA752BCD 
 4239      9230DBA9 
 4240 4340 36DAAF38 		.ascii	"6\332\2578\337\2666\343\2703\351\277+\354\300%\355\301"
 4240      DFB636E3 
 4240      B833E9BF 
 4240      2BECC025 
 4240      EDC1
 4241 4352 23EFBF23 		.ascii	"#\357\277#\366\321\024\370\330\013\363\324\013\362\321"
 4241      F6D114F8 
 4241      D80BF3D4 
 4241      0BF2D1
 4242 4361 0DEECA13 		.ascii	"\015\356\312\023\353\274\034\353\260#\351\250&\344\241"
 4242      EBBC1CEB 
 4242      B023E9A8 
 4242      26E4A1
 4243 4370 28DC9B2E 		.ascii	"(\334\233.\327\232;\331\232E\322\217J\323\221Y\311}"
 4243      D79A3BD9 
 4243      9A45D28F 
 4243      4AD39159 
 4243      C97D
 4244 4382 63AA656F 		.ascii	"c\252eo{Vo6Dv\015\0319\004\0239\002\005\022\007\007"
 4244      7B566F36 
 4244      44760D19 
 4244      39041339 
 4244      02051207 
 4245 4397 0650626D 		.ascii	"\006Pbm|\253\312Acx7Rn%Akwnr\210zm\236\204w\337\267"
 4245      7CABCA41 
 4245      63783752 
 4245      6E25416B 
 4245      776E7288 
 4246 43b2 9ED1AE98 		.ascii	"\236\321\256\230\322\261\247\315\255\245\322\260\243"
 4246      D2B1A7CD 
 4246      ADA5D2B0 
 4246      A3
 4247 43bf D6B6AECB 		.ascii	"\326\266\256\313\252\256\324\266\270\336\276\272\330"
 4247      AAAED4B6 
 4247      B8DEBEBA 
 4247      D8
 4248 43cc BAB1D2B9 		.ascii	"\272\261\322\271\277\327\301\307\324\277\313\320\275"
 4248      BFD7C1C7 
 4248      D4BFCBD0 
ARM GAS  C:\Users\pbant\AppData\Local\Temp\ccAmOMRv.s 			page 208


 4248      BD
 4249 43d9 CCDEC8D0 		.ascii	"\314\336\310\320\332\306\320\325\303\323\326\307\331"
 4249      DAC6D0D5 
 4249      C3D3D6C7 
 4249      D9
 4250 43e6 D8C5D7CF 		.ascii	"\330\305\327\317\303\324\300\276\321\314\277\325\331"
 4250      C3D4C0BE 
 4250      D1CCBFD5 
 4250      D9
 4251 43f3 C2D6BDBC 		.ascii	"\302\326\275\274\317\272\202D\272\201D\271\177D\272"
 4251      CFBA8244 
 4251      BA8144B9 
 4251      7F44BA
 4252 4402 7F46BC81 		.ascii	"\177F\274\201I\273\202K\275\205P\276\206Q\276\206Q\275"
 4252      49BB824B 
 4252      BD8550BE 
 4252      8651BE86 
 4252      51BD
 4253 4414 854FBB83 		.ascii	"\205O\273\203I\270}?\266x3\264r#\262l\031\257f\022\256"
 4253      49B87D3F 
 4253      B67833B4 
 4253      7223B26C 
 4253      19AF6612 
 4254 4429 630DAE62 		.ascii	"c\015\256b\012\255b\011\254`\006\255`\006\255a\006\255"
 4254      0AAD6209 
 4254      AC6006AD 
 4254      6006AD61 
 4254      06AD
 4255 443b 6105AD61 		.ascii	"a\005\255a\005\254b\006\254b\007\262b\001\256^\013m"
 4255      05AC6206 
 4255      AC6207B2 
 4255      6201AE5E 
 4255      0B6D
 4256 444d 59431619 		.ascii	"YC\026\0319U\021\034|+(\2028,\245Y+\306~+\320\2230\324"
 4256      3955111C 
 4256      7C2B2882 
 4256      382CA559 
 4256      2BC67E2B 
 4257 4465 9B34DA9F 		.ascii	"\2334\332\2374\331\2376\335\2425\342\246/\351\247*\353"
 4257      34D99F36 
 4257      DDA235E2 
 4257      A62FE9A7 
 4257      2AEB
 4258 4477 AB23EAAA 		.ascii	"\253#\352\252 \351\257\"\355\264 \364\313\013\364\314"
 4258      20E9AF22 
 4258      EDB420F4 
 4258      CB0BF4CC 
 4259 4487 09F6D606 		.ascii	"\011\366\326\006\376\351\000\374\356\001\375\355\002"
 4259      FEE900FC 
 4259      EE01FDED 
 4259      02
 4260 4494 F1D206E3 		.ascii	"\361\322\006\343\266\017\354\272\020\360\266\024\357"
 4260      B60FECBA 
 4260      10F0B614 
 4260      EF
 4261 44a1 B120EEAA 		.ascii	"\261 \356\252$\360\255-\361\257;\345\234L\336\225P\302"
 4261      24F0AD2D 
ARM GAS  C:\Users\pbant\AppData\Local\Temp\ccAmOMRv.s 			page 209


 4261      F1AF3BE5 
 4261      9C4CDE95 
 4261      50C2
 4262 44b3 7F605B4B 		.ascii	"\177`[Ki\010\023&\004\005\006,:J\025\030\033\024\032"
 4262      69081326 
 4262      0405062C 
 4262      3A4A1518 
 4262      1B141A
 4263 44c6 1B567488 		.ascii	"\033Vt\210z\244\303d\200\234\240\237\237\305\231}\234"
 4263      7AA4C364 
 4263      809CA09F 
 4263      9FC5997D 
 4263      9C
 4264 44d7 87866B69 		.ascii	"\207\206kie\317\266\253\336\273\255\324\263\250\327"
 4264      65CFB6AB 
 4264      DEBBADD4 
 4264      B3A8D7
 4265 44e6 B9B7D2B2 		.ascii	"\271\267\322\262\261\324\264\260\332\275\274\323\267"
 4265      B1D4B4B0 
 4265      DABDBCD3 
 4265      B7
 4266 44f3 BDD8BCBD 		.ascii	"\275\330\274\275\332\272\261\333\273\266\332\303\307"
 4266      DABAB1DB 
 4266      BBB6DAC3 
 4266      C7
 4267 4500 DAC3CCCC 		.ascii	"\332\303\314\314\267\310\325\300\321\332\306\323\326"
 4267      B7C8D5C0 
 4267      D1DAC6D3 
 4267      D6
 4268 450d C3D2DAC6 		.ascii	"\303\322\332\306\324\320\304\326\320\307\330\276\274"
 4268      D4D0C4D6 
 4268      D0C7D8BE 
 4268      BC
 4269 451a CFC0BDD0 		.ascii	"\317\300\275\320\325\305\330\317\300\323\274\205I\275"
 4269      D5C5D8CF 
 4269      C0D3BC85 
 4269      49BD
 4270 4528 854BBE85 		.ascii	"\205K\276\205N\277\207P\301\210T\277\212W\277\215\\"
 4270      4EBF8750 
 4270      C18854BF 
 4270      8A57BF8D 
 4270      5C
 4271 4539 C28E60C2 		.ascii	"\302\216`\302\216_\300\214Z\277\211T\274\203G\272};"
 4271      8E5FC08C 
 4271      5ABF8954 
 4271      BC8347BA 
 4271      7D3B
 4272 454b B5782EB4 		.ascii	"\265x.\264r#\263l\032\261g\023\257f\017\256f\014\256"
 4272      7223B36C 
 4272      1AB16713 
 4272      AF660FAE 
 4272      660CAE
 4273 455e 6409B063 		.ascii	"d\011\260c\010\256c\007\256c\007\256c\007\256c\007\257"
 4273      08AE6307 
 4273      AE6307AE 
 4273      6307AE63 
 4273      07AF
ARM GAS  C:\Users\pbant\AppData\Local\Temp\ccAmOMRv.s 			page 210


 4274 4570 6408AF64 		.ascii	"d\010\257d\005\265m\017:M[@\022/\22420\254T5\276q1\310"
 4274      05B56D0F 
 4274      3A4D5B40 
 4274      122F9432 
 4274      30AC5435 
 4275 4588 802FCF89 		.ascii	"\200/\317\2113\323\2176\330\2236\335\2232\342\230)\342"
 4275      33D38F36 
 4275      D89336DD 
 4275      9332E298 
 4275      29E2
 4276 459a 9629E092 		.ascii	"\226)\340\222(\336\221,\336\231*\337\234%\344\244&\345"
 4276      28DE912C 
 4276      DE992ADF 
 4276      9C25E4A4 
 4276      26E5
 4277 45ac B124E7B9 		.ascii	"\261$\347\271\035\354\304\021\355\303\017\362\313\007"
 4277      1DECC411 
 4277      EDC30FF2 
 4277      CB07
 4278 45ba F5CD07E6 		.ascii	"\365\315\007\346\262\013\356\301\011\370\322\006\373"
 4278      B20BEEC1 
 4278      09F8D206 
 4278      FB
 4279 45c7 CB05F9BC 		.ascii	"\313\005\371\274\016\366\267\024\364\271\026\362\303"
 4279      0EF6B714 
 4279      F4B916F2 
 4279      C3
 4280 45d4 18F5CA21 		.ascii	"\030\365\312!\365\306*\345\2444\260gIO?S!5V$0<:GT69"
 4280      F5C62AE5 
 4280      A434B067 
 4280      494F3F53 
 4280      21355624 
 4281 45ef 3D2D363E 		.ascii	"=-6>BWb`\210\252}\237\306\322\262\227\326\256\220\335"
 4281      42576260 
 4281      88AA7D9F 
 4281      C6D2B297 
 4281      D6AE90DD 
 4282 4603 BCB09581 		.ascii	"\274\260\225\201\200ofj\254\226\224\316\260\244\331"
 4282      806F666A 
 4282      AC9694CE 
 4282      B0A4D9
 4283 4612 B7B0D3B7 		.ascii	"\267\260\323\267\273\325\274\302\330\274\301\332\275"
 4283      BBD5BCC2 
 4283      D8BCC1DA 
 4283      BD
 4284 461f C2D3B6BB 		.ascii	"\302\323\266\273\322\264\261\330\272\256\334\300\271"
 4284      D2B4B1D8 
 4284      BAAEDCC0 
 4284      B9
 4285 462c DCC2CACD 		.ascii	"\334\302\312\315\264\303\315\262\303\331\303\317\323"
 4285      B4C3CDB2 
 4285      C3D9C3CF 
 4285      D3
 4286 4639 C4D4D4C4 		.ascii	"\304\324\324\304\323\334\307\327\324\311\331\300\276"
 4286      D3DCC7D7 
 4286      D4C9D9C0 
 4286      BE
ARM GAS  C:\Users\pbant\AppData\Local\Temp\ccAmOMRv.s 			page 211


 4287 4646 D0BEBBCE 		.ascii	"\320\276\273\316\320\310\331\323\307\331"
 4287      D0C8D9D3 
 4287      C7D9
 4288 4650 C0864EC0 		.ascii	"\300\206N\300\211Q\301\214W\301\215X\302\216\\\303\221"
 4288      8951C18C 
 4288      57C18D58 
 4288      C28E5CC3 
 4288      91
 4289 4661 62C59469 		.ascii	"b\305\224i\306\225j\305\225i\302\222d\301\216\\\277"
 4289      C6956AC5 
 4289      9569C292 
 4289      64C18E5C 
 4289      BF
 4290 4672 884EBC83 		.ascii	"\210N\274\203C\267~8\265w,\266s\"\264n\034\262k\030"
 4290      43B77E38 
 4290      B5772CB6 
 4290      7322B46E 
 4290      1CB26B18 
 4291 4686 B06912AE 		.ascii	"\260i\022\256g\015\260f\013\260e\011\257e\011\260e\011"
 4291      670DB066 
 4291      0BB06509 
 4291      AF6509B0 
 4291      6509
 4292 4698 B06509B1 		.ascii	"\260e\011\261e\012\273j\010cG+\004\0138]\036*\224B7"
 4292      650ABB6A 
 4292      0863472B 
 4292      040B385D 
 4292      1E2A9442 
 4293 46ad AA5C35B6 		.ascii	"\252\\5\266i3\310\2012\324\2054\335\2108\335\201/\326"
 4293      6933C881 
 4293      32D48534 
 4293      DD8838DD 
 4293      812FD6
 4294 46c0 7B27D587 		.ascii	"{'\325\207&\321\207/\305\207/\310\216.\324\230,\327"
 4294      26D1872F 
 4294      C5872FC8 
 4294      8E2ED498 
 4294      2CD7
 4295 46d2 A130DFAA 		.ascii	"\2410\337\252.\342\261)\351\266\035\355\272\023\357"
 4295      2EE2B129 
 4295      E9B61DED 
 4295      BA13EF
 4296 46e1 BB0BF9D3 		.ascii	"\273\013\371\323\003\354\303\007\344\270\013\372\334"
 4296      03ECC307 
 4296      E4B80BFA 
 4296      DC
 4297 46ee 02FAC503 		.ascii	"\002\372\305\003\370\266\005\367\277\011\363\320\006"
 4297      F8B605F7 
 4297      BF09F3D0 
 4297      06
 4298 46fb F6D806F7 		.ascii	"\366\330\006\367\325\016\371\344\015\356\305\027\335"
 4298      D50EF9E4 
 4298      0DEEC517 
 4298      DD
 4299 4708 7C2D9257 		.ascii	"|-\222WG\026<t\"L\2014Pz\001\000\00229@\210\246\274"
 4299      47163C74 
 4299      224C8134 
ARM GAS  C:\Users\pbant\AppData\Local\Temp\ccAmOMRv.s 			page 212


 4299      507A0100 
 4299      02323940 
 4300 471f 546D7E87 		.ascii	"Tm~\207\253\310e\224\303\264\223t\327\261\216\335\277"
 4300      ABC86594 
 4300      C3B49374 
 4300      D7B18EDD 
 4300      BF
 4301 4730 B4CFB9BE 		.ascii	"\264\317\271\276\255\233\237\302\256\253\266\254\265"
 4301      AD9B9FC2 
 4301      AEABB6AC 
 4301      B5
 4302 473d B2A1A7CB 		.ascii	"\262\241\247\313\254\253\322\265\273\332\300\312\323"
 4302      ACABD2B5 
 4302      BBDAC0CA 
 4302      D3
 4303 474a B7C2D6BD 		.ascii	"\267\302\326\275\301\326\274\305\327\271\270\330\274"
 4303      C1D6BCC5 
 4303      D7B9B8D8 
 4303      BC
 4304 4757 AEDEBFBC 		.ascii	"\256\336\277\274\333\302\313\306\255\302\320\265\302"
 4304      DBC2CBC6 
 4304      ADC2D0B5 
 4304      C2
 4305 4764 D9C1CDCE 		.ascii	"\331\301\315\316\300\322\327\306\330\334\314\335\315"
 4305      C0D2D7C6 
 4305      D8DCCCDD 
 4305      CD
 4306 4771 C6D7B6BA 		.ascii	"\306\327\266\272\315\306\306\327\320\313\333\302\211"
 4306      CDC6C6D7 
 4306      D0CBDBC2 
 4306      89
 4307 477e 52C28C58 		.ascii	"R\302\214X\302\220]\302\222`\305\223d\307\226h\312\231"
 4307      C2905DC2 
 4307      9260C593 
 4307      64C79668 
 4307      CA99
 4308 4790 6EC9996F 		.ascii	"n\311\231o\310\230n\306\225k\303\222d\301\215X\276\207"
 4308      C8986EC6 
 4308      956BC392 
 4308      64C18D58 
 4308      BE87
 4309 47a2 4CBC8342 		.ascii	"L\274\203B\272}7\267{.\267u'\265s\"\263o\034\261l\025"
 4309      BA7D37B7 
 4309      7B2EB775 
 4309      27B57322 
 4309      B36F1CB1 
 4310 47b8 B16A10B0 		.ascii	"\261j\020\260k\015\260i\014\261h\014\261h\014\266k\012"
 4310      6B0DB069 
 4310      0CB1680C 
 4310      B1680CB6 
 4310      6B0A
 4311 47ca 9F62151B 		.ascii	"\237b\025\033\0254l+-\223A7\237S<\245[7\260]7\313u6"
 4311      15346C2B 
 4311      2D934137 
 4311      9F533CA5 
 4311      5B37B05D 
 4312 47e2 DD7C35DD 		.ascii	"\335|5\335\2012\307v3\276w2\277\204.\304\2221\303\227"
ARM GAS  C:\Users\pbant\AppData\Local\Temp\ccAmOMRv.s 			page 213


 4312      8132C776 
 4312      33BE7732 
 4312      BF842EC4 
 4312      9231C397 
 4313 47f6 34CE9F35 		.ascii	"4\316\2375\327\2436\333\244/\345\252&\350\253\037\353"
 4313      D7A336DB 
 4313      A42FE5AA 
 4313      26E8AB1F 
 4313      EB
 4314 4807 B018F0B6 		.ascii	"\260\030\360\266\022\357\277\010\355\301\011\343\257"
 4314      12EFBF08 
 4314      EDC109E3 
 4314      AF
 4315 4814 0CF5B903 		.ascii	"\014\365\271\003\372\256\004\372\300\003\367\317\002"
 4315      FAAE04FA 
 4315      C003F7CF 
 4315      02
 4316 4821 F8DC02F5 		.ascii	"\370\334\002\365\342\001\371\354\001\374\365\002\354"
 4316      E201F9EC 
 4316      01FCF502 
 4316      EC
 4317 482e C611ED9A 		.ascii	"\306\021\355\232$\334\201<CMo\016K\223\026@~<f\240\024"
 4317      24DC813C 
 4317      434D6F0E 
 4317      4B931640 
 4317      7E3C66A0 
 4318 4843 19223540 		.ascii	"\031\"5@H\213\236\254p\200\220Ij\206\216\254\302\233"
 4318      488B9EAC 
 4318      70809049 
 4318      6A868EAC 
 4318      C29B
 4319 4855 7B62D3AD 		.ascii	"{b\323\255\206\330\265\237\337\302\265\272\260\275\330"
 4319      86D8B59F 
 4319      DFC2B5BA 
 4319      B0BDD8
 4320 4864 C6CBE5CD 		.ascii	"\306\313\345\315\305\317\270\266\326\270\263\322\265"
 4320      C5CFB8B6 
 4320      D6B8B3D2 
 4320      B5
 4321 4871 B5D3B5BD 		.ascii	"\265\323\265\275\321\267\277\326\275\312\330\276\306"
 4321      D1B7BFD6 
 4321      BDCAD8BE 
 4321      C6
 4322 487e D3B4C0D6 		.ascii	"\323\264\300\326\267\267\331\273\264\336\302\306\324"
 4322      B7B7D9BB 
 4322      B4DEC2C6 
 4322      D4
 4323 488b BBCBC4AF 		.ascii	"\273\313\304\257\302\323\272\305\321\272\312\323\301"
 4323      C2D3BAC5 
 4323      D1BACAD3 
 4323      C1
 4324 4898 D5D3C6D7 		.ascii	"\325\323\306\327\324\313\333\276\300\321\306\306\326"
 4324      D4CBDBBE 
 4324      C0D1C6C6 
 4324      D6
 4325 48a5 CFCDDCC3 		.ascii	"\317\315\334\303\214X\302\220]\304\223b\304\225d\306"
 4325      8C58C290 
ARM GAS  C:\Users\pbant\AppData\Local\Temp\ccAmOMRv.s 			page 214


 4325      5DC49362 
 4325      C49564C6 
 4326 48b5 9567C897 		.ascii	"\225g\310\227i\311\233o\310\235q\310\234r\311\232p\307"
 4326      69C99B6F 
 4326      C89D71C8 
 4326      9C72C99A 
 4326      70C7
 4327 48c7 976BC492 		.ascii	"\227k\304\222`\301\214V\300\210L\276\205C\274\201;\273"
 4327      60C18C56 
 4327      C0884CBE 
 4327      8543BC81 
 4327      3BBB
 4328 48d9 7C32B879 		.ascii	"|2\270y*\270v$\267s\037\265q\031\264p\024\263o\022\264"
 4328      2AB87624 
 4328      B7731FB5 
 4328      7119B470 
 4328      14B36F12 
 4329 48ee 6E11B36D 		.ascii	"n\021\263m\020\276s\015rK\036\017\002'\2266-\247P5\226"
 4329      10BE730D 
 4329      724B1E0F 
 4329      02279636 
 4329      2DA75035 
 4330 4903 403C9E45 		.ascii	"@<\236E;\255M7\275_8\302l6\264l7\273\177=\277\214?\310"
 4330      3BAD4D37 
 4330      BD5F38C2 
 4330      6C36B46C 
 4330      37BB7F3D 
 4331 491b 9538D59D 		.ascii	"\2258\325\2355\334\2433\334\2361\324\2245\341\236.\350"
 4331      35DCA333 
 4331      DC9E31D4 
 4331      9435E19E 
 4331      2EE8
 4332 492d A727E6A5 		.ascii	"\247'\346\245$\344\246#\347\260\032\347\254\017\354"
 4332      24E4A623 
 4332      E7B01AE7 
 4332      AC0FEC
 4333 493c 9E0DF4A7 		.ascii	"\236\015\364\247\005\372\255\003\370\303\002\362\316"
 4333      05FAAD03 
 4333      F8C302F2 
 4333      CE
 4334 4949 03F4D903 		.ascii	"\003\364\331\003\367\342\001\374\370\001\374\370\005"
 4334      F7E201FC 
 4334      F801FCF8 
 4334      05
 4335 4956 E6BD11EE 		.ascii	"\346\275\021\356\237\036\367\234%\177kT\017V\246\035"
 4335      9F1EF79C 
 4335      257F6B54 
 4335      0F56A61D 
 4336 4966 4C8C0E32 		.ascii	"L\214\0162nU\210\3023Ke#<]t\177\212\237\207o\253\237"
 4336      6E5588C2 
 4336      334B6523 
 4336      3C5D747F 
 4336      8A9F876F 
 4337 497c 93D4BEB5 		.ascii	"\223\324\276\265\244\212\211\305\250\225\335\274\250"
 4337      A48A89C5 
 4337      A895DDBC 
 4337      A8
ARM GAS  C:\Users\pbant\AppData\Local\Temp\ccAmOMRv.s 			page 215


 4338 4989 DCC0B1DB 		.ascii	"\334\300\261\333\303\277\325\302\315\335\313\325\350"
 4338      C3BFD5C2 
 4338      CDDDCBD5 
 4338      E8
 4339 4996 D2D1E4CC 		.ascii	"\322\321\344\314\313\334\301\301\320\264\267\322\271"
 4339      CBDCC1C1 
 4339      D0B4B7D2 
 4339      B9
 4340 49a3 BFD3BBC6 		.ascii	"\277\323\273\306\322\272\311\330\276\305\320\264\300"
 4340      D2BAC9D8 
 4340      BEC5D0B4 
 4340      C0
 4341 49b0 D0B2B2D6 		.ascii	"\320\262\262\326\267\265\336\301\311\310\260\303\311"
 4341      B7B5DEC1 
 4341      C9C8B0C3 
 4341      C9
 4342 49bd B3C5D2BD 		.ascii	"\263\305\322\275\312\320\273\317\323\301\322\326\307"
 4342      CAD0BBCF 
 4342      D3C1D2D6 
 4342      C7
 4343 49ca D8C5C4D4 		.ascii	"\330\305\304\324\302\305\324\311\313\332\303\220Z\304"
 4343      C2C5D4C9 
 4343      CBDAC390 
 4343      5AC4
 4344 49d8 9461C696 		.ascii	"\224a\306\226f\306\227e\307\226h\307\227i\307\233o\307"
 4344      66C69765 
 4344      C79668C7 
 4344      9769C79B 
 4344      6FC7
 4345 49ea 9C70C79C 		.ascii	"\234p\307\234r\311\234s\312\232q\307\226j\304\222`\301"
 4345      72C99C73 
 4345      CA9A71C7 
 4345      966AC492 
 4345      60C1
 4346 49fc 8E57C08C 		.ascii	"\216W\300\214O\277\207F\276\203<\273~2\272|,\271y(\270"
 4346      4FBF8746 
 4346      BE833CBB 
 4346      7E32BA7C 
 4346      2CB97928 
 4347 4a11 7824B676 		.ascii	"x$\266v \267v\034\266u\031\266r\026\300x\024{P\036\002"
 4347      20B7761C 
 4347      B67519B6 
 4347      7216C078 
 4347      147B501E 
 4348 4a26 0A354A16 		.ascii	"\0125J\026+\22248\205,<\2174;\232B8\252Z:\260k<\275"
 4348      2B923438 
 4348      852C3C8F 
 4348      343B9A42 
 4348      38AA5A3A 
 4349 4a3e 7F3ECC8E 		.ascii	"\177>\314\216<\324\2269\324\2238\331\2265\343\2342\336"
 4349      3CD49639 
 4349      D49338D9 
 4349      9635E39C 
 4349      32DE
 4350 4a50 9A2FDF94 		.ascii	"\232/\337\2243\344\227.\335\231+\333\237'\331\235\""
 4350      33E4972E 
 4350      DD992BDB 
ARM GAS  C:\Users\pbant\AppData\Local\Temp\ccAmOMRv.s 			page 216


 4350      9F27D99D 
 4350      22
 4351 4a61 E3951BEC 		.ascii	"\343\225\033\354\210\017\363\231\004\361\265\003\363"
 4351      880FF399 
 4351      04F1B503 
 4351      F3
 4352 4a6e C703EBC3 		.ascii	"\307\003\353\303\003\356\317\003\370\360\001\362\353"
 4352      03EECF03 
 4352      F8F001F2 
 4352      EB
 4353 4a7b 03E6C80A 		.ascii	"\003\346\310\012\330\242\026\341\241\026\376\260\034"
 4353      D8A216E1 
 4353      A116FEB0 
 4353      1C
 4354 4a88 CC972A1D 		.ascii	"\314\227*\035L\221&r\303\034A}\0131mK\200\275:QrR\201"
 4354      4C912672 
 4354      C31C417D 
 4354      0B316D4B 
 4354      80BD3A51 
 4355 4a9f B7BFCACC 		.ascii	"\267\277\312\314\327\252\211\334\264\241\340\301\264"
 4355      D7AA89DC 
 4355      B4A1E0C1 
 4355      B4
 4356 4aac C3ACAD97 		.ascii	"\303\254\255\227\206\212\344\307\273\335\300\264\341"
 4356      868AE4C7 
 4356      BBDDC0B4 
 4356      E1
 4357 4ab9 CAC6E1CC 		.ascii	"\312\306\341\314\315\330\304\321\330\307\322\341\314"
 4357      CDD8C4D1 
 4357      D8C7D2E1 
 4357      CC
 4358 4ac6 D2E1CCD0 		.ascii	"\322\341\314\320\337\307\312\325\274\307\326\276\304"
 4358      DFC7CAD5 
 4358      BCC7D6BE 
 4358      C4
 4359 4ad3 CEB5BFCC 		.ascii	"\316\265\277\314\264\300\321\265\302\312\254\275\320"
 4359      B4C0D1B5 
 4359      C2CAACBD 
 4359      D0
 4360 4ae0 B2B6D6BA 		.ascii	"\262\266\326\272\271\323\267\301\305\256\304\320\271"
 4360      B9D3B7C1 
 4360      C5AEC4D0 
 4360      B9
 4361 4aed CAD0BCD2 		.ascii	"\312\320\274\322\315\267\314\317\271\320\313\300\321"
 4361      CDB7CCCF 
 4361      B9D0CBC0 
 4361      D1
 4362 4afa BEC3D2C4 		.ascii	"\276\303\322\304\310\327\304\224_\306\226e\310\227h"
 4362      C8D7C494 
 4362      5FC69665 
 4362      C89768
 4363 4b09 C89768C7 		.ascii	"\310\227h\307\226h\305\227i\306\232n\307\234p\310\234"
 4363      9668C597 
 4363      69C69A6E 
 4363      C79C70C8 
 4363      9C
 4364 4b1a 73C99C77 		.ascii	"s\311\234w\313\235x\312\234q\310\230j\305\224b\302\221"
ARM GAS  C:\Users\pbant\AppData\Local\Temp\ccAmOMRv.s 			page 217


 4364      CB9D78CA 
 4364      9C71C898 
 4364      6AC59462 
 4364      C291
 4365 4b2c 5AC28E50 		.ascii	"Z\302\216P\301\211F\274\204;\273\2024\272~/\272~,\272"
 4365      C18946BC 
 4365      843BBB82 
 4365      34BA7E2F 
 4365      BA7E2CBA 
 4366 4b40 7D2BBA7B 		.ascii	"}+\272{(\270z\"\271y\036\270w\033\274}\03589C>\022/"
 4366      28B87A22 
 4366      B9791EB8 
 4366      771BBC7D 
 4366      1D383943 
 4367 4b57 7D253978 		.ascii	"}%9x+>\220?=\240R<\251c@\270v<\304\202=\320\2147\332"
 4367      2B3E903F 
 4367      3DA0523C 
 4367      A96340B8 
 4367      763CC482 
 4368 4b70 9535E19B 		.ascii	"\2255\341\2333\342\2224\331\2122\317\204.\311\207,\306"
 4368      33E29234 
 4368      D98A32CF 
 4368      842EC987 
 4368      2CC6
 4369 4b82 9131D69C 		.ascii	"\2211\326\234.\340\230)\351\221\036\362\230\020\351"
 4369      2EE09829 
 4369      E9911EF2 
 4369      9810E9
 4370 4b91 990DE3A9 		.ascii	"\231\015\343\251\017\353\300\013\351\304\012\354\325"
 4370      0FEBC00B 
 4370      E9C40AEC 
 4370      D5
 4371 4b9e 03F5E903 		.ascii	"\003\365\351\003\341\310\010\313\234\020\317\243\020"
 4371      E1C808CB 
 4371      9C10CFA3 
 4371      10
 4372 4bab E1AA11FB 		.ascii	"\341\252\021\373\266\024\364\262\023T^b\026h\3011{\310"
 4372      B614F4B2 
 4372      13545E62 
 4372      1668C131 
 4372      7BC8
 4373 4bbd 1C3A720B 		.ascii	"\034:r\0135sEr\2403]\217]\205\255\315\252|\310\236s"
 4373      35734572 
 4373      A0335D8F 
 4373      5D85ADCD 
 4373      AA7CC89E 
 4374 4bd2 CAA799D3 		.ascii	"\312\247\231\323\263\254\326\272\266\261\237\252\330"
 4374      B3ACD6BA 
 4374      B6B19FAA 
 4374      D8
 4375 4bdf C6D1DFC8 		.ascii	"\306\321\337\310\306\337\304\274\335\305\275\340\313"
 4375      C6DFC4BC 
 4375      DDC5BDE0 
 4375      CB
 4376 4bec CED5C8D8 		.ascii	"\316\325\310\330\327\306\325\332\304\313\335\306\312"
 4376      D7C6D5DA 
 4376      C4CBDDC6 
ARM GAS  C:\Users\pbant\AppData\Local\Temp\ccAmOMRv.s 			page 218


 4376      CA
 4377 4bf9 DAC3C8CE 		.ascii	"\332\303\310\316\271\307\330\277\310\314\266\310\316"
 4377      B9C7D8BF 
 4377      C8CCB6C8 
 4377      CE
 4378 4c06 B4C5D1B2 		.ascii	"\264\305\321\262\277\307\254\300\316\260\267\327\267"
 4378      BFC7ACC0 
 4378      CEB0B7D7 
 4378      B7
 4379 4c13 BFCEB6C3 		.ascii	"\277\316\266\303\303\252\304\307\262\302\313\274\317"
 4379      C3AAC4C7 
 4379      B2C2CBBC 
 4379      CF
 4380 4c20 CBBACFC9 		.ascii	"\313\272\317\311\272\316\303\300\321\305\310\327\306"
 4380      BACEC3C0 
 4380      D1C5C8D7 
 4380      C6
 4381 4c2d 9565C797 		.ascii	"\225e\307\227j\307\230j\311\227i\311\227i\305\230k\306"
 4381      6AC7986A 
 4381      C99769C9 
 4381      9769C598 
 4381      6BC6
 4382 4c3f 996FC79C 		.ascii	"\231o\307\234r\311\234v\313\236y\314\237y\313\236t\312"
 4382      72C99C76 
 4382      CB9E79CC 
 4382      9F79CB9E 
 4382      74CA
 4383 4c51 9C70C898 		.ascii	"\234p\310\230i\306\225c\303\222Z\303\217P\301\212E\300"
 4383      69C69563 
 4383      C3925AC3 
 4383      8F50C18A 
 4383      45C0
 4384 4c63 873DBC84 		.ascii	"\207=\274\2046\273\2012\273\2000\274~.\273~+\274}&\274"
 4384      36BB8132 
 4384      BB8030BC 
 4384      7E2EBB7E 
 4384      2BBC7D26 
 4385 4c78 7C23C382 		.ascii	"|#\303\202!LGG?\0171|%9\2050<\231H=\251b@\272r?\303"
 4385      214C4747 
 4385      3F0F317C 
 4385      25398530 
 4385      3C99483D 
 4386 4c93 7839D083 		.ascii	"x9\320\203:\334\222;\347\2309\353\2210\334\2103\305"
 4386      3ADC923B 
 4386      E79839EB 
 4386      9130DC88 
 4386      33C5
 4387 4ca5 8B37C893 		.ascii	"\2137\310\2238\314\2332\334\235*\347\226)\356\232%\357"
 4387      38CC9B32 
 4387      DC9D2AE7 
 4387      9629EE9A 
 4387      25EF
 4388 4cb7 A31EE3A1 		.ascii	"\243\036\343\241\026\320\232\033\343\300\030\360\330"
 4388      16D09A1B 
 4388      E3C018F0 
 4388      D8
 4389 4cc4 0EF4E60D 		.ascii	"\016\364\346\015\354\323\006\331\245\022\322\243\020"
ARM GAS  C:\Users\pbant\AppData\Local\Temp\ccAmOMRv.s 			page 219


 4389      ECD306D9 
 4389      A512D2A3 
 4389      10
 4390 4cd1 E9D107E4 		.ascii	"\351\321\007\344\277\017\366\262\017\377\303\011\232"
 4390      BF0FF6B2 
 4390      0FFFC309 
 4390      9A
 4391 4cde 80340C4E 		.ascii	"\2004\014N\246/\210\334/v\307\0317r#I~Vu\215>n\235]"
 4391      A62F88DC 
 4391      2F76C719 
 4391      37722349 
 4391      7E56758D 
 4392 4cf6 84ACC198 		.ascii	"\204\254\301\230k\323\250~\317\252\211\312\246\222\315"
 4392      6BD3A87E 
 4392      CFAA89CA 
 4392      A692CD
 4393 4d05 B0ABDBBF 		.ascii	"\260\253\333\277\276\330\300\310\326\311\327\333\314"
 4393      BED8C0C8 
 4393      D6C9D7DB 
 4393      CC
 4394 4d12 D5DFCACB 		.ascii	"\325\337\312\313\337\311\307\334\307\313\326\306\325"
 4394      DFC9C7DC 
 4394      C7CBD6C6 
 4394      D5
 4395 4d1f D7C9D8DC 		.ascii	"\327\311\330\334\311\323\334\304\311\320\266\275\315"
 4395      C9D3DCC4 
 4395      C9D0B6BD 
 4395      CD
 4396 4d2c B4C0D7BD 		.ascii	"\264\300\327\275\303\311\263\312\310\260\305\312\257"
 4396      C3C9B3CA 
 4396      C8B0C5CA 
 4396      AF
 4397 4d39 C4C8ABC5 		.ascii	"\304\310\253\305\320\266\306\316\260\274\302\245\270"
 4397      D0B6C6CE 
 4397      B0BCC2A5 
 4397      B8
 4398 4d46 C8B3CACA 		.ascii	"\310\263\312\312\272\316\323\311\331\322\310\333\302"
 4398      BACED3C9 
 4398      D9D2C8DB 
 4398      C2
 4399 4d53 C2D3C3C3 		.ascii	"\302\323\303\303\324\311\231j\310\231n\310\230n\307"
 4399      D4C9996A 
 4399      C8996EC8 
 4399      986EC7
 4400 4d62 976BC797 		.ascii	"\227k\307\227l\307\230m\311\231q\311\234t\313\236y\314"
 4400      6CC7986D 
 4400      C99971C9 
 4400      9C74CB9E 
 4400      79CC
 4401 4d74 A07BCDA0 		.ascii	"\240{\315\240|\312\237y\312\236t\312\235o\311\232i\306"
 4401      7CCA9F79 
 4401      CA9E74CA 
 4401      9D6FC99A 
 4401      69C6
 4402 4d86 9762C594 		.ascii	"\227b\305\224Z\303\220P\302\213F\277\210>\276\2068\275"
 4402      5AC39050 
 4402      C28B46BF 
ARM GAS  C:\Users\pbant\AppData\Local\Temp\ccAmOMRv.s 			page 220


 4402      883EBE86 
 4402      38BD
 4403 4d98 8434BD82 		.ascii	"\2044\275\2022\274\2012\275\2000\301\203*\270~,#$8@"
 4403      32BC8132 
 4403      BD8030C1 
 4403      832AB87E 
 4403      2C232438 
 4404 4dad 112C7928 		.ascii	"\021,y(7r$:\231K?\250Y<\270`@\307wA\330\212?\345\220"
 4404      3772243A 
 4404      994B3FA8 
 4404      593CB860 
 4404      40C77741 
 4405 4dc6 3CD98A39 		.ascii	"<\331\2129\320\215>\312\226B\324\244:\332\2365\340\232"
 4405      D08D3ECA 
 4405      9642D4A4 
 4405      3ADA9E35 
 4405      E09A
 4406 4dd8 34EE9E2F 		.ascii	"4\356\236/\355\240(\341\236$\317\235)\311\244 \323\263"
 4406      EDA028E1 
 4406      9E24CF9D 
 4406      29C9A420 
 4406      D3B3
 4407 4dea 1DE7C51B 		.ascii	"\035\347\305\033\370\345\016\356\307#\335\246-\341\271"
 4407      F8E50EEE 
 4407      C723DDA6 
 4407      2DE1B9
 4408 4df9 10F9DB05 		.ascii	"\020\371\333\005\353\307\022\350\250\026\377\310\021"
 4408      EBC712E8 
 4408      A816FFC8 
 4408      11
 4409 4e06 D59F112C 		.ascii	"\325\237\021,Jy\036p\313<\223\3462~\316\026=|DYxY\200"
 4409      4A791E70 
 4409      CB3C93E6 
 4409      327ECE16 
 4409      3D7C4459 
 4410 4e1d 994D8C   		.ascii	"\231M\214"
 4411 4e20 C38F9593 		.ascii	"\303\217\225\223\242\211s\321\251\204\325\263\233\325"
 4411      A28973D1 
 4411      A984D5B3 
 4411      9BD5
 4412 4e2e B69FD1B2 		.ascii	"\266\237\321\262\236\324\271\265\325\273\267\325\275"
 4412      9ED4B9B5 
 4412      D5BBB7D5 
 4412      BD
 4413 4e3b C0D6C7D2 		.ascii	"\300\326\307\322\331\313\327\337\315\322\341\316\321"
 4413      D9CBD7DF 
 4413      CDD2E1CE 
 4413      D1
 4414 4e48 DDC8D1D6 		.ascii	"\335\310\321\326\310\327\323\306\327\330\306\323\332"
 4414      C8D7D3C6 
 4414      D7D8C6D3 
 4414      DA
 4415 4e55 C1CED3B9 		.ascii	"\301\316\323\271\314\323\266\303\324\271\304\303\255"
 4415      CCD3B6C3 
 4415      D4B9C4C3 
 4415      AD
 4416 4e62 C3C3AAC4 		.ascii	"\303\303\252\304\312\257\310\303\253\302\312\265\312"
ARM GAS  C:\Users\pbant\AppData\Local\Temp\ccAmOMRv.s 			page 221


 4416      CAAFC8C3 
 4416      ABC2CAB5 
 4416      CA
 4417 4e6f C2AAC0C8 		.ascii	"\302\252\300\310\264\311\307\266\320\310\270\317\325"
 4417      B4C9C7B6 
 4417      D0C8B8CF 
 4417      D5
 4418 4e7c D1E1CBCB 		.ascii	"\321\341\313\313\335\314\315\332\311\233k\310\233o\307"
 4418      DDCCCDDA 
 4418      C99B6BC8 
 4418      9B6FC7
 4419 4e8b 9A6FC798 		.ascii	"\232o\307\230n\307\227m\306\230o\311\233t\313\237z\316"
 4419      6EC7976D 
 4419      C6986FC9 
 4419      9B74CB9F 
 4419      7ACE
 4420 4e9d A17FCEA1 		.ascii	"\241\177\316\241\177\316\242\200\314\240{\312\236u\312"
 4420      7FCEA280 
 4420      CCA07BCA 
 4420      9E75CA
 4421 4eac 9F73CA9D 		.ascii	"\237s\312\235n\310\231g\306\227a\304\225X\304\220P\302"
 4421      6EC89967 
 4421      C69761C4 
 4421      9558C490 
 4421      50C2
 4422 4ebe 8C47C18A 		.ascii	"\214G\301\212@\300\207=\300\2069\276\2057\274\2044\306"
 4422      40C0873D 
 4422      C08639BE 
 4422      8537BC84 
 4422      34C6
 4423 4ed0 8A33815D 		.ascii	"\2123\201]/\017\004%M\0240R\0264w1<\244UB\234@B\273"
 4423      2F0F0425 
 4423      4D143052 
 4423      16347731 
 4423      3CA45542 
 4424 4ee8 5741E083 		.ascii	"WA\340\203C\325\203B\302u@\300\202@\323\234A\330\233"
 4424      43D58342 
 4424      C27540C0 
 4424      8240D39C 
 4424      41D89B
 4425 4efb 40DE9D3B 		.ascii	"@\336\235;\352\243;\351\2309\333\217;\313\2315\271\226"
 4425      EAA33BE9 
 4425      9839DB8F 
 4425      3BCB9935 
 4425      B996
 4426 4f0d 32BEA036 		.ascii	"2\276\2406\320\257)\322\251+\337\266(\346\2710\350\267"
 4426      D0AF29D2 
 4426      A92BDFB6 
 4426      28E6B930 
 4426      E8B7
 4427 4f1f 37EDC12E 		.ascii	"7\355\301.\365\305\033\352\303\034\345\256!\375\303"
 4427      F5C51BEA 
 4427      C31CE5AE 
 4427      21FDC3
 4428 4f2e 12FBC210 		.ascii	"\022\373\302\020teC\021U\2543\207\332;\224\3460\201"
 4428      74654311 
 4428      55AC3387 
ARM GAS  C:\Users\pbant\AppData\Local\Temp\ccAmOMRv.s 			page 222


 4428      DA3B94E6 
 4428      3081
 4429 4f40 D6174B93 		.ascii	"\326\027K\2230JuGz\254S|\244\322\242q\243\213z\253\223"
 4429      304A7547 
 4429      7AAC537C 
 4429      A4D2A271 
 4429      A38B7AAB 
 4430 4f55 81D7B499 		.ascii	"\201\327\264\231\325\266\244\332\273\254\331\273\257"
 4430      D5B6A4DA 
 4430      BBACD9BB 
 4430      AF
 4431 4f62 D2B5AAD5 		.ascii	"\322\265\252\325\273\271\324\274\304\325\301\317\327"
 4431      BBB9D4BC 
 4431      C4D5C1CF 
 4431      D7
 4432 4f6f C4D3DACB 		.ascii	"\304\323\332\313\327\337\316\326\332\307\322\326\306"
 4432      D7DFCED6 
 4432      DAC7D2D6 
 4432      C6
 4433 4f7c D9D3C7DA 		.ascii	"\331\323\307\332\325\303\323\327\302\323\320\266\314"
 4433      D5C3D3D7 
 4433      C2D3D0B6 
 4433      CC
 4434 4f89 D2B6CBD5 		.ascii	"\322\266\313\325\266\305\300\243\266\302\246\276\306"
 4434      B6C5C0A3 
 4434      B6C2A6BE 
 4434      C6
 4435 4f96 AFC7C0B3 		.ascii	"\257\307\300\263\311\275\257\307\273\260\307\320\303"
 4435      C9BDAFC7 
 4435      BBB0C7D0 
 4435      C3
 4436 4fa3 D8CAC0D6 		.ascii	"\330\312\300\326\304\302\325\307\311\330\305\310\327"
 4436      C4C2D5C7 
 4436      C9D8C5C8 
 4436      D7
 4437 4fb0 C89C6CC7 		.ascii	"\310\234l\307\235o\306\234q\310\233p\310\233q\307\234"
 4437      9D6FC69C 
 4437      71C89B70 
 4437      C89B71C7 
 4437      9C
 4438 4fc1 72CA9E78 		.ascii	"r\312\236x\313\242\177\316\244\203\317\243\202\316\244"
 4438      CBA27FCE 
 4438      A483CFA3 
 4438      82CEA4
 4439 4fd0 82CDA27E 		.ascii	"\202\315\242~\314\240y\312\240u\313\240s\313\235l\310"
 4439      CCA079CA 
 4439      A075CBA0 
 4439      73CB9D6C 
 4439      C8
 4440 4fe1 9A65C598 		.ascii	"\232e\305\230^\306\224U\305\220N\303\215G\301\213D\302"
 4440      5EC69455 
 4440      C5904EC3 
 4440      8D47C18B 
 4440      44C2
 4441 4ff3 8A3FC088 		.ascii	"\212?\300\210=\276\2109\313\2208W@/\013\000!Z\0376}"
 4441      3DBE8839 
 4441      CB903857 
ARM GAS  C:\Users\pbant\AppData\Local\Temp\ccAmOMRv.s 			page 223


 4441      402F0B00 
 4441      215A1F36 
 4442 5008 2C3E9E49 		.ascii	",>\236I=\262Y=\266Q?\326j@\320xB\270lC\261o>\301\203"
 4442      3DB2593D 
 4442      B6513FD6 
 4442      6A40D078 
 4442      42B86C43 
 4443 5021 3CDE9B35 		.ascii	"<\336\2335\344\233=\343\222C\343\225>\330\233?\303\233"
 4443      E49B3DE3 
 4443      9243E395 
 4443      3ED89B3F 
 4443      C39B
 4444 5033 50C19E4A 		.ascii	"P\301\236J\304\236;\304\2330\316\237-\320\247,\325\251"
 4444      C49E3BC4 
 4444      9B30CE9F 
 4444      2DD0A72C 
 4444      D5A9
 4445 5045 31DEA938 		.ascii	"1\336\2518\363\2761\362\2570\345\256+\327\252*\364\273"
 4445      F3BE31F2 
 4445      AF30E5AE 
 4445      2BD7AA2A 
 4445      F4BB
 4446 5057 15FEC214 		.ascii	"\025\376\302\024\266\214\036 G\204\033h\2774\214\337"
 4446      B68C1E20 
 4446      47841B68 
 4446      BF348CDF 
 4447 5067 348CE029 		.ascii	"4\214\340)w\312\024R\236)i\255<t\260\221\204z\325\235"
 4447      77CA1452 
 4447      9E2969AD 
 4447      3C74B091 
 4447      847AD59D 
 4448 507b 63C69F78 		.ascii	"c\306\237x}sv\317\257\250\325\264\245\327\270\253\331"
 4448      7D7376CF 
 4448      AFA8D5B4 
 4448      A5D7B8AB 
 4448      D9
 4449 508c BCB4DABB 		.ascii	"\274\264\332\273\263\333\277\270\325\277\277\323\302"
 4449      B3DBBFB8 
 4449      D5BFBFD3 
 4449      C2
 4450 5099 C9D9C6D3 		.ascii	"\311\331\306\323\335\311\325\330\310\323\331\314\333"
 4450      DDC9D5D8 
 4450      C8D3D9CC 
 4450      DB
 4451 50a6 DAC6D5D5 		.ascii	"\332\306\325\325\307\330\324\307\332\311\275\317\321"
 4451      C7D8D4C7 
 4451      DAC9BDCF 
 4451      D1
 4452 50b3 C1D6CEBD 		.ascii	"\301\326\316\275\325\313\270\313\320\262\300\302\253"
 4452      D5CBB8CB 
 4452      D0B2C0C2 
 4452      AB
 4453 50c0 C1BBA6BF 		.ascii	"\301\273\246\277\311\257\310\305\264\313\263\261\311"
 4453      C9AFC8C5 
 4453      B4CBB3B1 
 4453      C9
 4454 50cd CDC6DACF 		.ascii	"\315\306\332\317\314\334\305\304\327\271\277\320\272"
ARM GAS  C:\Users\pbant\AppData\Local\Temp\ccAmOMRv.s 			page 224


 4454      CCDCC5C4 
 4454      D7B9BFD0 
 4454      BA
 4455 50da C4D4CA9C 		.ascii	"\304\324\312\234l\310\235o\311\236t\312\240v\313\240"
 4455      6CC89D6F 
 4455      C99E74CA 
 4455      A076CBA0 
 4456 50ea 79CBA179 		.ascii	"y\313\241y\315\243~\315\245\202\317\245\205\320\245"
 4456      CDA37ECD 
 4456      A582CFA5 
 4456      85D0A5
 4457 50f9 85D0A584 		.ascii	"\205\320\245\204\317\244\201\316\242|\315\242x\315\242"
 4457      CFA481CE 
 4457      A27CCDA2 
 4457      78CDA2
 4458 5108 77CB9F71 		.ascii	"w\313\237q\312\234j\306\231b\307\226Y\306\223S\304\221"
 4458      CA9C6AC6 
 4458      9962C796 
 4458      59C69353 
 4458      C491
 4459 511a 4DC18D47 		.ascii	"M\301\215G\302\214D\303\213C\301\213B\310\217=\214g"
 4459      C28C44C3 
 4459      8B43C18B 
 4459      42C88F3D 
 4459      8C67
 4460 512c 350F0B2C 		.ascii	"5\017\013,n\0346\213)>\2278=\276V@\313e?\262[:\241U"
 4460      6E1C368B 
 4460      293E9738 
 4460      3DBE5640 
 4460      CB653FB2 
 4461 5144 3AB26D3E 		.ascii	":\262m>\301|:\327\2137\350\2227\337\211=\327\221B\324"
 4461      C17C3AD7 
 4461      8B37E892 
 4461      37DF893D 
 4461      D79142D4 
 4462 5158 A44DCEA5 		.ascii	"\244M\316\245Q\306\233L\301\224@\314\2274\312\2230\303"
 4462      51C69B4C 
 4462      C19440CC 
 4462      9734CA93 
 4462      30C3
 4463 516a 9336CB9F 		.ascii	"\2236\313\2375\326\2366\353\2534\362\2542\340\235/\314"
 4463      35D69E36 
 4463      EBAB34F2 
 4463      AC32E09D 
 4463      2FCC
 4464 517c A030E3AF 		.ascii	"\2400\343\257#\367\254\033\327\245\033^[W\015M\244\036"
 4464      23F7AC1B 
 4464      D7A51B5E 
 4464      5B570D4D 
 4464      A41E
 4465 518e 67B8297A 		.ascii	"g\270)z\315%t\306\034f\265\017T\2418w\266Fh\224\300"
 4465      CD2574C6 
 4465      1C66B50F 
 4465      54A13877 
 4465      B6466894 
 4466 51a3 9B6ECB9B 		.ascii	"\233n\313\233i\316\240z\270\231\202\320\257\236\324"
 4466      69CEA07A 
ARM GAS  C:\Users\pbant\AppData\Local\Temp\ccAmOMRv.s 			page 225


 4466      B89982D0 
 4466      AF9ED4
 4467 51b2 B7ADD5B7 		.ascii	"\267\255\325\267\266\323\270\265\332\300\300\327\300"
 4467      B6D3B8B5 
 4467      DAC0C0D7 
 4467      C0
 4468 51bf BFD8C1C2 		.ascii	"\277\330\301\302\335\307\311\331\304\310\327\311\317"
 4468      DDC7C9D9 
 4468      C4C8D7C9 
 4468      CF
 4469 51cc D8C9CFDD 		.ascii	"\330\311\317\335\306\317\332\310\326\324\305\330\330"
 4469      C6CFDAC8 
 4469      D6D4C5D8 
 4469      D8
 4470 51d9 CFDED3C3 		.ascii	"\317\336\323\303\326\302\272\317\310\276\324\305\273"
 4470      D6C2BACF 
 4470      C8BED4C5 
 4470      BB
 4471 51e6 D1CCB9CF 		.ascii	"\321\314\271\317\323\265\313\301\255\303\305\264\315"
 4471      D3B5CBC1 
 4471      ADC3C5B4 
 4471      CD
 4472 51f3 D3C0D7C2 		.ascii	"\323\300\327\302\272\316\266\272\315\325\324\341\314"
 4472      BACEB6BA 
 4472      CDD5D4E1 
 4472      CC
 4473 5200 CFDCBCC3 		.ascii	"\317\334\274\303\323\265\300\321\312\234p\312\236s\313"
 4473      D3B5C0D1 
 4473      CA9C70CA 
 4473      9E73CB
 4474 520f A077CDA3 		.ascii	"\240w\315\243|\317\244~\315\243\200\317\245\202\316"
 4474      7CCFA47E 
 4474      CDA380CF 
 4474      A582CE
 4475 521e A683D0A6 		.ascii	"\246\203\320\246\206\320\246\205\320\246\205\320\245"
 4475      86D0A685 
 4475      D0A685D0 
 4475      A5
 4476 522b 82CFA47F 		.ascii	"\202\317\244\177\316\243|\315\243y\313\241u\312\235"
 4476      CEA37CCD 
 4476      A379CBA1 
 4476      75CA9D
 4477 523a 6DC89A64 		.ascii	"m\310\232d\306\227\\\304\223T\305\222P\303\220K\303"
 4477      C6975CC4 
 4477      9354C592 
 4477      50C3904B 
 4477      C3
 4478 524b 8F49C28E 		.ascii	"\217I\302\216H\302\215G\302\214A\315\2209^P?&\005-a"
 4478      48C28D47 
 4478      C28C41CD 
 4478      90395E50 
 4478      3F26052D 
 4479 5260 1437AF47 		.ascii	"\0247\257GB\267U?\241L:\223E:\257a:\305s=\314r=\344"
 4479      42B7553F 
 4479      A14C3A93 
 4479      453AAF61 
 4479      3AC5733D 
ARM GAS  C:\Users\pbant\AppData\Local\Temp\ccAmOMRv.s 			page 226


 4480 5278 843ACF73 		.ascii	"\204:\317s7\316\214=\325\245E\320\241K\310\227F\311"
 4480      37CE8C3D 
 4480      D5A545D0 
 4480      A14BC897 
 4480      46C9
 4481 528a 9440CF95 		.ascii	"\224@\317\2257\323\2201\270\2034\271\217:\317\2345\353"
 4481      37D39031 
 4481      B88334B9 
 4481      8F3ACF9C 
 4481      35EB
 4482 529c A62FECA1 		.ascii	"\246/\354\2410\347\2415\307\2301\321\2463\373\247\037"
 4482      30E7A135 
 4482      C79831D1 
 4482      A633FBA7 
 4482      1F
 4483 52ad E69C219F 		.ascii	"\346\234!\237}7\037C\211\022R\243\030]\254\030`\260"
 4483      7D371F43 
 4483      891252A3 
 4483      185DAC18 
 4483      60B0
 4484 52bf 165FB013 		.ascii	"\026_\260\023]\256\016T\242W\233\327s\216\247\321\241"
 4484      5DAE0E54 
 4484      A2579BD7 
 4484      738EA7D1 
 4484      A1
 4485 52d0 77CDA57C 		.ascii	"w\315\245|\320\245\200\321\245\201\321\256\226\325\266"
 4485      D0A580D1 
 4485      A581D1AE 
 4485      96D5B6
 4486 52df ABD8B9B1 		.ascii	"\253\330\271\261\323\267\262\321\270\275\324\273\277"
 4486      D3B7B2D1 
 4486      B8BDD4BB 
 4486      BF
 4487 52ec D4BABBD4 		.ascii	"\324\272\273\324\270\273\326\273\307\324\276\305\320"
 4487      B8BBD6BB 
 4487      C7D4BEC5 
 4487      D0
 4488 52f9 BEC9D1C1 		.ascii	"\276\311\321\301\320\327\304\321\332\304\324\325\302"
 4488      D0D7C4D1 
 4488      DAC4D4D5 
 4488      C2
 4489 5306 D4D1C6D8 		.ascii	"\324\321\306\330\321\303\331\311\270\320\275\265\314"
 4489      D1C3D9C9 
 4489      B8D0BDB5 
 4489      CC
 4490 5313 C0BACEC7 		.ascii	"\300\272\316\307\271\320\317\272\321\305\263\314\313"
 4490      B9D0CFBA 
 4490      D1C5B3CC 
 4490      CB
 4491 5320 B9D1D6CA 		.ascii	"\271\321\326\312\334\263\272\313\302\307\326\303\312"
 4491      DCB3BACB 
 4491      C2C7D6C3 
 4491      CA
 4492 532d DABEC7D6 		.ascii	"\332\276\307\326\265\275\315\312\235r\314\237w\316\242"
 4492      B5BDCDCA 
 4492      9D72CC9F 
 4492      77CEA2
ARM GAS  C:\Users\pbant\AppData\Local\Temp\ccAmOMRv.s 			page 227


 4493 533c 7DCFA582 		.ascii	"}\317\245\202\320\246\203\317\245\202\317\245\202\317"
 4493      D0A683CF 
 4493      A582CFA5 
 4493      82CF
 4494 534a A784D0A7 		.ascii	"\247\204\320\247\206\317\246\205\317\246\204\320\247"
 4494      86CFA685 
 4494      CFA684D0 
 4494      A7
 4495 5357 83CFA582 		.ascii	"\203\317\245\202\317\244~\316\244{\314\243w\313\237"
 4495      CFA47ECE 
 4495      A47BCCA3 
 4495      77CB9F
 4496 5366 6FC89B65 		.ascii	"o\310\233e\306\231]\306\225X\310\223T\310\222P\305\220"
 4496      C6995DC6 
 4496      9558C893 
 4496      54C89250 
 4496      C590
 4497 5378 4DC3904A 		.ascii	"M\303\220J\303\217H\304\216C\307\216;\252}<\034\026"
 4497      C38F48C4 
 4497      8E43C78E 
 4497      3BAA7D3C 
 4497      1C16
 4498 538a 3D782038 		.ascii	"=x 8\242>=\230C9\237J;\254T?\271Y=\317q?\344\206=\334"
 4498      A23E3D98 
 4498      43399F4A 
 4498      3BAC543F 
 4498      B9593DCF 
 4499 53a4 8B3CC186 		.ascii	"\213<\301\206;\306\220=\313\224=\322\226>\327\230<\323"
 4499      3BC6903D 
 4499      CB943DD2 
 4499      963ED798 
 4499      3CD3
 4500 53b6 8C37DA92 		.ascii	"\2147\332\2225\275\1778\257\2076\316\2326\344\2405\361"
 4500      35BD7F38 
 4500      AF8736CE 
 4500      9A36E4A0 
 4500      35F1
 4501 53c8 9E30E59A 		.ascii	"\2360\345\232=\334\236?\311\2434\353\235(\355\214!\306"
 4501      3DDC9E3F 
 4501      C9A334EB 
 4501      9D28ED8C 
 4501      21C6
 4502 53da 8F275A52 		.ascii	"\217'ZR_\012A\221\024O\236\023W\247\016Q\242\022X\252"
 4502      5F0A4191 
 4502      144F9E13 
 4502      57A70E51 
 4502      A21258AA 
 4503 53ee 084FA229 		.ascii	"\010O\242)e\250y\271\341\256\221a\315\230[\321\251\217"
 4503      65A879B9 
 4503      E1AE9161 
 4503      CD985BD1 
 4503      A98F
 4504 5400 D1AD98CE 		.ascii	"\321\255\230\316\251\220\323\257\225\325\263\235\323"
 4504      A990D3AF 
 4504      95D5B39D 
 4504      D3
 4505 540d B4A7D8BB 		.ascii	"\264\247\330\273\263\332\275\266\324\267\265\320\260"
ARM GAS  C:\Users\pbant\AppData\Local\Temp\ccAmOMRv.s 			page 228


 4505      B3DABDB6 
 4505      D4B7B5D0 
 4505      B0
 4506 541a B3D0B2B1 		.ascii	"\263\320\262\261\321\266\265\323\271\306\325\271\312"
 4506      D1B6B5D3 
 4506      B9C6D5B9 
 4506      CA
 4507 5427 CAB8C5CB 		.ascii	"\312\270\305\313\275\320\321\302\324\323\301\324\315"
 4507      BDD0D1C2 
 4507      D4D3C1D4 
 4507      CD
 4508 5434 B7C8C9BB 		.ascii	"\267\310\311\273\315\314\301\323\314\275\323\314\300"
 4508      CDCCC1D3 
 4508      CCBDD3CC 
 4508      C0
 4509 5441 D5C1B9CF 		.ascii	"\325\301\271\317\303\274\321\314\303\327\300\274\317"
 4509      C3BCD1CC 
 4509      C3D7C0BC 
 4509      CF
 4510 544e CEC0D6C5 		.ascii	"\316\300\326\305\302\325\307\307\327\274\302\325\262"
 4510      C2D5C7C7 
 4510      D7BCC2D5 
 4510      B2
 4511 545b BED0BDC4 		.ascii	"\276\320\275\304\323\312\236r\315\240w\320\243\177\317"
 4511      D3CA9E72 
 4511      CDA077D0 
 4511      A37FCF
 4512 546a A685D0A8 		.ascii	"\246\205\320\250\205\317\247\202\316\246\201\316\246"
 4512      85CFA782 
 4512      CEA681CE 
 4512      A6
 4513 5477 83CEA684 		.ascii	"\203\316\246\204\316\245\204\317\246\205\320\246\204"
 4513      CEA584CF 
 4513      A685D0A6 
 4513      84
 4514 5484 CEA683CF 		.ascii	"\316\246\203\317\245\177\320\245|\316\244y\313\240q"
 4514      A57FD0A5 
 4514      7CCEA479 
 4514      CBA071
 4515 5493 C89B67C7 		.ascii	"\310\233g\307\231`\310\227[\307\225W\305\224R\305\222"
 4515      9960C897 
 4515      5BC79557 
 4515      C59452C5 
 4515      92
 4516 54a4 50C5914D 		.ascii	"P\305\221M\305\220J\303\216G\305\216?\254\201<1\030"
 4516      C5904AC3 
 4516      8E47C58E 
 4516      3FAC813C 
 4516      3118
 4517 54b6 3781233D 		.ascii	"7\201#=\231<9\2217<\236C<\22159\272Z;\337\201A\322\200"
 4517      993C3991 
 4517      373C9E43 
 4517      3C913539 
 4517      BA5A3BDF 
 4518 54ce 3EC1813E 		.ascii	">\301\201>\277\202D\303\205@\311\2077\320\205<\331\201"
 4518      BF8244C3 
 4518      8540C987 
ARM GAS  C:\Users\pbant\AppData\Local\Temp\ccAmOMRv.s 			page 229


 4518      37D0853C 
 4518      D981
 4519 54e0 39DA8C37 		.ascii	"9\332\2147\300{7\250{=\311\2278\336\2270\346\2214\343"
 4519      C07B37A8 
 4519      7B3DC997 
 4519      38DE9730 
 4519      E69134E3 
 4520 54f4 8B37DC96 		.ascii	"\2137\334\226E\311\226<\323\233+\357\211 \322\211\""
 4520      45C9963C 
 4520      D39B2BEF 
 4520      8920D289 
 4520      22
 4521 5505 95654318 		.ascii	"\225eC\0307x\016B\216\020L\233\015R\237\015P\236\013"
 4521      37780E42 
 4521      8E104C9B 
 4521      0D529F0D 
 4521      509E0B
 4522 5518 51A10846 		.ascii	"Q\241\010F\226\177\267\341\226\272\277\311\220K\306"
 4522      967FB7E1 
 4522      96BABFC9 
 4522      904BC6
 4523 5527 914ECB9C 		.ascii	"\221N\313\234g\322\256\221\323\263\256\317\257\255\321"
 4523      67D2AE91 
 4523      D3B3AECF 
 4523      AFADD1
 4524 5536 B0A4D5B6 		.ascii	"\260\244\325\266\245\332\273\257\331\276\266\332\277"
 4524      A5DABBAF 
 4524      D9BEB6DA 
 4524      BF
 4525 5543 B8D8BCB8 		.ascii	"\270\330\274\270\324\272\275\317\267\277\313\263\275"
 4525      D4BABDCF 
 4525      B7BFCBB3 
 4525      BD
 4526 5550 D1BAC9D0 		.ascii	"\321\272\311\320\267\276\317\263\276\316\270\310\320"
 4526      B7BECFB3 
 4526      BECEB8C8 
 4526      D0
 4527 555d BDCCC5BB 		.ascii	"\275\314\305\273\316\302\260\307\300\266\314\301\274"
 4527      CEC2B0C7 
 4527      C0B6CCC1 
 4527      BC
 4528 556a CFCFC4D9 		.ascii	"\317\317\304\331\314\271\317\300\270\315\305\302\326"
 4528      CCB9CFC0 
 4528      B8CDC5C2 
 4528      D6
 4529 5577 C5C5D6B9 		.ascii	"\305\305\326\271\277\317\311\310\331\277\305\326\312"
 4529      BFCFC9C8 
 4529      D9BFC5D6 
 4529      CA
 4530 5584 D0DFB0BF 		.ascii	"\320\337\260\277\317\271\277\320\314\237t\316\241w\321"
 4530      CFB9BFD0 
 4530      CC9F74CE 
 4530      A177D1
 4531 5593 A581D1A8 		.ascii	"\245\201\321\250\206\321\251\206\320\251\203\317\247"
 4531      86D1A986 
 4531      D0A983CF 
 4531      A7
ARM GAS  C:\Users\pbant\AppData\Local\Temp\ccAmOMRv.s 			page 230


 4532 55a0 82CDA582 		.ascii	"\202\315\245\202\316\246\203\317\246\205\320\247\206"
 4532      CEA683CF 
 4532      A685D0A7 
 4532      86
 4533 55ad CFA785CE 		.ascii	"\317\247\205\316\246\203\320\245\177\317\244{\315\244"
 4533      A683D0A5 
 4533      7FCFA47B 
 4533      CDA4
 4534 55bb 79CCA172 		.ascii	"y\314\241r\312\234i\310\233c\307\231\\\306\227Z\307"
 4534      CA9C69C8 
 4534      9B63C799 
 4534      5CC6975A 
 4534      C7
 4535 55cc 9456C792 		.ascii	"\224V\307\222S\305\221M\305\220K\304\220I\316\225F\212"
 4535      53C5914D 
 4535      C5904BC4 
 4535      9049CE95 
 4535      468A
 4536 55de 67391E07 		.ascii	"g9\036\007&t\0368\227:=|&=u%8\261"
 4536      26741E38 
 4536      973A3D7C 
 4536      263D7525 
 4536      38B1
 4537 55f0 583BE07C 		.ascii	"X;\340|<\317{B\275{A\264rD\301~C\300x=\304n>\322o>\326"
 4537      3CCF7B42 
 4537      BD7B41B4 
 4537      7244C17E 
 4537      43C0783D 
 4538 560b 8138C880 		.ascii	"\2018\310\200:\241n>\305\224?\331\2254\343\213-\332"
 4538      3AA16E3E 
 4538      C5943FD9 
 4538      9534E38B 
 4538      2DDA
 4539 561d 7D31CF84 		.ascii	"}1\317\204=\311\217@\306\2267\343\210&\332z\035\251"
 4539      3DC98F40 
 4539      C69637E3 
 4539      8826DA7A 
 4539      1DA9
 4540 562f 66314B40 		.ascii	"f1K@h\0044\201\016A\212\016M\233\012L\231\015R\237\007"
 4540      68043481 
 4540      0E418A0E 
 4540      4D9B0A4C 
 4540      990D529F 
 4541 5644 509E7877 		.ascii	"P\236xwr\305\300\242\273\231i\311\226a\310\226f\312"
 4541      72C5C0A2 
 4541      BB9969C9 
 4541      9661C896 
 4541      66CA
 4542 5656 9D71CFA7 		.ascii	"\235q\317\247\203\326\264\235\332\275\273\325\265\266"
 4542      83D6B49D 
 4542      DABDBBD5 
 4542      B5B6
 4543 5664 D2B5B4D3 		.ascii	"\322\265\264\323\267\263\324\271\256\326\270\261\324"
 4543      B7B3D4B9 
 4543      AED6B8B1 
 4543      D4
 4544 5671 B8B8D5BD 		.ascii	"\270\270\325\275\275\324\271\274\324\271\276\313\265"
ARM GAS  C:\Users\pbant\AppData\Local\Temp\ccAmOMRv.s 			page 231


 4544      BDD4B9BC 
 4544      D4B9BECB 
 4544      B5
 4545 567e BECBBAC7 		.ascii	"\276\313\272\307\311\265\304\306\263\306\316\263\303"
 4545      C9B5C4C6 
 4545      B3C6CEB3 
 4545      C3
 4546 568b CCB6C7C2 		.ascii	"\314\266\307\302\263\310\305\275\320\305\300\322\274"
 4546      B3C8C5BD 
 4546      D0C5C0D2 
 4546      BC
 4547 5698 BECFC9BC 		.ascii	"\276\317\311\274\320\323\277\323\311\302\324\300\276"
 4547      D0D3BFD3 
 4547      C9C2D4C0 
 4547      BE
 4548 56a5 D2BDC1D4 		.ascii	"\322\275\301\324\312\317\335\313\320\336\320\330\346"
 4548      CACFDDCB 
 4548      D0DED0D8 
 4548      E6
 4549 56b2 C3C2D3B7 		.ascii	"\303\302\323\267\275\320\313\236u\316\242|\320\246\204"
 4549      BDD0CB9E 
 4549      75CEA27C 
 4549      D0A684
 4550 56c1 D2A988D2 		.ascii	"\322\251\210\322\252\210\320\252\206\320\247\203\316"
 4550      AA88D0AA 
 4550      86D0A783 
 4550      CE
 4551 56ce A582CFA6 		.ascii	"\245\202\317\246\203\320\247\205\320\247\206\320\247"
 4551      83D0A785 
 4551      D0A786D0 
 4551      A7
 4552 56db 86D0A786 		.ascii	"\206\320\247\206\317\246\201\316\244z\315\243w\313\241"
 4552      CFA681CE 
 4552      A47ACDA3 
 4552      77CBA1
 4553 56ea 70CA9D69 		.ascii	"p\312\235i\311\232d\306\231^\306\230Z\306\226X\307\224"
 4553      C99A64C6 
 4553      995EC698 
 4553      5AC69658 
 4553      C794
 4554 56fc 54C6924F 		.ascii	"T\306\222O\306\222L\305\222J\315\230J\220l=\024\002"
 4554      C6924CC5 
 4554      924ACD98 
 4554      4A906C3D 
 4554      1402
 4555 570e 225A1532 		.ascii	"\"Z\0252y*>_\033=\257P>\342t@\306jA\271sE\254iD\271"
 4555      792A3E5F 
 4555      1B3DAF50 
 4555      3EE27440 
 4555      C66A41B9 
 4556 5728 7143C176 		.ascii	"qC\301vF\301dE\314e@\332\177<\302s8\243k<\300\214@\330"
 4556      46C16445 
 4556      CC6540DA 
 4556      7F3CC273 
 4556      38A36B3C 
 4557 5740 9138E487 		.ascii	"\2218\344\2070\345~1\326v1\326\2218\313\2228\303\177"
 4557      30E57E31 
ARM GAS  C:\Users\pbant\AppData\Local\Temp\ccAmOMRv.s 			page 232


 4557      D67631D6 
 4557      9138CB92 
 4557      38C37F
 4558 5753 4ADE744B 		.ascii	"J\336tK\262a@uJS\0175{\010:\204\015F\216\014M\233\014"
 4558      B2614075 
 4558      4A530F35 
 4558      7B083A84 
 4558      0D468E0C 
 4559 576a 4D9B0955 		.ascii	"M\233\011U\245%N\201\275\200.\310\204,\307\220F\305"
 4559      A5254E81 
 4559      BD802EC8 
 4559      842CC790 
 4559      46C5
 4560 577c 9250C99A 		.ascii	"\222P\311\232c\317\251\203\323\256\226\321\262\233\331"
 4560      63CFA983 
 4560      D3AE96D1 
 4560      B29BD9
 4561 578b BAAED7BA 		.ascii	"\272\256\327\272\271\333\300\277\325\272\266\322\264"
 4561      B9DBC0BF 
 4561      D5BAB6D2 
 4561      B4
 4562 5798 B1D1B4B2 		.ascii	"\261\321\264\262\321\262\261\314\257\253\316\260\263"
 4562      D1B2B1CC 
 4562      AFABCEB0 
 4562      B3
 4563 57a5 D2B5B4D5 		.ascii	"\322\265\264\325\270\272\320\267\301\311\263\304\305"
 4563      B8BAD0B7 
 4563      C1C9B3C4 
 4563      C5
 4564 57b2 B0BFC4AF 		.ascii	"\260\277\304\257\306\316\272\317\321\273\317\313\271"
 4564      C6CEBACF 
 4564      D1BBCFCB 
 4564      B9
 4565 57bf CCC7C0D4 		.ascii	"\314\307\300\324\313\306\327\306\300\322\311\276\321"
 4565      CBC6D7C6 
 4565      C0D2C9BE 
 4565      D1
 4566 57cc D8C8DCD2 		.ascii	"\330\310\334\322\312\334\317\310\332\304\306\327\302"
 4566      CADCCFC8 
 4566      DAC4C6D7 
 4566      C2
 4567 57d9 CADCC2D4 		.ascii	"\312\334\302\324\340\307\316\334\273\255\270\314\240"
 4567      E0C7CEDC 
 4567      BBADB8CC 
 4567      A0
 4568 57e6 79D0A47F 		.ascii	"y\320\244\177\321\247\206\322\252\211\323\253\212\321"
 4568      D1A786D2 
 4568      AA89D3AB 
 4568      8AD1
 4569 57f4 AB88D1A8 		.ascii	"\253\210\321\250\206\317\246\204\316\246\203\317\246"
 4569      86CFA684 
 4569      CEA683CF 
 4569      A6
 4570 5801 85D0A786 		.ascii	"\205\320\247\206\321\250\207\321\250\207\317\247\203"
 4570      D1A887D1 
 4570      A887CFA7 
 4570      83
ARM GAS  C:\Users\pbant\AppData\Local\Temp\ccAmOMRv.s 			page 233


 4571 580e CDA47ACC 		.ascii	"\315\244z\314\242v\313\240o\312\235i\311\233d\310\231"
 4571      A276CBA0 
 4571      6FCA9D69 
 4571      C99B64C8 
 4571      99
 4572 581f 5FC8995C 		.ascii	"_\310\231\\\306\230Z\310\227W\311\225T\310\222P\307"
 4572      C6985AC8 
 4572      9757C995 
 4572      54C89250 
 4572      C7
 4573 5830 924EC793 		.ascii	"\222N\307\223L\315\226KJ@E\"\0043J\0309\234C?\322Z?"
 4573      4CCD964B 
 4573      4A404522 
 4573      04334A18 
 4573      399C433F 
 4574 5847 B1533EA6 		.ascii	"\261S>\246WA\257`G\266hJ\270kE\275ZF\306]D\326v=\311"
 4574      5741AF60 
 4574      47B6684A 
 4574      B86B45BD 
 4574      5A46C65D 
 4575 5860 74399D60 		.ascii	"t9\235`9\271\202>\316\217<\324|6\330m4\343w2\323x6\320"
 4575      39B9823E 
 4575      CE8F3CD4 
 4575      7C36D86D 
 4575      34E37732 
 4576 5878 8E34C581 		.ascii	"\2164\305\2012\314k>\261^R\207Lf/>|\0045\201\014B\213"
 4576      32CC6B3E 
 4576      B15E5287 
 4576      4C662F3E 
 4576      7C043581 
 4577 588f 0F4F970D 		.ascii	"\017O\227\015Q\237\021V\243\004A\210CDT\312\214=\305"
 4577      519F1156 
 4577      A3044188 
 4577      434454CA 
 4577      8C3DC5
 4578 58a2 9158CA9B 		.ascii	"\221X\312\233k\312\233k\321\252\210\323\260\223\324"
 4578      6BCA9B6B 
 4578      D1AA88D3 
 4578      B093D4
 4579 58b1 AD90D5B4 		.ascii	"\255\220\325\264\227\325\265\232\325\267\243\324\271"
 4579      97D5B59A 
 4579      D5B7A3D4 
 4579      B9
 4580 58be B7DAC0C2 		.ascii	"\267\332\300\302\334\304\303\327\275\267\324\266\263"
 4580      DCC4C3D7 
 4580      BDB7D4B6 
 4580      B3
 4581 58cb D5B8B7D1 		.ascii	"\325\270\267\321\267\271\317\265\276\316\264\301\320"
 4581      B7B9CFB5 
 4581      BECEB4C1 
 4581      D0
 4582 58d8 B7C3C9B0 		.ascii	"\267\303\311\260\277\315\266\306\312\260\303\301\255"
 4582      BFCDB6C6 
 4582      CAB0C3C1 
 4582      AD
 4583 58e5 C6C5B3CC 		.ascii	"\306\305\263\314\307\265\316\313\276\325\310\274\322"
 4583      C7B5CECB 
ARM GAS  C:\Users\pbant\AppData\Local\Temp\ccAmOMRv.s 			page 234


 4583      BED5C8BC 
 4583      D2
 4584 58f2 CDC5D9CE 		.ascii	"\315\305\331\316\310\333\314\312\333\335\334\352\330"
 4584      C8DBCCCA 
 4584      DBDDDCEA 
 4584      D8
 4585 58ff D9E5D5D9 		.ascii	"\331\345\325\331\344\315\316\333\271\261\302\262\274"
 4585      E4CDCEDB 
 4585      B9B1C2B2 
 4585      BC
 4586 590c D1B3A8AA 		.ascii	"\321\263\250\252\316\242|\321\245\203\322\251\210\322"
 4586      CEA27CD1 
 4586      A583D2A9 
 4586      88D2
 4587 591a AB8BD3AC 		.ascii	"\253\213\323\254\213\322\254\212\322\253\210\317\250"
 4587      8BD2AC8A 
 4587      D2AB88CF 
 4587      A8
 4588 5927 85CFA685 		.ascii	"\205\317\246\205\320\247\206\320\247\206\321\250\207"
 4588      D0A786D0 
 4588      A786D1A8 
 4588      87
 4589 5934 D1A988D0 		.ascii	"\321\251\210\320\250\205\317\245}\314\244v\313\241o"
 4589      A885CFA5 
 4589      7DCCA476 
 4589      CBA16F
 4590 5943 CB9D69CA 		.ascii	"\313\235i\312\234f\310\231b\310\231]\307\230[\312\230"
 4590      9C66C899 
 4590      62C8995D 
 4590      C7985BCA 
 4590      98
 4591 5954 5ACA9758 		.ascii	"Z\312\227X\310\225U\306\224S\306\223Q\326\237TpWG,\005"
 4591      C89555C6 
 4591      9453C693 
 4591      51D69F54 
 4591      7057472C 
 4592 5969 307B2A3A 		.ascii	"0{*:\306N;\235;<\2048@\230IH\256XQ\262WL\263ME\272P"
 4592      C64E3B9D 
 4592      3B3C8438 
 4592      40984948 
 4592      AE5851B2 
 4593 5984 41E37740 		.ascii	"A\343w@\312m=\236Z;\256s<\302z;\327\2055\335v6\337p"
 4593      CA6D3D9E 
 4593      5A3BAE73 
 4593      3CC27A3B 
 4593      D78535DD 
 4594 599c 36C76234 		.ascii	"6\307b4\312z4\301\204.\305k,\311]4\206>AV8i\0129\202"
 4594      CA7A34C1 
 4594      842EC56B 
 4594      2CC95D34 
 4594      863E4156 
 4595 59b5 0B3A830D 		.ascii	"\013:\203\015F\215\022R\233\015T\241\017E\207\000\036"
 4595      468D1252 
 4595      9B0D54A1 
 4595      0F458700 
 4595      1E
 4596 59c6 5A7A614A 		.ascii	"ZzaJ\320\230Q\302\221W\306\225e\316\241\201\315\246"
ARM GAS  C:\Users\pbant\AppData\Local\Temp\ccAmOMRv.s 			page 235


 4596      D09851C2 
 4596      9157C695 
 4596      65CEA181 
 4596      CDA6
 4597 59d8 8ACFAE9A 		.ascii	"\212\317\256\232\324\267\262\327\276\271\331\274\265"
 4597      D4B7B2D7 
 4597      BEB9D9BC 
 4597      B5
 4598 59e5 D9BEAFD7 		.ascii	"\331\276\257\327\272\257\336\300\275\337\307\305\340"
 4598      BAAFDEC0 
 4598      BDDFC7C5 
 4598      E0
 4599 59f2 CACEDCC5 		.ascii	"\312\316\334\305\311\332\301\302\331\300\301\333\302"
 4599      C9DAC1C2 
 4599      D9C0C1DB 
 4599      C2
 4600 59ff C3D8BEC2 		.ascii	"\303\330\276\302\322\272\306\320\273\312\317\275\316"
 4600      D2BAC6D0 
 4600      BBCACFBD 
 4600      CE
 4601 5a0c CCBCD2CF 		.ascii	"\314\274\322\317\273\317\315\300\325\321\307\332\332"
 4601      BBCFCDC0 
 4601      D5D1C7DA 
 4601      DA
 4602 5a19 D5E3D5D1 		.ascii	"\325\343\325\321\337\316\317\335\335\340\352\342\347"
 4602      DFCECFDD 
 4602      DDE0EAE2 
 4602      E7
 4603 5a26 F1DDE2EC 		.ascii	"\361\335\342\354\324\325\342\314\315\334\307\260\300"
 4603      D4D5E2CC 
 4603      CDDCC7B0 
 4603      C0
 4604 5a33 BDA5BAB7 		.ascii	"\275\245\272\267\256\301\272\251\247\320\243\177\320"
 4604      AEC1BAA9 
 4604      A7D0A37F 
 4604      D0
 4605 5a40 A684D1AA 		.ascii	"\246\204\321\252\211\322\253\213\323\254\214\322\254"
 4605      89D2AB8B 
 4605      D3AC8CD2 
 4605      AC
 4606 5a4d 8AD2AB89 		.ascii	"\212\322\253\211\322\250\210\321\247\207\321\250\207"
 4606      D2A888D1 
 4606      A787D1A8 
 4606      87
 4607 5a5a D1A887D1 		.ascii	"\321\250\207\321\250\207\321\251\210\317\252\205\320"
 4607      A887D1A9 
 4607      88CFAA85 
 4607      D0
 4608 5a67 A67FCDA4 		.ascii	"\246\177\315\244x\315\242q\314\237k\313\236h\311\232"
 4608      78CDA271 
 4608      CC9F6BCB 
 4608      9E68C99A 
 4609 5a77 62C8985D 		.ascii	"b\310\230]\310\227[\312\230[\311\231[\310\230Z\310\231"
 4609      C8975BCA 
 4609      985BC999 
 4609      5BC8985A 
 4609      C899
ARM GAS  C:\Users\pbant\AppData\Local\Temp\ccAmOMRv.s 			page 236


 4610 5a89 59C7995A 		.ascii	"Y\307\231Z\322\241^aKJA\014.\252<7\22787z)>\2047H\236"
 4610      D2A15E61 
 4610      4B4A410C 
 4610      2EAA3C37 
 4610      9738377A 
 4611 5aa3 4C50A24A 		.ascii	"LP\242JR\252EH\271KD\327hA\302e9\240]?\252jA\264g?\277"
 4611      52AA4548 
 4611      B94B44D7 
 4611      6841C265 
 4611      39A05D3F 
 4612 5abe 673CD669 		.ascii	"g<\326i7\357r7\345s5\261W4\311\2071\312y+\272O(\231"
 4612      37EF7237 
 4612      E57335B1 
 4612      5734C987 
 4612      31CA792B 
 4613 5ad6 432C5C28 		.ascii	"C,\\(C\034/k\0075}\014<\205\015I\216\016P\227\015?}"
 4613      431C2F6B 
 4613      07357D0C 
 4613      3C850D49 
 4613      8E0E5097 
 4614 5aed 03205518 		.ascii	"\003 U\030\"L\265\212V\315\233a\306\226_\307\224U\307"
 4614      224CB58A 
 4614      56CD9B61 
 4614      C6965FC7 
 4614      9455C7
 4615 5b00 9656CCA2 		.ascii	"\226V\314\242t\324\261\230\332\273\257\326\275\273\332"
 4615      74D4B198 
 4615      DABBAFD6 
 4615      BDBBDA
 4616 5b0f C4CBDDCA 		.ascii	"\304\313\335\312\323\336\314\324\332\306\320\330\301"
 4616      D3DECCD4 
 4616      DAC6D0D8 
 4616      C1
 4617 5b1c CDDCC7CE 		.ascii	"\315\334\307\316\337\314\323\337\314\322\340\315\324"
 4617      DFCCD3DF 
 4617      CCD2E0CD 
 4617      D4
 4618 5b29 DEC7CDDB 		.ascii	"\336\307\315\333\303\310\325\274\301\321\270\307\321"
 4618      C3C8D5BC 
 4618      C1D1B8C7 
 4618      D1
 4619 5b36 BECFCFC3 		.ascii	"\276\317\317\303\323\313\303\323\312\301\324\323\313"
 4619      D3CBC3D3 
 4619      CAC1D4D3 
 4619      CB
 4620 5b43 DCD9D3E1 		.ascii	"\334\331\323\341\333\324\340\331\323\340\320\316\336"
 4620      DBD4E0D9 
 4620      D3E0D0CE 
 4620      DE
 4621 5b50 CECCDCD4 		.ascii	"\316\314\334\324\326\342\322\320\332\302\271\313\271"
 4621      D6E2D2D0 
 4621      DAC2B9CB 
 4621      B9
 4622 5b5d ACC2B5AF 		.ascii	"\254\302\265\257\307\275\242\243\302\211Z\320\245\201"
 4622      C7BDA2A3 
 4622      C2895AD0 
 4622      A581
ARM GAS  C:\Users\pbant\AppData\Local\Temp\ccAmOMRv.s 			page 237


 4623 5b6b D0A886D2 		.ascii	"\320\250\206\322\252\211\324\255\213\323\255\213\322"
 4623      AA89D4AD 
 4623      8BD3AD8B 
 4623      D2
 4624 5b78 AC8AD2AC 		.ascii	"\254\212\322\254\212\321\253\211\320\252\210\320\250"
 4624      8AD1AB89 
 4624      D0AA88D0 
 4624      A8
 4625 5b85 88D0A888 		.ascii	"\210\320\250\210\321\250\207\321\251\210\320\252\206"
 4625      D1A887D1 
 4625      A988D0AA 
 4625      86
 4626 5b92 CFA780CE 		.ascii	"\317\247\200\316\244y\314\241t\314\240m\314\236i\310"
 4626      A479CCA1 
 4626      74CCA06D 
 4626      CC9E69C8 
 4627 5ba2 9B64C899 		.ascii	"\233d\310\231^\311\231\\\311\231\\\312\233\\\312\234"
 4627      5EC9995C 
 4627      C9995CCA 
 4627      9B5CCA9C 
 4628 5bb2 5DCB9C5F 		.ascii	"]\313\234_\315\237b\311\240eC*:w\",\222/2t#8w*@\217"
 4628      CD9F62C9 
 4628      A065432A 
 4628      3A77222C 
 4628      922F3274 
 4629 5bcc 3B4C943E 		.ascii	";L\224>N\2234H\267LD\326dD\303[=\226T<\246i=\246VA\260"
 4629      4E933448 
 4629      B74C44D6 
 4629      6444C35B 
 4629      3D96543C 
 4630 5be7 5144C35A 		.ascii	"QD\303ZD\344f8\366z3\316`8\277g3\316\200-\261R(\226"
 4630      44E46638 
 4630      F67A33CE 
 4630      6038BF67 
 4630      33CE802D 
 4631 5bff 40256225 		.ascii	"@%b%-*$Q\007.m\0106z\013;~\013H\215\0249s\015\032H\000"
 4631      2D2A2451 
 4631      072E6D08 
 4631      367A0B3B 
 4631      7E0B488D 
 4632 5c1a 10416B5E 		.ascii	"\020Ak^g\320\243\203\306\236\205\312\242\220\320\252"
 4632      67D0A383 
 4632      C69E85CA 
 4632      A290D0AA 
 4633 5c2a 96CDA586 		.ascii	"\226\315\245\206\320\251\221\322\261\241\327\262\236"
 4633      D0A991D2 
 4633      B1A1D7B2 
 4633      9E
 4634 5c37 D6B2A0D6 		.ascii	"\326\262\240\326\270\251\337\304\275\334\300\271\330"
 4634      B8A9DFC4 
 4634      BDDCC0B9 
 4634      D8
 4635 5c44 BEB9D8BF 		.ascii	"\276\271\330\277\304\326\301\314\326\301\317\324\275"
 4635      C4D6C1CC 
 4635      D6C1CFD4 
 4635      BD
 4636 5c51 CAD4BECB 		.ascii	"\312\324\276\313\322\273\306\315\263\274\315\256\260"
ARM GAS  C:\Users\pbant\AppData\Local\Temp\ccAmOMRv.s 			page 238


 4636      D2BBC6CD 
 4636      B3BCCDAE 
 4636      B0
 4637 5c5e CEACA9CF 		.ascii	"\316\254\251\317\262\272\327\302\322\320\270\310\310"
 4637      B2BAD7C2 
 4637      D2D0B8C8 
 4637      C8
 4638 5c6b B2C8C6B6 		.ascii	"\262\310\306\266\315\307\275\322\313\302\326\320\306"
 4638      CDC7BDD2 
 4638      CBC2D6D0 
 4638      C6
 4639 5c78 D9D9D4E1 		.ascii	"\331\331\324\341\340\334\350\326\311\330\306\261\300"
 4639      E0DCE8D6 
 4639      C9D8C6B1 
 4639      C0
 4640 5c85 C0B0C2B1 		.ascii	"\300\260\302\261\271\314\257\266\307\302\246\256\311"
 4640      B9CCAFB6 
 4640      C7C2A6AE 
 4640      C9
 4641 5c92 A699CFA7 		.ascii	"\246\231\317\247\204\321\250\207\323\252\211\323\254"
 4641      84D1A887 
 4641      D3AA89D3 
 4641      AC
 4642 5c9f 8AD2AC8A 		.ascii	"\212\322\254\212\322\254\212\322\254\212\321\253\211"
 4642      D2AC8AD2 
 4642      AC8AD1AB 
 4642      89
 4643 5cac D1AB89D1 		.ascii	"\321\253\211\321\252\212\322\252\212\323\252\211\322"
 4643      AA8AD2AA 
 4643      8AD3AA89 
 4643      D2
 4644 5cb9 AA88D0AA 		.ascii	"\252\210\320\252\206\320\250\201\316\244z\315\241t\315"
 4644      86D0A881 
 4644      CEA47ACD 
 4644      A174CD
 4645 5cc8 A070CD9F 		.ascii	"\240p\315\237k\313\235f\311\233a\311\231_\310\231^\310"
 4645      6BCB9D66 
 4645      C99B61C9 
 4645      995FC899 
 4645      5EC8
 4646 5cda 9A5EC99C 		.ascii	"\232^\311\234_\314\237d\326\250m\246\205b5\022&t$/`"
 4646      5FCC9F64 
 4646      D6A86DA6 
 4646      85623512 
 4646      2674242F 
 4647 5cef 1A345F1B 		.ascii	"\0324_\0339k\">z*Hy\"B\250?@\336bD\312^?\230R;\244_"
 4647      396B223E 
 4647      7A2A4879 
 4647      2242A83F 
 4647      40DE6244 
 4648 5d0b 40994C41 		.ascii	"@\231LA\247KE\253KE\333X@\361i8\346l9\275]3\271b.\252"
 4648      A74B45AB 
 4648      4B45DB58 
 4648      40F16938 
 4648      E66C39BD 
 4649 5d25 4E2E9741 		.ascii	"N.\227A(u.&7\035>\014'`\0113t\0111n\0109{\0267p/\036"
 4649      28752E26 
ARM GAS  C:\Users\pbant\AppData\Local\Temp\ccAmOMRv.s 			page 239


 4649      371D3E0C 
 4649      27600933 
 4649      7409316E 
 4650 5d41 40020A37 		.ascii	"@\002\0127,,?\300\223a\310\233v\303\231|\276\224z\304"
 4650      2C2C3FC0 
 4650      9361C89B 
 4650      76C3997C 
 4650      BE947AC4 
 4651 5d55 9D91C8A3 		.ascii	"\235\221\310\243\214\310\236z\311\236w\316\246\205\320"
 4651      8CC89E7A 
 4651      C99E77CE 
 4651      A685D0
 4652 5d64 AE9AD3B3 		.ascii	"\256\232\323\263\244\324\264\244\322\260\227\330\267"
 4652      A4D4B4A4 
 4652      D2B097D8 
 4652      B7
 4653 5d71 A0DCBCA9 		.ascii	"\240\334\274\251\330\273\253\332\277\267\333\303\304"
 4653      D8BBABDA 
 4653      BFB7DBC3 
 4653      C4
 4654 5d7e DBC2CBD4 		.ascii	"\333\302\313\324\274\303\322\264\273\317\262\273\316"
 4654      BCC3D2B4 
 4654      BBCFB2BB 
 4654      CE
 4655 5d8b B6C1CEB8 		.ascii	"\266\301\316\270\301\322\274\307\323\275\313\317\273"
 4655      C1D2BCC7 
 4655      D3BDCBCF 
 4655      BB
 4656 5d98 CECEBBCF 		.ascii	"\316\316\273\317\325\310\332\327\317\340\330\316\340"
 4656      D5C8DAD7 
 4656      CFE0D8CE 
 4656      E0
 4657 5da5 D7CFDFCF 		.ascii	"\327\317\337\317\301\321\320\274\313\316\275\317\317"
 4657      C1D1D0BC 
 4657      CBCEBDCF 
 4657      CF
 4658 5db2 CADBB7BC 		.ascii	"\312\333\267\274\310\277\301\316\327\277\275\314\252"
 4658      C8BFC1CE 
 4658      D7BFBDCC 
 4658      AA
 4659 5dbf A4       		.ascii	"\244"
 4660 5dc0 CFA785D0 		.ascii	"\317\247\205\320\251\207\321\252\211\321\253\211\320"
 4660      A987D1AA 
 4660      89D1AB89 
 4660      D0
 4661 5dcd AB89D0AB 		.ascii	"\253\211\320\253\210\321\253\211\321\253\212\323\254"
 4661      88D1AB89 
 4661      D1AB8AD3 
 4661      AC
 4662 5dda 8CD3AE8E 		.ascii	"\214\323\256\216\323\256\216\323\255\214\323\253\213"
 4662      D3AE8ED3 
 4662      AD8CD3AB 
 4662      8B
 4663 5de7 D2AB89D2 		.ascii	"\322\253\211\322\251\206\317\245\177\315\242y\313\240"
 4663      A986CFA5 
 4663      7FCDA279 
 4663      CBA0
ARM GAS  C:\Users\pbant\AppData\Local\Temp\ccAmOMRv.s 			page 240


 4664 5df5 73CBA06F 		.ascii	"s\313\240o\314\240j\313\236g\311\233c\310\233_\311\234"
 4664      CCA06ACB 
 4664      9E67C99B 
 4664      63C89B5F 
 4664      C99C
 4665 5e07 62CD9E66 		.ascii	"b\315\236f\316\241l\332\254ydRK)\005\035P\0220J\021"
 4665      CEA16CDA 
 4665      AC796452 
 4665      4B29051D 
 4665      5012304A 
 4666 5e1c 35471335 		.ascii	"5G\0235Z\031:k\035:\2173@\326WD\317]B\244T@\232V>\213"
 4666      5A193A6B 
 4666      1D3A8F33 
 4666      40D65744 
 4666      CF5D42A4 
 4667 5e36 3F44933E 		.ascii	"?D\223>F\246DI\303IG\345W>\356p8\315d:\251R5\231E/\222"
 4667      46A64449 
 4667      C34947E5 
 4667      573EEE70 
 4667      38CD643A 
 4668 5e51 3E2C8336 		.ascii	">,\2036*S\0375\036\037L\010-h\0122n\010.c\0104r@ @3"
 4668      2A531F35 
 4668      1E1F4C08 
 4668      2D680A32 
 4668      6E082E63 
 4669 5e6c 173B0D14 		.ascii	"\027;\015\0248\235m&\306\202\027\275\177$\300\211?\302"
 4669      389D6D26 
 4669      C68217BD 
 4669      7F24C089 
 4669      3FC2
 4670 5e7e 915CC49B 		.ascii	"\221\\\304\233}\310\242\225\304\241\231\307\244\236"
 4670      7DC8A295 
 4670      C4A199C7 
 4670      A49E
 4671 5e8c C8A296C8 		.ascii	"\310\242\226\310\245\227\316\255\245\321\262\256\321"
 4671      A597CEAD 
 4671      A5D1B2AE 
 4671      D1
 4672 5e99 B6B5D4BA 		.ascii	"\266\265\324\272\274\332\300\303\332\302\305\331\300"
 4672      BCDAC0C3 
 4672      DAC2C5D9 
 4672      C0
 4673 5ea6 C0DDC5C1 		.ascii	"\300\335\305\301\342\313\316\334\303\304\327\274\272"
 4673      E2CBCEDC 
 4673      C3C4D7BC 
 4673      BA
 4674 5eb3 D6BBBDD2 		.ascii	"\326\273\275\322\266\275\312\254\267\306\253\271\311"
 4674      B6BDCAAC 
 4674      B7C6ABB9 
 4674      C9
 4675 5ec0 B0C1C8B6 		.ascii	"\260\301\310\266\310\301\256\304\315\301\323\315\306"
 4675      C8C1AEC4 
 4675      CDC1D3CD 
 4675      C6
 4676 5ecd D5CDB5C5 		.ascii	"\325\315\265\305\316\267\311\314\274\320\323\307\331"
 4676      CEB7C9CC 
 4676      BCD0D3C7 
ARM GAS  C:\Users\pbant\AppData\Local\Temp\ccAmOMRv.s 			page 241


 4676      D9
 4677 5eda D8D4E4D7 		.ascii	"\330\324\344\327\315\326\330\266\270\321\270\274\333"
 4677      CDD6D8B6 
 4677      B8D1B8BC 
 4677      DB
 4678 5ee7 D6DDDCC9 		.ascii	"\326\335\334\311\312\317\247\204\317\250\207\317\251"
 4678      CACFA784 
 4678      CFA887CF 
 4678      A9
 4679 5ef4 87D0A987 		.ascii	"\207\320\251\207\320\251\207\317\251\204\320\252\205"
 4679      D0A987CF 
 4679      A984D0AA 
 4679      85
 4680 5f01 D1AA87D4 		.ascii	"\321\252\207\324\255\215\324\260\223\324\261\225\325"
 4680      AD8DD4B0 
 4680      93D4B195 
 4680      D5
 4681 5f0e B092D4AF 		.ascii	"\260\222\324\257\221\323\256\217\323\254\214\320\251"
 4681      91D3AE8F 
 4681      D3AC8CD0 
 4681      A9
 4682 5f1b 85D0A67F 		.ascii	"\205\320\246\177\317\244y\315\242s\313\241m\314\240"
 4682      CFA479CD 
 4682      A273CBA1 
 4682      6DCCA0
 4683 5f2a 6BCEA06A 		.ascii	"k\316\240j\313\236e\314\240f\316\242n\321\245v\327\254"
 4683      CB9E65CC 
 4683      A066CEA2 
 4683      6ED1A576 
 4683      D7AC
 4684 5f3c 7E3C3236 		.ascii	"~<26\000\000\022\037\002 >\0171J\0246a\0274\2205;\254"
 4684      0000121F 
 4684      02203E0F 
 4684      314A1436 
 4684      61173490 
 4685 5f53 4040C54D 		.ascii	"@@\305M@\244JA\220GD\1778C\2002B\2226E\261;E\323H?\336"
 4685      40A44A41 
 4685      9047447F 
 4685      38438032 
 4685      42923645 
 4686 5f6e 5A3FDA5E 		.ascii	"Z?\332^;\267U4\234K0\230E.\222B*q(-5\035@\013\037Q\011"
 4686      3BB75534 
 4686      9C4B3098 
 4686      452E9242 
 4686      2A71282D 
 4687 5f89 2E650A2F 		.ascii	".e\012/d\005+b2\"FJ\024-\021\0040E5/\317\213)\276}$"
 4687      64052B62 
 4687      3222464A 
 4687      142D1104 
 4687      3045352F 
 4688 5fa3 BB7C22BE 		.ascii	"\273|\"\276\200'\301\211B\307\226`\312\242\177\320\254"
 4688      8027C189 
 4688      42C79660 
 4688      CAA27FD0 
 4688      AC
 4689 5fb4 98CFADA4 		.ascii	"\230\317\255\244\316\254\251\317\263\267\321\264\267"
 4689      CEACA9CF 
ARM GAS  C:\Users\pbant\AppData\Local\Temp\ccAmOMRv.s 			page 242


 4689      B3B7D1B4 
 4689      B7
 4690 5fc1 D2B7B8D1 		.ascii	"\322\267\270\321\271\277\326\274\304\321\267\272\321"
 4690      B9BFD6BC 
 4690      C4D1B7BA 
 4690      D1
 4691 5fce BAC3D4BF 		.ascii	"\272\303\324\277\311\327\303\315\324\306\321\325\307"
 4691      C9D7C3CD 
 4691      D4C6D1D5 
 4691      C7
 4692 5fdb D4D9CFDF 		.ascii	"\324\331\317\337\326\312\331\330\311\327\335\314\332"
 4692      D6CAD9D8 
 4692      C9D7DDCC 
 4692      DA
 4693 5fe8 DACBDAD5 		.ascii	"\332\313\332\325\315\334\326\314\336\311\300\325\312"
 4693      CDDCD6CC 
 4693      DEC9C0D5 
 4693      CA
 4694 5ff5 C6D7D6CF 		.ascii	"\306\327\326\317\337\323\303\323\314\275\316\326\316"
 4694      DFD3C3D3 
 4694      CCBDCED6 
 4694      CE
 4695 6002 DFDBD7E5 		.ascii	"\337\333\327\345\325\311\324\323\272\276\327\277\302"
 4695      D5C9D4D3 
 4695      BABED7BF 
 4695      C2
 4696 600f D7BFBED5 		.ascii	"\327\277\276\325\303\311\324\323\337\316\247\202\316"
 4696      C3C9D4D3 
 4696      DFCEA782 
 4696      CE
 4697 601c A685D0A6 		.ascii	"\246\205\320\246\206\320\251\206\320\250\205\317\250"
 4697      86D0A986 
 4697      D0A885CF 
 4697      A8
 4698 6029 82D0AA83 		.ascii	"\202\320\252\203\320\253\206\324\256\214\326\261\223"
 4698      D0AB86D4 
 4698      AE8CD6B1 
 4698      93
 4699 6036 D5B29AD5 		.ascii	"\325\262\232\325\264\231\325\263\226\324\261\223\324"
 4699      B499D5B3 
 4699      96D4B193 
 4699      D4
 4700 6043 AF8ED2AC 		.ascii	"\257\216\322\254\211\322\252\205\321\247\201\317\244"
 4700      89D2AA85 
 4700      D1A781CF 
 4700      A4
 4701 6050 79CDA372 		.ascii	"y\315\243r\315\242o\317\242l\316\240j\317\242m\317\245"
 4701      CDA26FCF 
 4701      A26CCEA0 
 4701      6ACFA26D 
 4701      CFA5
 4702 6062 73D2A77A 		.ascii	"s\322\247z\326\253\200\272\226t`ON\024\005%A\014*T\021"
 4702      D6AB80BA 
 4702      9674604F 
 4702      4E140525 
 4702      410C2A54 
 4703 6077 356D2038 		.ascii	"5m 8\247<<\2357<\232<?\2129D\2014F\200.E\200,Aq\"@\236"
ARM GAS  C:\Users\pbant\AppData\Local\Temp\ccAmOMRv.s 			page 243


 4703      A73C3C9D 
 4703      373C9A3C 
 4703      3F8A3944 
 4703      81344680 
 4704 6094 293EBF42 		.ascii	")>\277B?\347^>\271J9\234E7\220A2\225C/t).S 8\025\032"
 4704      3FE75E3E 
 4704      B94A399C 
 4704      45379041 
 4704      3295432F 
 4705 60b0 45072659 		.ascii	"E\007&Y\010&X\001\"T+(CV\034((\011-\022\012(\232o4\310"
 4705      08265801 
 4705      22542B28 
 4705      43561C28 
 4705      28092D12 
 4706 60ca 8A31BC82 		.ascii	"\2121\274\202,\272\202/\276\206;\301\216R\303\221W\314"
 4706      2CBA822F 
 4706      BE863BC1 
 4706      8E52C391 
 4706      57CC
 4707 60dc A178D0AC 		.ascii	"\241x\320\254\224\316\253\225\322\260\236\323\267\257"
 4707      94CEAB95 
 4707      D2B09ED3 
 4707      B7AF
 4708 60ea D3B6AED2 		.ascii	"\323\266\256\322\265\254\323\271\262\324\271\266\324"
 4708      B5ACD3B9 
 4708      B2D4B9B6 
 4708      D4
 4709 60f7 BDC1D6C0 		.ascii	"\275\301\326\300\304\321\270\267\330\276\275\330\301"
 4709      C4D1B8B7 
 4709      D8BEBDD8 
 4709      C1
 4710 6104 C5D5BDC0 		.ascii	"\305\325\275\300\324\270\272\323\275\272\330\301\304"
 4710      D4B8BAD3 
 4710      BDBAD8C1 
 4710      C4
 4711 6111 DDC6CBDD 		.ascii	"\335\306\313\335\304\317\327\304\323\315\271\316\306"
 4711      C4CFD7C4 
 4711      D3CDB9CE 
 4711      C6
 4712 611e BDD1C7C5 		.ascii	"\275\321\307\305\325\326\305\323\333\312\332\323\310"
 4712      D5D6C5D3 
 4712      DBCADAD3 
 4712      C8
 4713 612b DCD7CCDB 		.ascii	"\334\327\314\333\332\306\317\322\263\257\322\257\235"
 4713      DAC6CFD2 
 4713      B3AFD2AF 
 4713      9D
 4714 6138 D7B8ADD5 		.ascii	"\327\270\255\325\265\251\331\267\260\326\273\275\314"
 4714      B5A9D9B7 
 4714      B0D6BBBD 
 4714      CC
 4715 6145 A581CDA5 		.ascii	"\245\201\315\245\204\316\246\204\320\250\205\317\247"
 4715      84CEA684 
 4715      D0A885CF 
 4715      A7
 4716 6152 84CFA782 		.ascii	"\204\317\247\202\317\251\203\321\253\207\325\257\215"
 4716      CFA983D1 
ARM GAS  C:\Users\pbant\AppData\Local\Temp\ccAmOMRv.s 			page 244


 4716      AB87D5AF 
 4716      8D
 4717 615f D6B392D6 		.ascii	"\326\263\222\326\266\231\326\270\235\325\265\236\326"
 4717      B699D6B8 
 4717      9DD5B59E 
 4717      D6
 4718 616c B499D5B2 		.ascii	"\264\231\325\262\224\324\257\217\323\255\213\322\253"
 4718      94D4AF8F 
 4718      D3AD8BD2 
 4718      AB
 4719 6179 87D1A780 		.ascii	"\207\321\247\200\316\245y\316\244t\316\243o\315\241"
 4719      CEA579CE 
 4719      A474CEA3 
 4719      6FCDA1
 4720 6188 6ECEA270 		.ascii	"n\316\242p\317\245u\321\247y\321\250}\333\257\202\343"
 4720      CFA575D1 
 4720      A779D1A8 
 4720      7DDBAF82 
 4720      E3
 4721 6199 B8877D66 		.ascii	"\270\207}f\\\037\000\"=\0153\200(:\214*9\202.:\2012"
 4721      5C1F0022 
 4721      3D0D3380 
 4721      283A8C2A 
 4721      39822E3A 
 4722 61af 3F782A42 		.ascii	"?x*Bs%Hs\"Ey\037@\236-=\221(=\261AB\324Q:\233B8\200"
 4722      73254873 
 4722      2245791F 
 4722      409E2D3D 
 4722      91283DB1 
 4723 61cc 313A8033 		.ascii	"1:\20035u(2]\0367.\034F\011\027C\004\032F\005\031D,"
 4723      35752832 
 4723      5D1E372E 
 4723      1C460917 
 4723      43041A46 
 4724 61e4 213A5821 		.ascii	"!:X!'9\022(\006\000'{^M\321\230Q\302\2079\274\201'\274"
 4724      27391228 
 4724      0600277B 
 4724      5E4DD198 
 4724      51C28739 
 4725 61fc 8020BD7E 		.ascii	"\200 \275~\033\300\205+\304\215C\312\231]\314\240m\314"
 4725      1BC0852B 
 4725      C48D43CA 
 4725      995DCCA0 
 4725      6DCC
 4726 620e A274D1A7 		.ascii	"\242t\321\247\177\324\263\230\327\265\233\327\266\234"
 4726      7FD4B398 
 4726      D7B59BD7 
 4726      B69C
 4727 621c D5B49CD1 		.ascii	"\325\264\234\321\260\224\324\264\246\326\266\254\325"
 4727      B094D4B4 
 4727      A6D6B6AC 
 4727      D5
 4728 6229 B8B6DBC1 		.ascii	"\270\266\333\301\304\327\277\305\324\273\276\331\277"
 4728      C4D7BFC5 
 4728      D4BBBED9 
 4728      BF
 4729 6236 C2D7BFC3 		.ascii	"\302\327\277\303\324\274\300\325\275\303\326\277\315"
ARM GAS  C:\Users\pbant\AppData\Local\Temp\ccAmOMRv.s 			page 245


 4729      D4BCC0D5 
 4729      BDC3D6BF 
 4729      CD
 4730 6243 D2C4D7CF 		.ascii	"\322\304\327\317\307\332\306\313\333\324\326\345\340"
 4730      C7DAC6CB 
 4730      DBD4D6E5 
 4730      E0
 4731 6250 CCD7D3BA 		.ascii	"\314\327\323\272\275\315\260\274\320\277\321\322\273"
 4731      BDCDB0BC 
 4731      D0BFD1D2 
 4731      BB
 4732 625d BBD4B1A3 		.ascii	"\273\324\261\243\325\260\236\326\263\243\320\251\225"
 4732      D5B09ED6 
 4732      B3A3D0A9 
 4732      95
 4733 626a D3B2A9D7 		.ascii	"\323\262\251\327\273\300\314\242\177\315\244\202\315"
 4733      BBC0CCA2 
 4733      7FCDA482 
 4733      CD
 4734 6277 A683CEA7 		.ascii	"\246\203\316\247\204\317\247\204\316\247\201\317\250"
 4734      84CFA784 
 4734      CEA781CF 
 4734      A8
 4735 6284 82D1AB88 		.ascii	"\202\321\253\210\325\256\216\326\263\225\330\270\234"
 4735      D5AE8ED6 
 4735      B395D8B8 
 4735      9C
 4736 6291 D9BBA1D9 		.ascii	"\331\273\241\331\271\241\327\266\234\326\264\227\324"
 4736      B9A1D7B6 
 4736      9CD6B497 
 4736      D4
 4737 629e B193D4AE 		.ascii	"\261\223\324\256\217\321\254\210\321\251\203\320\245"
 4737      8FD1AC88 
 4737      D1A983D0 
 4737      A5
 4738 62ab 7CCFA475 		.ascii	"|\317\244u\316\243o\317\242n\315\241n\315\244p\316\245"
 4738      CEA36FCF 
 4738      A26ECDA1 
 4738      6ECDA470 
 4738      CEA5
 4739 62bd 75D0A679 		.ascii	"u\320\246y\320\247y\332\256{\274\232t\022\0152@\012"
 4739      D0A779DA 
 4739      AE7BBC9A 
 4739      74120D32 
 4739      400A
 4740 62cf 29963333 		.ascii	")\22633v\"9k!<e\033;j\037Ai Fo\035C\234'?\2572<\224"
 4740      7622396B 
 4740      213C651B 
 4740      3B6A1F41 
 4740      6920466F 
 4741 62ec 303DB045 		.ascii	"0=\260E9\245@9\20158\20355l\"5V\0304D\037D\026\032J"
 4741      39A54039 
 4741      81353883 
 4741      35356C22 
 4741      35561834 
 4742 6306 020F3918 		.ascii	"\002\0179\030\030<Z.7o(&B\023&\003\000\036&\"1\305\224"
 4742      183C5A2E 
ARM GAS  C:\Users\pbant\AppData\Local\Temp\ccAmOMRv.s 			page 246


 4742      376F2826 
 4742      42132603 
 4742      001E2622 
 4743 631d 53C99248 		.ascii	"S\311\222H\303\214I\303\213G\303\214J\305\220T\307\230"
 4743      C38C49C3 
 4743      8B47C38C 
 4743      4AC59054 
 4743      C798
 4744 632f 66C99A69 		.ascii	"f\311\232i\306\226_\311\232b\314\240p\315\241s\320\247"
 4744      C6965FC9 
 4744      9A62CCA0 
 4744      70CDA173 
 4744      D0A7
 4745 6341 83D0AA8B 		.ascii	"\203\320\252\213\323\256\225\323\261\242\326\273\263"
 4745      D3AE95D3 
 4745      B1A2D6BB 
 4745      B3
 4746 634e D6B9B2D6 		.ascii	"\326\271\262\326\266\255\327\273\263\326\270\256\325"
 4746      B6ADD7BB 
 4746      B3D6B8AE 
 4746      D5
 4747 635b B6AED5B7 		.ascii	"\266\256\325\267\265\325\273\276\333\306\315\332\304"
 4747      B5D5BBBE 
 4747      DBC6CDDA 
 4747      C4
 4748 6368 CCDECBD7 		.ascii	"\314\336\313\327\332\316\336\325\313\332\314\316\335"
 4748      DACEDED5 
 4748      CBDACCCE 
 4748      DD
 4749 6375 BFBEC3C8 		.ascii	"\277\276\303\310\305\314\316\302\306\305\232\226\251"
 4749      C5CCCEC2 
 4749      C6C59A96 
 4749      A9
 4750 6382 92A4BFBC 		.ascii	"\222\244\277\274\313\323\267\260\317\246\214\320\252"
 4750      CBD3B7B0 
 4750      CFA68CD0 
 4750      AA
 4751 638f 97D1B2AC 		.ascii	"\227\321\262\254\326\272\300\337\306\317\343\326\341"
 4751      D6BAC0DF 
 4751      C6CFE3D6 
 4751      E1
 4752 639c CCA27ECD 		.ascii	"\314\242~\315\243\200\316\244\201\316\245\202\316\246"
 4752      A380CEA4 
 4752      81CEA582 
 4752      CEA6
 4753 63aa 83CEA782 		.ascii	"\203\316\247\202\317\250\203\321\253\210\326\257\216"
 4753      CFA883D1 
 4753      AB88D6AF 
 4753      8E
 4754 63b7 D7B497DA 		.ascii	"\327\264\227\332\272\240\334\275\244\333\274\245\330"
 4754      BAA0DCBD 
 4754      A4DBBCA5 
 4754      D8
 4755 63c4 B9A2D6B6 		.ascii	"\271\242\326\266\233\325\262\225\324\256\217\322\254"
 4755      9BD5B295 
 4755      D4AE8FD2 
 4755      AC
ARM GAS  C:\Users\pbant\AppData\Local\Temp\ccAmOMRv.s 			page 247


 4756 63d1 8AD2AA84 		.ascii	"\212\322\252\204\320\246|\316\244t\315\241n\320\241"
 4756      D0A67CCE 
 4756      A474CDA1 
 4756      6ED0A1
 4757 63e0 6CCFA26C 		.ascii	"l\317\242l\316\242m\316\243r\317\246u\317\246u\323\251"
 4757      CEA26DCE 
 4757      A372CFA6 
 4757      75CFA675 
 4757      D3A9
 4758 63f2 78C7A274 		.ascii	"x\307\242t\035\035.?\006\"~\035/j\0328f\0319\\\031<"
 4758      1D1D2E3F 
 4758      06227E1D 
 4758      2F6A1A38 
 4758      6619395C 
 4759 6408 61193E69 		.ascii	"a\031>i\032=\206$>\2573?\2516<\247@7\256E5\17719~.3"
 4759      1A3D8624 
 4759      3EAF333F 
 4759      A9363CA7 
 4759      4037AE45 
 4760 6423 6B263244 		.ascii	"k&2D\02364\0217\026\0121\006\0121>\0345u&*x($`\"(\031"
 4760      13363411 
 4760      37160A31 
 4760      060A313E 
 4760      1C357526 
 4761 643f 031E0809 		.ascii	"\003\036\010\011(\235|\\\330\243]\307\225L\307\215?"
 4761      289D7C5C 
 4761      D8A35DC7 
 4761      954CC78D 
 4761      3F
 4762 6450 C2882FC1 		.ascii	"\302\210/\301\2111\303\2116\304\212;\303\216J\312\237"
 4762      8931C389 
 4762      36C48A3B 
 4762      C38E4ACA 
 4762      9F
 4763 6461 73D2AB8A 		.ascii	"s\322\253\212\322\256\222\324\264\242\326\266\247\326"
 4763      D2AE92D4 
 4763      B4A2D6B6 
 4763      A7D6
 4764 646f B7ABDABD 		.ascii	"\267\253\332\275\265\334\300\273\334\300\276\330\275"
 4764      B5DCC0BB 
 4764      DCC0BED8 
 4764      BD
 4765 647c B2DBC1BA 		.ascii	"\262\333\301\272\334\306\301\335\313\314\345\322\327"
 4765      DCC6C1DD 
 4765      CBCCE5D2 
 4765      D7
 4766 6489 E3CED6E4 		.ascii	"\343\316\326\344\320\330\335\312\326\330\302\320\322"
 4766      D0D8DDCA 
 4766      D6D8C2D0 
 4766      D2
 4767 6496 C0CACDBA 		.ascii	"\300\312\315\272\300\314\264\276\316\305\324\317\256"
 4767      C0CCB4BE 
 4767      CEC5D4CF 
 4767      AE
 4768 64a3 A2C59D92 		.ascii	"\242\305\235\222\277\261\271\310\275\312\246\225\255"
 4768      BFB1B9C8 
 4768      BDCAA695 
ARM GAS  C:\Users\pbant\AppData\Local\Temp\ccAmOMRv.s 			page 248


 4768      AD
 4769 64b0 CDC3D1E9 		.ascii	"\315\303\321\351\345\357\333\305\312\333\302\305\334"
 4769      E5EFDBC5 
 4769      CADBC2C5 
 4769      DC
 4770 64bd C4C6E5CF 		.ascii	"\304\306\345\317\331\352\346\362\350\342\346\315\241"
 4770      D9EAE6F2 
 4770      E8E2E6CD 
 4770      A1
 4771 64ca 7ECEA280 		.ascii	"~\316\242\200\316\244\201\316\246\203\316\246\203\317"
 4771      CEA481CE 
 4771      A683CEA6 
 4771      83CF
 4772 64d8 A784D0A8 		.ascii	"\247\204\320\250\205\321\253\210\327\260\217\330\266"
 4772      85D1AB88 
 4772      D7B08FD8 
 4772      B6
 4773 64e5 99DABBA3 		.ascii	"\231\332\273\243\336\277\250\335\277\250\332\273\246"
 4773      DEBFA8DD 
 4773      BFA8DABB 
 4773      A6
 4774 64f2 D6B69DD6 		.ascii	"\326\266\235\326\262\225\324\255\215\322\252\210\321"
 4774      B295D4AD 
 4774      8DD2AA88 
 4774      D1
 4775 64ff A882CFA5 		.ascii	"\250\202\317\245y\315\243t\314\242o\317\242l\320\242"
 4775      79CDA374 
 4775      CCA26FCF 
 4775      A26CD0A2 
 4776 650f 6CCEA16C 		.ascii	"l\316\241l\317\243q\320\245s\317\246u\317\246t\330\254"
 4776      CFA371D0 
 4776      A573CFA6 
 4776      75CFA674 
 4776      D8AC
 4777 6521 76453936 		.ascii	"vE96#\000\032F\010)K\013.j\0375\2229A\2043={\034<\231"
 4777      23001A46 
 4777      08294B0B 
 4777      2E6A1F35 
 4777      92394184 
 4778 653b 293AB33B 		.ascii	"):\263;8\24127\24195\20204f\0373D\021.'\014-\027\010"
 4778      38A13237 
 4778      A1393582 
 4778      3034661F 
 4778      3344112E 
 4779 6554 2E130A30 		.ascii	".\023\0120\012\006(0\017-i\032)\200(%k$)N\030#\014\007"
 4779      0A062830 
 4779      0F2D691A 
 4779      29802825 
 4779      6B24294E 
 4780 656c 23947A63 		.ascii	"#\224zc\335\256s\317\237g\314\233[\310\225O\304\220"
 4780      DDAE73CF 
 4780      9F67CC9B 
 4780      5BC8954F 
 4780      C490
 4781 657e 43C58B38 		.ascii	"C\305\2138\303\2149\305\216H\307\225U\315\243|\316\250"
 4781      C38C39C5 
 4781      8E48C795 
ARM GAS  C:\Users\pbant\AppData\Local\Temp\ccAmOMRv.s 			page 249


 4781      55CDA37C 
 4781      CEA8
 4782 6590 88CAA382 		.ascii	"\210\312\243\202\316\247\210\321\252\217\323\257\232"
 4782      CEA788D1 
 4782      AA8FD3AF 
 4782      9A
 4783 659d D4B2A1D7 		.ascii	"\324\262\241\327\270\256\336\304\304\340\310\311\335"
 4783      B8AEDEC4 
 4783      C4E0C8C9 
 4783      DD
 4784 65aa C8C8DFC4 		.ascii	"\310\310\337\304\306\336\305\303\333\304\302\326\303"
 4784      C6DEC5C3 
 4784      DBC4C2D6 
 4784      C3
 4785 65b7 CAD0BEC7 		.ascii	"\312\320\276\307\316\266\274\323\264\263\317\256\252"
 4785      CEB6BCD3 
 4785      B4B3CFAE 
 4785      AA
 4786 65c4 CBACB4CF 		.ascii	"\313\254\264\317\307\325\317\270\260\307\240\210\317"
 4786      C7D5CFB8 
 4786      B0C7A088 
 4786      CF
 4787 65d1 AAA4D0B0 		.ascii	"\252\244\320\260\265\302\266\305\305\304\324\332\310"
 4787      B5C2B6C5 
 4787      C5C4D4DA 
 4787      C8
 4788 65de D6DDCFDA 		.ascii	"\326\335\317\332\347\337\351\345\326\336\352\336\350"
 4788      E7DFE9E5 
 4788      D6DEEADE 
 4788      E8
 4789 65eb EBE3EDDD 		.ascii	"\353\343\355\335\310\300\324\256\230\317\242\177\316"
 4789      C8C0D4AE 
 4789      98CFA27F 
 4789      CE
 4790 65f8 A381CFA5 		.ascii	"\243\201\317\245\203\317\246\204\317\247\205\320\250"
 4790      83CFA684 
 4790      CFA785D0 
 4790      A8
 4791 6605 86D1A986 		.ascii	"\206\321\251\206\322\253\210\327\261\217\330\266\233"
 4791      D2AB88D7 
 4791      B18FD8B6 
 4791      9B
 4792 6612 DBBCA4DF 		.ascii	"\333\274\244\337\300\252\337\300\252\334\275\247\330"
 4792      C0AADFC0 
 4792      AADCBDA7 
 4792      D8
 4793 661f B89FD6B2 		.ascii	"\270\237\326\262\225\324\255\214\320\252\204\316\246"
 4793      95D4AD8C 
 4793      D0AA84CE 
 4793      A6
 4794 662c 7BCDA475 		.ascii	"{\315\244u\315\243r\315\243p\320\243m\320\242l\317\242"
 4794      CDA372CD 
 4794      A370D0A3 
 4794      6DD0A26C 
 4794      CFA2
 4795 663e 6BCFA16C 		.ascii	"k\317\241l\316\241m\317\242n\316\242m\331\250o\226x"
 4795      CEA16DCF 
ARM GAS  C:\Users\pbant\AppData\Local\Temp\ccAmOMRv.s 			page 250


 4795      A26ECEA2 
 4795      6DD9A86F 
 4795      9678
 4796 6650 56130C20 		.ascii	"V\023\014 \015\000%)\0128L\0166m\0227\212$8\221)7\256"
 4796      0D002529 
 4796      0A384C0E 
 4796      366D1237 
 4796      8A243891 
 4797 6667 4037BA48 		.ascii	"@7\272H2\216/4\177/5Y\033/\"\003%\002\001#\000\003("
 4797      328E2F34 
 4797      7F2F3559 
 4797      1B2F2203 
 4797      25020123 
 4798 667e 10092D35 		.ascii	"\020\011-5\0243I\032-[\035+g\034'\2105%u)%&\004\030"
 4798      1433491A 
 4798      2D5B1D2B 
 4798      671C2788 
 4798      35257529 
 4799 6696 534849E5 		.ascii	"SHI\345\273\205\322\251v\320\243p\316\240h\315\233]"
 4799      BB85D2A9 
 4799      76D0A370 
 4799      CEA068CD 
 4799      9B5D
 4800 66a8 C9954EC7 		.ascii	"\311\225N\307\216B\303\216>\306\223O\310\231`\314\241"
 4800      8E42C38E 
 4800      3EC6934F 
 4800      C89960CC 
 4800      A1
 4801 66b9 76CC9F6E 		.ascii	"v\314\237n\314\241w\315\245\201\325\262\233\330\267"
 4801      CCA177CD 
 4801      A581D5B2 
 4801      9BD8B7
 4802 66c8 ACDBBAB4 		.ascii	"\254\333\272\264\336\300\270\333\274\253\333\272\247"
 4802      DEC0B8DB 
 4802      BCABDBBA 
 4802      A7
 4803 66d5 D7B7ABD7 		.ascii	"\327\267\253\327\300\274\324\271\261\321\267\252\321"
 4803      C0BCD4B9 
 4803      B1D1B7AA 
 4803      D1
 4804 66e2 B3A3D2B1 		.ascii	"\263\243\322\261\241\321\260\242\316\255\254\314\257"
 4804      A1D1B0A2 
 4804      CEADACCC 
 4804      AF
 4805 66ef B9D3C4D5 		.ascii	"\271\323\304\325\327\306\313\321\256\243\322\264\265"
 4805      D7C6CBD1 
 4805      AEA3D2B4 
 4805      B5
 4806 66fc D5B9C0D4 		.ascii	"\325\271\300\324\275\312\316\270\304\320\274\303\332"
 4806      BDCACEB8 
 4806      C4D0BCC3 
 4806      DA
 4807 6709 D0DDE1D0 		.ascii	"\320\335\341\320\331\347\326\342\356\356\372\352\351"
 4807      D9E7D6E2 
 4807      EEEEFAEA 
 4807      E9
 4808 6716 F5D6B6A0 		.ascii	"\365\326\266\240\321\251\217\344\310\320\320\244\201"
ARM GAS  C:\Users\pbant\AppData\Local\Temp\ccAmOMRv.s 			page 251


 4808      D1A98FE4 
 4808      C8D0D0A4 
 4808      81
 4809 6723 CFA584CE 		.ascii	"\317\245\204\316\245\204\320\246\205\320\250\207\320"
 4809      A584D0A6 
 4809      85D0A887 
 4809      D0
 4810 6730 AA88D2AB 		.ascii	"\252\210\322\253\211\324\253\212\327\261\221\331\267"
 4810      89D4AB8A 
 4810      D7B191D9 
 4810      B7
 4811 673d 9CDCBBA6 		.ascii	"\234\334\273\246\337\300\254\341\302\253\336\277\247"
 4811      DFC0ACE1 
 4811      C2ABDEBF 
 4811      A7
 4812 674a D9B9A0D5 		.ascii	"\331\271\240\325\263\225\323\256\215\321\253\205\317"
 4812      B395D3AE 
 4812      8DD1AB85 
 4812      CF
 4813 6757 A77ACBA2 		.ascii	"\247z\313\242q\314\241n\315\242n\316\241m\317\241k\316"
 4813      71CCA16E 
 4813      CDA26ECE 
 4813      A16DCFA1 
 4813      6BCE
 4814 6769 A06ACD9E 		.ascii	"\240j\315\236i\314\236g\314\237f\314\236f\314\234b\321"
 4814      69CC9E67 
 4814      CC9F66CC 
 4814      9E66CC9C 
 4814      62D1
 4815 677b A163B38C 		.ascii	"\241c\263\214X\231sH\214rUqZME(6?\0141X\012+\26291\276"
 4815      58997348 
 4815      8C725571 
 4815      5A4D4528 
 4815      363F0C31 
 4816 6796 482D872E 		.ascii	"H-\207.-X\030*\015\000\035\010\012+\003\007,2\023/N"
 4816      2D58182A 
 4816      0D001D08 
 4816      0A2B0307 
 4816      2C32132F 
 4817 67ab 132B4910 		.ascii	"\023+I\020'f#)c\031(S\022 {$\037a\024\025'\032)\300"
 4817      27662329 
 4817      63192853 
 4817      12207B24 
 4817      1F611415 
 4818 67c3 A285DDB4 		.ascii	"\242\205\335\264\212\324\254}\321\250u\320\243n\316"
 4818      8AD4AC7D 
 4818      D1A875D0 
 4818      A36ECE
 4819 67d2 9F64CA9A 		.ascii	"\237d\312\232R\310\222G\306\215=\311\224Q\310\230\\"
 4819      52C89247 
 4819      C68D3DC9 
 4819      9451C898 
 4819      5C
 4820 67e3 CB9F71D1 		.ascii	"\313\237q\321\250\213\323\257\231\325\265\254\326\267"
 4820      A88BD3AF 
 4820      99D5B5AC 
 4820      D6B7
ARM GAS  C:\Users\pbant\AppData\Local\Temp\ccAmOMRv.s 			page 252


 4821 67f1 ABD8B8AB 		.ascii	"\253\330\270\253\334\275\257\331\270\247\325\266\245"
 4821      DCBDAFD9 
 4821      B8A7D5B6 
 4821      A5
 4822 67fe D6BAB8D2 		.ascii	"\326\272\270\322\271\265\322\263\242\322\261\234\324"
 4822      B9B5D2B3 
 4822      A2D2B19C 
 4822      D4
 4823 680b B2A1CFAD 		.ascii	"\262\241\317\255\241\316\260\253\316\263\270\323\274"
 4823      A1CEB0AB 
 4823      CEB3B8D3 
 4823      BC
 4824 6818 C9D8CCD9 		.ascii	"\311\330\314\331\333\316\323\327\273\274\326\272\301"
 4824      DBCED3D7 
 4824      BBBCD6BA 
 4824      C1
 4825 6825 D4BBB8D4 		.ascii	"\324\273\270\324\270\270\315\261\263\316\257\261\337"
 4825      B8B8CDB1 
 4825      B3CEAFB1 
 4825      DF
 4826 6832 C9CEE4D4 		.ascii	"\311\316\344\324\335\340\341\354\351\350\357\334\277"
 4826      DDE0E1EC 
 4826      E9E8EFDC 
 4826      BF
 4827 683f A8D4BCB2 		.ascii	"\250\324\274\262\336\322\336\336\307\310\327\264\235"
 4827      DED2DEDE 
 4827      C7C8D7B4 
 4827      9D
 4828 684c CFA684D0 		.ascii	"\317\246\204\320\247\207\320\251\207\321\250\207\322"
 4828      A787D0A9 
 4828      87D1A887 
 4828      D2
 4829 6859 A988D1AA 		.ascii	"\251\210\321\252\211\322\253\212\323\255\214\327\262"
 4829      89D2AB8A 
 4829      D3AD8CD7 
 4829      B2
 4830 6866 94DAB79E 		.ascii	"\224\332\267\236\335\274\247\340\301\254\340\302\255"
 4830      DDBCA7E0 
 4830      C1ACE0C2 
 4830      AD
 4831 6873 DEC0A9D9 		.ascii	"\336\300\251\331\272\242\325\265\227\324\257\217\322"
 4831      BAA2D5B5 
 4831      97D4AF8F 
 4831      D2
 4832 6880 AB87D0A7 		.ascii	"\253\207\320\247|\314\242r\314\240l\316\241i\315\241"
 4832      7CCCA272 
 4832      CCA06CCE 
 4832      A169CDA1 
 4833 6890 69CD9F69 		.ascii	"i\315\237i\316\237i\313\235h\312\234f\312\235c\313\234"
 4833      CE9F69CB 
 4833      9D68CA9C 
 4833      66CA9D63 
 4833      CB9C
 4834 68a2 60CC9B5C 		.ascii	"`\314\233\\\314\232Y\322\236Y\324\240U\325\237T\326"
 4834      CC9A59D2 
 4834      9E59D4A0 
 4834      55D59F54 
ARM GAS  C:\Users\pbant\AppData\Local\Temp\ccAmOMRv.s 			page 253


 4834      D6
 4835 68b3 A054CC9C 		.ascii	"\240T\314\234V\241~PN5?6\004\037m\025 D\014\036\015"
 4835      56A17E50 
 4835      4E353F36 
 4835      041F6D15 
 4835      20440C1E 
 4836 68c8 04224C40 		.ascii	"\004\"L@C\272\227tD<>#\000\0309\005 *\005\037)\006#"
 4836      43BA9774 
 4836      443C3E23 
 4836      00183905 
 4836      202A051F 
 4837 68df 31112B3E 		.ascii	"1\021+>!50\024&B*2\264\231\204\342\274\227\327\260\215"
 4837      21353014 
 4837      26422A32 
 4837      B49984E2 
 4837      BC97D7B0 
 4838 68f4 D4AE86D3 		.ascii	"\324\256\206\323\255|\321\247s\317\240i\313\235^\314"
 4838      AD7CD1A7 
 4838      73CFA069 
 4838      CB9D5ECC 
 4839 6904 9C63CA9B 		.ascii	"\234c\312\233h\315\242z\317\247\200\315\242|\317\246"
 4839      68CDA27A 
 4839      CFA780CD 
 4839      A27CCFA6 
 4840 6914 81D1AD8D 		.ascii	"\201\321\255\215\324\261\232\324\263\233\327\265\245"
 4840      D4B19AD4 
 4840      B39BD7B5 
 4840      A5
 4841 6921 D5B0A0D6 		.ascii	"\325\260\240\326\267\254\327\276\264\325\266\240\326"
 4841      B7ACD7BE 
 4841      B4D5B6A0 
 4841      D6
 4842 692e B299D4B3 		.ascii	"\262\231\324\263\235\326\273\264\330\273\277\330\276"
 4842      9DD6BBB4 
 4842      D8BBBFD8 
 4842      BE
 4843 693b C5D6BEC7 		.ascii	"\305\326\276\307\326\300\314\331\312\326\327\306\313"
 4843      D6C0CCD9 
 4843      CAD6D7C6 
 4843      CB
 4844 6948 D5B9BBD9 		.ascii	"\325\271\273\331\273\276\332\274\267\326\272\270\326"
 4844      BBBEDABC 
 4844      B7D6BAB8 
 4844      D6
 4845 6955 BBBEDAC5 		.ascii	"\273\276\332\305\311\340\315\321\343\321\332\343\325"
 4845      C9E0CDD1 
 4845      E3D1DAE3 
 4845      D5
 4846 6962 E0E0CFCE 		.ascii	"\340\340\317\316\321\310\307\326\304\277\333\271\247"
 4846      D1C8C7D6 
 4846      C4BFDBB9 
 4846      A7
 4847 696f D5BFB8DA 		.ascii	"\325\277\270\332\317\327\324\265\233\320\247\206\321"
 4847      CFD7D4B5 
 4847      9BD0A786 
 4847      D1
 4848 697c AA88D0AB 		.ascii	"\252\210\320\253\211\321\250\207\322\251\210\321\251"
ARM GAS  C:\Users\pbant\AppData\Local\Temp\ccAmOMRv.s 			page 254


 4848      89D1A887 
 4848      D2A988D1 
 4848      A9
 4849 6989 8AD2AB8B 		.ascii	"\212\322\253\213\324\257\215\326\263\227\331\270\240"
 4849      D4AF8DD6 
 4849      B397D9B8 
 4849      A0
 4850 6996 DCBDA7DE 		.ascii	"\334\275\247\336\301\254\337\302\255\336\300\254\333"
 4850      C1ACDFC2 
 4850      ADDEC0AC 
 4850      DB
 4851 69a3 BBA6D6B7 		.ascii	"\273\246\326\267\233\326\261\223\321\255\212\320\251"
 4851      9BD6B193 
 4851      D1AD8AD0 
 4851      A9
 4852 69b0 84D0A478 		.ascii	"\204\320\244x\314\241o\314\240h\314\237c\312\235c\314"
 4852      CCA16FCC 
 4852      A068CC9F 
 4852      63CA9D63 
 4852      CC
 4853 69c1 9C63CB9B 		.ascii	"\234c\313\233c\313\233a\313\234_\313\233]\313\232[\312"
 4853      63CB9B61 
 4853      CB9C5FCB 
 4853      9B5DCB9A 
 4853      5BCA
 4854 69d3 9A5BCA9A 		.ascii	"\232[\312\232Z\311\232X\313\232Z\313\233[\316\235]\326"
 4854      5AC99A58 
 4854      CB9A5ACB 
 4854      9B5BCE9D 
 4854      5DD6
 4855 69e5 A460CBA0 		.ascii	"\244`\313\240`\203hJgNBtZK\253\210f\327\255y\341\265"
 4855      6083684A 
 4855      674E4274 
 4855      5A4BAB88 
 4855      66D7AD79 
 4856 69fb 82C3A07C 		.ascii	"\202\303\240|( *\004\000\025>4D\226\203{\302\245\206"
 4856      28202A04 
 4856      00153E34 
 4856      4496837B 
 4856      C2A586
 4857 6a0e CFAF8FC4 		.ascii	"\317\257\217\304\247\210\322\260\220\341\274\227\330"
 4857      A788D2B0 
 4857      90E1BC97 
 4857      D8
 4858 6a1b B391D8B2 		.ascii	"\263\221\330\262\220\326\261\213\324\256\202\323\252"
 4858      90D6B18B 
 4858      D4AE82D3 
 4858      AA
 4859 6a28 78CFA571 		.ascii	"x\317\245q\315\240k\313\233`\310\226X\310\224U\313\232"
 4859      CDA06BCB 
 4859      9B60C896 
 4859      58C89455 
 4859      CB9A
 4860 6a3a 5ECC9D65 		.ascii	"^\314\235e\314\236e\316\245x\317\247\210\317\252\217"
 4860      CC9E65CE 
 4860      A578CFA7 
 4860      88CFAA8F 
ARM GAS  C:\Users\pbant\AppData\Local\Temp\ccAmOMRv.s 			page 255


 4861 6a4a D0A98BD8 		.ascii	"\320\251\213\330\271\251\331\277\263\330\272\246\333"
 4861      B9A9D9BF 
 4861      B3D8BAA6 
 4861      DB
 4862 6a57 BDB3D8BC 		.ascii	"\275\263\330\274\264\330\274\271\326\275\277\325\277"
 4862      B4D8BCB9 
 4862      D6BDBFD5 
 4862      BF
 4863 6a64 C7D6C1CC 		.ascii	"\307\326\301\314\327\302\313\327\305\316\330\302\311"
 4863      D7C2CBD7 
 4863      C5CED8C2 
 4863      C9
 4864 6a71 D4B8B9D6 		.ascii	"\324\270\271\326\271\264\330\274\260\335\301\277\336"
 4864      B9B4D8BC 
 4864      B0DDC1BF 
 4864      DE
 4865 6a7e C6C9D8C0 		.ascii	"\306\311\330\300\302\333\305\310\332\304\314\337\314"
 4865      C2DBC5C8 
 4865      DAC4CCDF 
 4865      CC
 4866 6a8b D6DCC4C2 		.ascii	"\326\334\304\302\325\265\247\332\275\263\324\311\317"
 4866      D5B5A7DA 
 4866      BDB3D4C9 
 4866      CF
 4867 6a98 D1C1BFD3 		.ascii	"\321\301\277\323\250\202\317\256\224\334\324\336\321"
 4867      A882CFAE 
 4867      94DCD4DE 
 4867      D1
 4868 6aa5 A988D1AB 		.ascii	"\251\210\321\253\211\320\253\211\320\250\210\321\250"
 4868      89D0AB89 
 4868      D0A888D1 
 4868      A8
 4869 6ab2 88D1A989 		.ascii	"\210\321\251\211\323\254\214\325\260\220\327\264\232"
 4869      D3AC8CD5 
 4869      B090D7B4 
 4869      9A
 4870 6abf D9B9A0DC 		.ascii	"\331\271\240\334\276\247\336\301\254\337\302\256\337"
 4870      BEA7DEC1 
 4870      ACDFC2AE 
 4870      DF
 4871 6acc C1ACDDBF 		.ascii	"\301\254\335\277\251\331\272\241\327\265\232\325\263"
 4871      A9D9BAA1 
 4871      D7B59AD5 
 4871      B3
 4872 6ad9 93D4AE8C 		.ascii	"\223\324\256\214\322\251\203\320\246z\315\241m\313\236"
 4872      D2A983D0 
 4872      A67ACDA1 
 4872      6DCB9E
 4873 6ae8 64CB9C5F 		.ascii	"d\313\234_\312\232\\\312\232\\\314\233]\313\233]\314"
 4873      CA9A5CCA 
 4873      9A5CCC9B 
 4873      5DCB9B5D 
 4873      CC
 4874 6af9 9B5ECC9A 		.ascii	"\233^\314\232_\314\234`\313\234b\312\235a\313\236d\314"
 4874      5FCC9C60 
 4874      CB9C62CA 
 4874      9D61CB9E 
ARM GAS  C:\Users\pbant\AppData\Local\Temp\ccAmOMRv.s 			page 256


 4874      64CC
 4875 6b0b 9F68CEA0 		.ascii	"\237h\316\240j\316\241j\317\243j\331\252o\334\255u\333"
 4875      6ACEA16A 
 4875      CFA36AD9 
 4875      AA6FDCAD 
 4875      75DB
 4876 6b1d B077DBB0 		.ascii	"\260w\333\260\177\324\255\203\323\256\213\340\271\223"
 4876      7FD4AD83 
 4876      D3AE8BE0 
 4876      B993
 4877 6b2b C6A58AA4 		.ascii	"\306\245\212\244\214z\334\271\230\351\302\240\341\275"
 4877      8C7ADCB9 
 4877      98E9C2A0 
 4877      E1BD
 4878 6b39 9CDFBA9A 		.ascii	"\234\337\272\232\337\271\230\335\267\224\331\263\223"
 4878      DFB998DD 
 4878      B794D9B3 
 4878      93
 4879 6b46 DAB492D9 		.ascii	"\332\264\222\331\263\221\327\260\215\326\257\204\323"
 4879      B391D7B0 
 4879      8DD6AF84 
 4879      D3
 4880 6b53 AB7BD0A5 		.ascii	"\253{\320\245q\316\237c\315\232S\310\224J\307\224K\312"
 4880      71CE9F63 
 4880      CD9A53C8 
 4880      944AC794 
 4880      4BCA
 4881 6b65 944DC691 		.ascii	"\224M\306\221L\310\233f\316\250\206\322\252\201\324"
 4881      4CC89B66 
 4881      CEA886D2 
 4881      AA81D4
 4882 6b74 AF8EDCC4 		.ascii	"\257\216\334\304\274\335\307\277\337\305\300\337\311"
 4882      BCDDC7BF 
 4882      DFC5C0DF 
 4882      C9
 4883 6b81 CADEC7CA 		.ascii	"\312\336\307\312\330\276\271\330\274\272\326\273\274"
 4883      D8BEB9D8 
 4883      BCBAD6BB 
 4883      BC
 4884 6b8e D9C0BEDB 		.ascii	"\331\300\276\333\304\304\332\305\311\331\304\310\332"
 4884      C4C4DAC5 
 4884      C9D9C4C8 
 4884      DA
 4885 6b9b BDBED9BA 		.ascii	"\275\276\331\272\264\340\306\301\342\310\305\330\274"
 4885      B4E0C6C1 
 4885      E2C8C5D8 
 4885      BC
 4886 6ba8 B6CFAFA7 		.ascii	"\266\317\257\247\326\270\271\340\312\323\342\321\334"
 4886      D6B8B9E0 
 4886      CAD3E2D1 
 4886      DC
 4887 6bb5 DBC1BFD9 		.ascii	"\333\301\277\331\272\257\333\277\271\330\271\237\322"
 4887      BAAFDBBF 
 4887      B9D8B99F 
 4887      D2
 4888 6bc2 AD8EC8B7 		.ascii	"\255\216\310\267\267\317\277\275\334\267\246\330\275"
 4888      B7CFBFBD 
ARM GAS  C:\Users\pbant\AppData\Local\Temp\ccAmOMRv.s 			page 257


 4888      DCB7A6D8 
 4888      BD
 4889 6bcf B8D0AA88 		.ascii	"\270\320\252\210\320\252\210\320\252\210\317\251\210"
 4889      D0AA88D0 
 4889      AA88CFA9 
 4889      88
 4890 6bdc D0A989D1 		.ascii	"\320\251\211\321\253\211\325\256\216\326\261\223\327"
 4890      AB89D5AE 
 4890      8ED6B193 
 4890      D7
 4891 6be9 B49BD8B9 		.ascii	"\264\233\330\271\241\334\276\244\334\300\252\337\301"
 4891      A1DCBEA4 
 4891      DCC0AADF 
 4891      C1
 4892 6bf6 AEDFC2AD 		.ascii	"\256\337\302\255\335\302\254\334\300\250\332\273\244"
 4892      DDC2ACDC 
 4892      C0A8DABB 
 4892      A4
 4893 6c03 D8B79FD6 		.ascii	"\330\267\237\326\263\227\324\257\220\322\254\211\317"
 4893      B397D4AF 
 4893      90D2AC89 
 4893      CF
 4894 6c10 A67CCEA1 		.ascii	"\246|\316\241o\314\236d\311\233Z\311\230V\314\231Y\314"
 4894      6FCC9E64 
 4894      C99B5AC9 
 4894      9856CC99 
 4894      59CC
 4895 6c22 9B5DCD9C 		.ascii	"\233]\315\234^\313\234`\313\236d\317\241j\316\242l\317"
 4895      5ECB9C60 
 4895      CB9E64CF 
 4895      A16ACEA2 
 4895      6CCF
 4896 6c34 A370D0A5 		.ascii	"\243p\320\245r\320\246t\321\247w\322\250x\322\251w\322"
 4896      72D0A674 
 4896      D1A777D2 
 4896      A878D2A9 
 4896      77D2
 4897 6c46 AA7BD3AA 		.ascii	"\252{\323\252\202\324\256\212\325\260\216\331\263\221"
 4897      82D4AE8A 
 4897      D5B08ED9 
 4897      B391
 4898 6c54 D9B595E2 		.ascii	"\331\265\225\342\273\235\350\302\240\337\274\234\334"
 4898      BB9DE8C2 
 4898      A0DFBC9C 
 4898      DC
 4899 6c61 B99DDBB9 		.ascii	"\271\235\333\271\234\331\271\233\334\267\231\333\265"
 4899      9CD9B99B 
 4899      DCB799DB 
 4899      B5
 4900 6c6e 95D9B392 		.ascii	"\225\331\263\222\331\262\221\326\261\220\325\260\214"
 4900      D9B291D6 
 4900      B190D5B0 
 4900      8C
 4901 6c7b D4AE83D2 		.ascii	"\324\256\203\322\253x\320\244l\316\237_\315\233W\312"
 4901      AB78D0A4 
 4901      6CCE9F5F 
 4901      CD9B57CA 
ARM GAS  C:\Users\pbant\AppData\Local\Temp\ccAmOMRv.s 			page 258


 4902 6c8b 944EC894 		.ascii	"\224N\310\224P\311\233f\312\236u\313\242v\320\251\200"
 4902      50C99B66 
 4902      CA9E75CB 
 4902      A276D0A9 
 4902      80
 4903 6c9c DCBEAFE5 		.ascii	"\334\276\257\345\317\323\337\307\300\326\271\260\331"
 4903      CFD3DFC7 
 4903      C0D6B9B0 
 4903      D9
 4904 6ca9 BCAEDBC3 		.ascii	"\274\256\333\303\271\327\274\265\326\271\264\330\276"
 4904      B9D7BCB5 
 4904      D6B9B4D8 
 4904      BE
 4905 6cb6 BFDDC5C1 		.ascii	"\277\335\305\301\340\306\303\337\315\321\337\315\326"
 4905      E0C6C3DF 
 4905      CDD1DFCD 
 4905      D6
 4906 6cc3 E0C8CDDE 		.ascii	"\340\310\315\336\305\277\335\303\265\330\271\247\323"
 4906      C5BFDDC3 
 4906      B5D8B9A7 
 4906      D3
 4907 6cd0 B3A2D0B0 		.ascii	"\263\242\320\260\243\331\277\301\340\312\325\340\314"
 4907      A3D9BFC1 
 4907      E0CAD5E0 
 4907      CC
 4908 6cdd D4D8BCB3 		.ascii	"\324\330\274\263\331\272\254\333\275\263\323\265\235"
 4908      D9BAACDB 
 4908      BDB3D3B5 
 4908      9D
 4909 6cea D3AE8AD2 		.ascii	"\323\256\212\322\255\206\324\255\216\314\273\301\325"
 4909      AD86D4AD 
 4909      8ECCBBC1 
 4909      D5
 4910 6cf7 D0E1D9BC 		.ascii	"\320\341\331\274\262\320\252\210\320\252\210\320\252"
 4910      B2D0AA88 
 4910      D0AA88D0 
 4910      AA
 4911 6d04 88CFA988 		.ascii	"\210\317\251\210\321\253\212\323\256\213\324\257\217"
 4911      D1AB8AD3 
 4911      AE8BD4AF 
 4911      8F
 4912 6d11 D6B296D9 		.ascii	"\326\262\226\331\264\235\331\271\241\334\275\244\334"
 4912      B49DD9B9 
 4912      A1DCBDA4 
 4912      DC
 4913 6d1e BFA9DEC1 		.ascii	"\277\251\336\301\256\336\304\260\337\306\262\336\305"
 4913      AEDEC4B0 
 4913      DFC6B2DE 
 4913      C5
 4914 6d2b B1DDC4B0 		.ascii	"\261\335\304\260\334\301\255\333\274\245\327\267\233"
 4914      DCC1ADDB 
 4914      BCA5D7B7 
 4914      9B
 4915 6d38 D5B294D3 		.ascii	"\325\262\224\323\255\212\321\250}\316\242n\312\235`"
 4915      AD8AD1A8 
 4915      7DCEA26E 
 4915      CA9D60
ARM GAS  C:\Users\pbant\AppData\Local\Temp\ccAmOMRv.s 			page 259


 4916 6d47 C9995ACB 		.ascii	"\311\231Z\313\231X\314\233[\314\234\\\313\235a\314\237"
 4916      9958CC9B 
 4916      5BCC9C5C 
 4916      CB9D61CC 
 4916      9F
 4917 6d58 67CFA26D 		.ascii	"g\317\242m\317\245r\321"
 4917      CFA572D1 
 4918 6d60 A97AD3AB 		.ascii	"\251z\323\253\177\325\254\204\325\254\207\324\255\210"
 4918      7FD5AC84 
 4918      D5AC87D4 
 4918      AD88
 4919 6d6e D5AE89D6 		.ascii	"\325\256\211\326\257\214\327\261\217\330\264\217\330"
 4919      AF8CD7B1 
 4919      8FD8B48F 
 4919      D8
 4920 6d7b B494DAB7 		.ascii	"\264\224\332\267\227\333\270\231\334\270\234\335\271"
 4920      97DBB899 
 4920      DCB89CDD 
 4920      B9
 4921 6d88 9DDDB99D 		.ascii	"\235\335\271\235\334\272\235\333\272\235\333\271\233"
 4921      DCBA9DDB 
 4921      BA9DDBB9 
 4921      9B
 4922 6d95 DDB99ADC 		.ascii	"\335\271\232\334\266\226\331\263\223\330\263\217\327"
 4922      B696D9B3 
 4922      93D8B38F 
 4922      D7
 4923 6da2 B08ED5AF 		.ascii	"\260\216\325\257\212\324\254\200\322\250t\320\244h\314"
 4923      8AD4AC80 
 4923      D2A874D0 
 4923      A468CC
 4924 6db1 9F5BCC9C 		.ascii	"\237[\314\234]\312\234e\315\243z\320\247\201\317\245"
 4924      5DCA9C65 
 4924      CDA37AD0 
 4924      A781CFA5 
 4925 6dc1 74D1A97D 		.ascii	"t\321\251}\336\301\266\344\315\322\333\277\267\324\263"
 4925      DEC1B6E4 
 4925      CDD2DBBF 
 4925      B7D4B3
 4926 6dd0 A1D7B8A4 		.ascii	"\241\327\270\244\327\271\256\326\271\261\326\272\261"
 4926      D7B9AED6 
 4926      B9B1D6BA 
 4926      B1
 4927 6ddd DEC3C1DF 		.ascii	"\336\303\301\337\307\313\337\313\320\343\325\336\335"
 4927      C7CBDFCB 
 4927      D0E3D5DE 
 4927      DD
 4928 6dea CBCDDABD 		.ascii	"\313\315\332\275\253\332\273\245\326\263\227\323\260"
 4928      ABDABBA5 
 4928      D6B397D3 
 4928      B0
 4929 6df7 94DBBCAF 		.ascii	"\224\333\274\257\333\303\277\342\316\327\345\323\337"
 4929      DBC3BFE2 
 4929      CED7E5D3 
 4929      DF
 4930 6e04 DFCBCDD6 		.ascii	"\337\313\315\326\271\261\324\265\253\325\267\247\321"
 4930      B9B1D4B5 
ARM GAS  C:\Users\pbant\AppData\Local\Temp\ccAmOMRv.s 			page 260


 4930      ABD5B7A7 
 4930      D1
 4931 6e11 B094CFAA 		.ascii	"\260\224\317\252\205\323\256\210\323\253\206\332\271"
 4931      85D3AE88 
 4931      D3AB86DA 
 4931      B9
 4932 6e1e ACDBBDB6 		.ascii	"\254\333\275\266\313\266\264\315\312\326\323\255\213"
 4932      CBB6B4CD 
 4932      CAD6D3AD 
 4932      8B
 4933 6e2b D3AC8BD2 		.ascii	"\323\254\213\322\253\213\321\253\213\322\254\214\321"
 4933      AB8BD1AB 
 4933      8BD2AC8C 
 4933      D1
 4934 6e38 AE8ED0B0 		.ascii	"\256\216\320\260\222\324\263\231\330\266\235\331\272"
 4934      92D4B399 
 4934      D8B69DD9 
 4934      BA
 4935 6e45 A0DCBDA5 		.ascii	"\240\334\275\245\333\276\251\337\301\256\337\305\262"
 4935      DBBEA9DF 
 4935      C1AEDFC5 
 4935      B2
 4936 6e52 E2C9B9E3 		.ascii	"\342\311\271\343\311\272\343\312\272\342\311\267\340"
 4936      C9BAE3CA 
 4936      BAE2C9B7 
 4936      E0
 4937 6e5f C6B3DCC0 		.ascii	"\306\263\334\300\252\331\272\241\326\264\225\323\254"
 4937      AAD9BAA1 
 4937      D6B495D3 
 4937      AC
 4938 6e6c 8ACFA578 		.ascii	"\212\317\245x\314\237f\312\232\\\314\231V\313\230V\312"
 4938      CC9F66CA 
 4938      9A5CCC99 
 4938      56CB9856 
 4938      CA
 4939 6e7d 9A59CA9D 		.ascii	"\232Y\312\235a\315\240j\320\244q\321\250z\323\254\204"
 4939      61CDA06A 
 4939      D0A471D1 
 4939      A87AD3AC 
 4939      84
 4940 6e8e D5AF8CD8 		.ascii	"\325\257\214\330\261\220\330\263\222\330\264\221\331"
 4940      B190D8B3 
 4940      92D8B491 
 4940      D9
 4941 6e9b B493D9B5 		.ascii	"\264\223\331\265\225\331\266\225\332\267\227\332\267"
 4941      95D9B695 
 4941      DAB797DA 
 4941      B7
 4942 6ea8 99DAB89B 		.ascii	"\231\332\270\233\333\271\233\333\271\233\334\272\235"
 4942      DBB99BDB 
 4942      B99BDCBA 
 4942      9D
 4943 6eb5 DDBB9EDC 		.ascii	"\335\273\236\334\272\235\333\272\235\332\271\233\334"
 4943      BA9DDBBA 
 4943      9DDAB99B 
 4943      DC
 4944 6ec2 B899DAB6 		.ascii	"\270\231\332\266\226\331\263\222\330\262\217\327\257"
ARM GAS  C:\Users\pbant\AppData\Local\Temp\ccAmOMRv.s 			page 261


 4944      96D9B392 
 4944      D8B28FD7 
 4944      AF
 4945 6ecf 89D4AC80 		.ascii	"\211\324\254\200\324\252z\320\245p\317\243k\315\243"
 4945      D4AA7AD0 
 4945      A570CFA3 
 4945      6BCDA3
 4946 6ede 6ECBA06F 		.ascii	"n\313\240o\314\241p\320\250z\324\254\204\325\256\215"
 4946      CCA170D0 
 4946      A87AD4AC 
 4946      84D5AE8D 
 4947 6eee DEC7C0DE 		.ascii	"\336\307\300\336\307\300\325\262\232\320\254\220\322"
 4947      C7C0D5B2 
 4947      9AD0AC90 
 4947      D2
 4948 6efb B3A4D2B1 		.ascii	"\263\244\322\261\252\330\272\267\336\305\305\335\306"
 4948      AAD8BAB7 
 4948      DEC5C5DD 
 4948      C6
 4949 6f08 CBDBC4C2 		.ascii	"\313\333\304\302\332\303\303\335\315\326\327\276\260"
 4949      DAC3C3DD 
 4949      CDD6D7BE 
 4949      B0
 4950 6f15 D2AB89D2 		.ascii	"\322\253\211\322\252\203\327\267\233\327\264\227\331"
 4950      AA83D7B7 
 4950      9BD7B497 
 4950      D9
 4951 6f22 BCADDFC5 		.ascii	"\274\255\337\305\305\337\304\305\337\307\314\330\302"
 4951      C5DFC4C5 
 4951      DFC7CCD8 
 4951      C2
 4952 6f2f C1CFB4A8 		.ascii	"\301\317\264\250\321\263\245\322\257\237\321\254\217"
 4952      D1B3A5D2 
 4952      AF9FD1AC 
 4952      8F
 4953 6f3c CDA887CF 		.ascii	"\315\250\207\317\255\217\322\262\224\326\267\243\327"
 4953      AD8FD2B2 
 4953      94D6B7A3 
 4953      D7
 4954 6f49 B9A8D5AC 		.ascii	"\271\250\325\254\215\323\253\213\314\262\250\323\255"
 4954      8DD3AB8B 
 4954      CCB2A8D3 
 4954      AD
 4955 6f56 90D3AD8F 		.ascii	"\220\323\255\217\323\254\216\322\254\216\323\254\216"
 4955      D3AC8ED2 
 4955      AC8ED3AC 
 4955      8E
 4956 6f63 D1AD8FD2 		.ascii	"\321\255\217\322\261\226\323\265\234\327\270\241\332"
 4956      B196D3B5 
 4956      9CD7B8A1 
 4956      DA
 4957 6f70 BAA2DDBD 		.ascii	"\272\242\335\275\246\334\276\251\336\301\257\337\307"
 4957      A6DCBEA9 
 4957      DEC1AFDF 
 4957      C7
 4958 6f7d B4E4CCBC 		.ascii	"\264\344\314\274\344\316\300\346\317\302\346\316\300"
 4958      E4CEC0E6 
ARM GAS  C:\Users\pbant\AppData\Local\Temp\ccAmOMRv.s 			page 262


 4958      CFC2E6CE 
 4958      C0
 4959 6f8a E3CBBBE0 		.ascii	"\343\313\273\340\307\265\335\300\252\330\270\236\324"
 4959      C7B5DDC0 
 4959      AAD8B89E 
 4959      D4
 4960 6f97 B191D1A9 		.ascii	"\261\221\321\251\201\315\241j\312\233\\\313\231T\312"
 4960      81CDA16A 
 4960      CA9B5CCB 
 4960      9954CA
 4961 6fa6 9954CA9A 		.ascii	"\231T\312\232Y\315\236d\317\244n\320\251x\323\254\205"
 4961      59CD9E64 
 4961      CFA46ED0 
 4961      A978D3AC 
 4961      85
 4962 6fb7 D6AF8ED9 		.ascii	"\326\257\216\331\263\222\333\266\227\333\267\232\333"
 4962      B392DBB6 
 4962      97DBB79A 
 4962      DB
 4963 6fc4 B89BDAB8 		.ascii	"\270\233\332\270\234\332\271\235\331\272\236\331\273"
 4963      9CDAB99D 
 4963      D9BA9ED9 
 4963      BB
 4964 6fd1 9FDABA9F 		.ascii	"\237\332\272\237\332\272\237\332\271\237\334\272\240"
 4964      DABA9FDA 
 4964      B99FDCBA 
 4964      A0
 4965 6fde DDBC9FDC 		.ascii	"\335\274\237\334\273\236\335\273\235\335\272\234\333"
 4965      BB9EDDBB 
 4965      9DDDBA9C 
 4965      DB
 4966 6feb B89ADBB7 		.ascii	"\270\232\333\267\230\332\266\225\330\263\222\325\257"
 4966      98DAB695 
 4966      D8B392D5 
 4966      AF
 4967 6ff8 8CD6AE85 		.ascii	"\214\326\256\205\324\254z\323\251u\320\245p\321\247"
 4967      D4AC7AD3 
 4967      A975D0A5 
 4967      70D1A7
 4968 7007 79D1A576 		.ascii	"y\321\245v\315\241i\316\243k\321\247z\323\257\225\340"
 4968      CDA169CE 
 4968      A36BD1A7 
 4968      7AD3AF95 
 4968      E0
 4969 7018 C7C9DAC1 		.ascii	"\307\311\332\301\272\321\256\227\324\260\242\325\270"
 4969      BAD1AE97 
 4969      D4B0A2D5 
 4969      B8
 4970 7025 B4D2B7B5 		.ascii	"\264\322\267\265\323\265\253\324\266\274\321\264\261"
 4970      D3B5ABD4 
 4970      B6BCD1B4 
 4970      B1
 4971 7032 D3B096D9 		.ascii	"\323\260\226\331\273\257\335\311\315\325\264\230\321"
 4971      BBAFDDC9 
 4971      CDD5B498 
 4971      D1
 4972 703f A882D4B0 		.ascii	"\250\202\324\260\216\326\256\211\325\260\220\331\271"
ARM GAS  C:\Users\pbant\AppData\Local\Temp\ccAmOMRv.s 			page 263


 4972      8ED6AE89 
 4972      D5B090D9 
 4972      B9
 4973 704c A3DCC1BD 		.ascii	"\243\334\301\275\335\304\305\332\277\276\323\265\257"
 4973      DDC4C5DA 
 4973      BFBED3B5 
 4973      AF
 4974 7059 D1AF98CD 		.ascii	"\321\257\230\315\253\223\322\257\233\317\253\230\316"
 4974      AB93D2AF 
 4974      9BCFAB98 
 4974      CE
 4975 7066 AB91D3B1 		.ascii	"\253\221\323\261\234\323\270\246\327\265\241\326\262"
 4975      9CD3B8A6 
 4975      D7B5A1D6 
 4975      B2
 4976 7073 98D3AC8C 		.ascii	"\230\323\254\214\323\253\212\322\254\216\324\253\207"
 4976      D3AB8AD2 
 4976      AC8ED4AB 
 4976      87
 4977 7080 D3AE94D2 		.ascii	"\323\256\224\322\255\221\321\255\220\321\254\220\322"
 4977      AD91D1AD 
 4977      90D1AC90 
 4977      D2
 4978 708d AD90D3AF 		.ascii	"\255\220\323\257\223\324\262\233\326\267\237\332\271"
 4978      93D4B29B 
 4978      D6B79FDA 
 4978      B9
 4979 709a A4DBBCA6 		.ascii	"\244\333\274\246\335\276\252\334\301\255\337\303\263"
 4979      DDBEAADC 
 4979      C1ADDFC3 
 4979      B3
 4980 70a7 E2C8B8E4 		.ascii	"\342\310\270\344\314\276\347\320\307\350\321\313\346"
 4980      CCBEE7D0 
 4980      C7E8D1CB 
 4980      E6
 4981 70b4 D1CAE5D0 		.ascii	"\321\312\345\320\304\343\314\273\341\305\262\333\275"
 4981      C4E3CCBB 
 4981      E1C5B2DB 
 4981      BD
 4982 70c1 A5D6B495 		.ascii	"\245\326\264\225\322\254\206\315\243l\311\233[\312\230"
 4982      D2AC86CD 
 4982      A36CC99B 
 4982      5BCA98
 4983 70d0 55CB9955 		.ascii	"U\313\231U\313\233^\316\240i\322\246t\323\254\202\326"
 4983      CB9B5ECE 
 4983      A069D2A6 
 4983      74D3AC82 
 4983      D6
 4984 70e1 B18EDAB5 		.ascii	"\261\216\332\265\224\332\267\230\332\271\235\332\271"
 4984      94DAB798 
 4984      DAB99DDA 
 4984      B9
 4985 70ee A0DBBAA1 		.ascii	"\240\333\272\241\333\274\242\333\275\243\333\275\243"
 4985      DBBCA2DB 
 4985      BDA3DBBD 
 4985      A3
 4986 70fb DBBDA3DA 		.ascii	"\333\275\243\332\274\237\332\274\237\332\274\241\335"
ARM GAS  C:\Users\pbant\AppData\Local\Temp\ccAmOMRv.s 			page 264


 4986      BC9FDABC 
 4986      9FDABCA1 
 4986      DD
 4987 7108 BEA4DEBD 		.ascii	"\276\244\336\275\241\333\274\237\334\273\234\336\271"
 4987      A1DBBC9F 
 4987      DCBB9CDE 
 4987      B9
 4988 7115 9ADBB897 		.ascii	"\232\333\270\227\331\266\224\331\264\223\330\263\221"
 4988      D9B694D9 
 4988      B493D8B3 
 4988      91
 4989 7122 D5B18AD5 		.ascii	"\325\261\212\325\256\204\325\254{\322\251u\321\252y"
 4989      AE84D5AC 
 4989      7BD2A975 
 4989      D1AA79
 4990 7131 D2A879D0 		.ascii	"\322\250y\320\245m\320\247}\320\250~\326\263\234\340"
 4990      A56DD0A7 
 4990      7DD0A87E 
 4990      D6B39CE0 
 4991 7141 CBD0DBBF 		.ascii	"\313\320\333\277\300\322\260\254\322\260\252\322\261"
 4991      C0D2B0AC 
 4991      D2B0AAD2 
 4991      B1
 4992 714e A4D0AE9A 		.ascii	"\244\320\256\232\315\253\226\320\260\244\322\261\241"
 4992      CDAB96D0 
 4992      B0A4D2B1 
 4992      A1
 4993 715b D0A781D6 		.ascii	"\320\247\201\326\271\255\337\311\322\324\263\217\314"
 4993      B9ADDFC9 
 4993      D2D4B38F 
 4993      CC
 4994 7168 9D63D3A9 		.ascii	"\235c\323\251}\324\260\213\324\260\222\334\274\255\341"
 4994      7DD4B08B 
 4994      D4B092DC 
 4994      BCADE1
 4995 7177 C6C7D9BE 		.ascii	"\306\307\331\276\277\332\274\265\321\264\245\322\257"
 4995      BFDABCB5 
 4995      D1B4A5D2 
 4995      AF
 4996 7184 9AD0AB97 		.ascii	"\232\320\253\227\316\255\234\320\260\244\320\260\244"
 4996      CEAD9CD0 
 4996      B0A4D0B0 
 4996      A4
 4997 7191 D7B9A5D9 		.ascii	"\327\271\245\331\273\245\324\263\235\322\256\224\326"
 4997      BBA5D4B3 
 4997      9DD2AE94 
 4997      D6
 4998 719e AF91D5AE 		.ascii	"\257\221\325\256\222\322\255\214\322\251\200\325\251"
 4998      92D2AD8C 
 4998      D2A980D5 
 4998      A9
 4999 71ab 79D3AF94 		.ascii	"y\323\257\224\323\257\224\323\256\224\322\256\224\322"
 4999      D3AF94D3 
 4999      AE94D2AE 
 4999      94D2
 5000 71b9 AF95D2B0 		.ascii	"\257\225\322\260\227\324\264\235\331\271\245\334\274"
 5000      97D4B49D 
ARM GAS  C:\Users\pbant\AppData\Local\Temp\ccAmOMRv.s 			page 265


 5000      D9B9A5DC 
 5000      BC
 5001 71c6 AADBBEAB 		.ascii	"\252\333\276\253\335\300\256\334\304\262\340\307\267"
 5001      DDC0AEDC 
 5001      C4B2E0C7 
 5001      B7
 5002 71d3 E3CBBCE4 		.ascii	"\343\313\274\344\315\303\346\317\311\347\322\315\347"
 5002      CDC3E6CF 
 5002      C9E7D2CD 
 5002      E7
 5003 71e0 D3CFE7D3 		.ascii	"\323\317\347\323\313\346\320\302\343\312\270\336\302"
 5003      CBE6D0C2 
 5003      E3CAB8DE 
 5003      C2
 5004 71ed AAD7B79A 		.ascii	"\252\327\267\232\323\255\212\315\243q\312\233Z\312\230"
 5004      D3AD8ACD 
 5004      A371CA9B 
 5004      5ACA98
 5005 71fc 54CA9A57 		.ascii	"T\312\232W\314\234`\316\241l\320\247x\323\254\210\327"
 5005      CC9C60CE 
 5005      A16CD0A7 
 5005      78D3AC88 
 5005      D7
 5006 720d B392DAB7 		.ascii	"\263\222\332\267\227\333\272\234\332\273\240\332\275"
 5006      97DBBA9C 
 5006      DABBA0DA 
 5006      BD
 5007 721a A1DBBDA2 		.ascii	"\241\333\275\242\334\277\244\335\300\245\336\300\245"
 5007      DCBFA4DD 
 5007      C0A5DEC0 
 5007      A5
 5008 7227 DDBFA4DC 		.ascii	"\335\277\244\334\276\242\335\277\242\334\276\242\335"
 5008      BEA2DDBF 
 5008      A2DCBEA2 
 5008      DD
 5009 7234 BFA3DDBF 		.ascii	"\277\243\335\277\241\335\275\236\333\272\233\333\270"
 5009      A1DDBD9E 
 5009      DBBA9BDB 
 5009      B8
 5010 7241 97DAB693 		.ascii	"\227\332\266\223\331\264\223\331\264\222\330\263\220"
 5010      D9B493D9 
 5010      B492D8B3 
 5010      90
 5011 724e D6B18CD6 		.ascii	"\326\261\214\326\260\206\326\256\177\323\253x\322\251"
 5011      B086D6AE 
 5011      7FD3AB78 
 5011      D2A9
 5012 725c 78D3A975 		.ascii	"x\323\251u\322\252w\325\261\216\335\300\266\343\314"
 5012      D2AA77D5 
 5012      B18EDDC0 
 5012      B6E3CC
 5013 726b CFDCC3C1 		.ascii	"\317\334\303\301\320\255\236\315\253\230\314\247\216"
 5013      D0AD9ECD 
 5013      AB98CCA7 
 5013      8E
 5014 7278 CBA489CD 		.ascii	"\313\244\211\315\245\215\321\255\224\330\267\245\330"
 5014      A58DD1AD 
ARM GAS  C:\Users\pbant\AppData\Local\Temp\ccAmOMRv.s 			page 266


 5014      94D8B7A5 
 5014      D8
 5015 7285 B499DABB 		.ascii	"\264\231\332\273\263\332\300\276\321\254\203\314\234"
 5015      B3DAC0BE 
 5015      D1AC83CC 
 5015      9C
 5016 7292 61CFA36D 		.ascii	"a\317\243m\323\253\200\325\263\226\335\302\270\340\310"
 5016      D3AB80D5 
 5016      B396DDC2 
 5016      B8E0C8
 5017 72a1 C5DDC1BD 		.ascii	"\305\335\301\275\327\272\255\324\265\243\321\260\241"
 5017      D7BAADD4 
 5017      B5A3D1B0 
 5017      A1
 5018 72ae D4B3A3D4 		.ascii	"\324\263\243\324\264\245\324\266\252\324\267\256\325"
 5018      B4A5D4B6 
 5018      AAD4B7AE 
 5018      D5
 5019 72bb B8AAD5B7 		.ascii	"\270\252\325\267\241\325\261\224\325\260\221\325\263"
 5019      A1D5B194 
 5019      D5B091D5 
 5019      B3
 5020 72c8 92D6B090 		.ascii	"\222\326\260\220\324\256\212\325\255\205\325\254~\326"
 5020      D4AE8AD5 
 5020      AD85D5AC 
 5020      7ED6
 5021 72d6 AF88D3B0 		.ascii	"\257\210\323\260\227\323\261\230\324\261\230\323\261"
 5021      97D3B198 
 5021      D4B198D3 
 5021      B1
 5022 72e3 98D4B29A 		.ascii	"\230\324\262\232\325\265\234\330\271\243\335\274\254"
 5022      D5B59CD8 
 5022      B9A3DDBC 
 5022      AC
 5023 72f0 DDC0B1DD 		.ascii	"\335\300\261\335\302\262\336\303\263\337\306\267\343"
 5023      C2B2DEC3 
 5023      B3DFC6B7 
 5023      E3
 5024 72fd CABBE4CD 		.ascii	"\312\273\344\315\300\345\317\306\346\320\313\350\323"
 5024      C0E5CFC6 
 5024      E6D0CBE8 
 5024      D3
 5025 730a CFE8D5D0 		.ascii	"\317\350\325\320\350\324\317\347\321\311\344\315\275"
 5025      E8D4CFE7 
 5025      D1C9E4CD 
 5025      BD
 5026 7317 E0C6AFD9 		.ascii	"\340\306\257\331\273\240\324\260\217\317\246{\312\236"
 5026      BBA0D4B0 
 5026      8FCFA67B 
 5026      CA9E
 5027 7325 62CA9958 		.ascii	"b\312\231X\312\233W\314\234`\315\241k\320\250w\324\255"
 5027      CA9B57CC 
 5027      9C60CDA1 
 5027      6BD0A877 
 5027      D4AD
 5028 7337 87D7B291 		.ascii	"\207\327\262\221\331\267\225\333\271\233\333\274\237"
 5028      D9B795DB 
ARM GAS  C:\Users\pbant\AppData\Local\Temp\ccAmOMRv.s 			page 267


 5028      B99BDBBC 
 5028      9F
 5029 7344 DBBDA2DD 		.ascii	"\333\275\242\335\277\244\337\301\246\341\303\250\341"
 5029      BFA4DFC1 
 5029      A6E1C3A8 
 5029      E1
 5030 7351 C3A8E0C2 		.ascii	"\303\250\340\302\247\337\301\246\336\300\244\334\276"
 5030      A7DFC1A6 
 5030      DEC0A4DC 
 5030      BE
 5031 735e A1DABD9F 		.ascii	"\241\332\275\237\334\275\236\335\272\235\333\270\230"
 5031      DCBD9EDD 
 5031      BA9DDBB8 
 5031      98
 5032 736b DAB592D9 		.ascii	"\332\265\222\331\262\221\331\263\221\331\263\221\330"
 5032      B291D9B3 
 5032      91D9B391 
 5032      D8
 5033 7378 B290D5B0 		.ascii	"\262\220\325\260\213\326\257\205\326\256\200\325\254"
 5033      8BD6AF85 
 5033      D6AE80D5 
 5033      AC
 5034 7385 7CD4AC7D 		.ascii	"|\324\254}\326\256\203\326\264\220\334\277\257\340\311"
 5034      D6AE83D6 
 5034      B490DCBF 
 5034      AFE0C9
 5035 7394 C7DABDB2 		.ascii	"\307\332\275\262\322\257\236\321\255\230\316\251\222"
 5035      D2AF9ED1 
 5035      AD98CEA9 
 5035      92
 5036 73a1 D0A88BD1 		.ascii	"\320\250\213\321\251\205\322\252\200\326\260\217\327"
 5036      A985D2AA 
 5036      80D6B08F 
 5036      D7
 5037 73ae B59DDCC0 		.ascii	"\265\235\334\300\275\334\301\277\324\257\215\317\236"
 5037      BDDCC1BF 
 5037      D4AF8DCF 
 5037      9E
 5038 73bb 60D0A26C 		.ascii	"`\320\242l\322\250v\332\267\235\341\303\272\335\301"
 5038      D2A876DA 
 5038      B79DE1C3 
 5038      BADDC1
 5039 73ca B3DEC5BE 		.ascii	"\263\336\305\276\334\275\271\330\272\252\323\262\242"
 5039      DCBDB9D8 
 5039      BAAAD3B2 
 5039      A2
 5040 73d7 D1AF9FD5 		.ascii	"\321\257\237\325\264\244\323\263\243\325\265\250\327"
 5040      B4A4D3B3 
 5040      A3D5B5A8 
 5040      D7
 5041 73e4 B9ADD4B5 		.ascii	"\271\255\324\265\244\325\260\224\325\257\215\326\261"
 5041      A4D5B094 
 5041      D5AF8DD6 
 5041      B1
 5042 73f1 8FD9B694 		.ascii	"\217\331\266\224\330\265\224\326\260\213\325\257\205"
 5042      D8B594D6 
 5042      B08BD5AF 
ARM GAS  C:\Users\pbant\AppData\Local\Temp\ccAmOMRv.s 			page 268


 5042      85
 5043 73fe D6B189D9 		.ascii	"\326\261\211\331\270\235\330\271\244\327\271\244\330"
 5043      B89DD8B9 
 5043      A4D7B9A4 
 5043      D8
 5044 740b BAA6D8BA 		.ascii	"\272\246\330\272\247\331\275\251\334\300\255\335\303"
 5044      A7D9BDA9 
 5044      DCC0ADDD 
 5044      C3
 5045 7418 B3E2C7B9 		.ascii	"\263\342\307\271\343\311\277\343\312\300\344\313\302"
 5045      E3C9BFE3 
 5045      CAC0E4CB 
 5045      C2
 5046 7425 E4CCC2E7 		.ascii	"\344\314\302\347\317\306\347\322\310\350\324\315\351"
 5046      CFC6E7D2 
 5046      C8E8D4CD 
 5046      E9
 5047 7432 D5D1ECD8 		.ascii	"\325\321\354\330\324\353\331\324\352\330\324\350\326"
 5047      D4EBD9D4 
 5047      EAD8D4E8 
 5047      D6
 5048 743f D0E7D4C8 		.ascii	"\320\347\324\310\345\315\274\337\304\256\333\273\237"
 5048      E5CDBCDF 
 5048      C4AEDBBB 
 5048      9F
 5049 744c D6B391D2 		.ascii	"\326\263\221\322\254\200\321\247q\321\245k\321\245n"
 5049      AC80D1A7 
 5049      71D1A56B 
 5049      D1A56E
 5050 745b D2AA77D4 		.ascii	"\322\252w\324\256\177\327\263\213\331\267\230\334\273"
 5050      AE7FD7B3 
 5050      8BD9B798 
 5050      DCBB
 5051 7469 9DDDBFA4 		.ascii	"\235\335\277\244\336\302\250\337\305\255\342\307\257"
 5051      DEC2A8DF 
 5051      C5ADE2C7 
 5051      AF
 5052 7476 E5CAB2E6 		.ascii	"\345\312\262\346\312\263\346\312\263\345\312\263\343"
 5052      CAB3E6CA 
 5052      B3E5CAB3 
 5052      E3
 5053 7483 C9AFE0C5 		.ascii	"\311\257\340\305\254\336\302\252\335\300\250\336\300"
 5053      ACDEC2AA 
 5053      DDC0A8DE 
 5053      C0
 5054 7490 A4DEBEA2 		.ascii	"\244\336\276\242\335\274\236\335\272\233\335\271\232"
 5054      DDBC9EDD 
 5054      BA9BDDB9 
 5054      9A
 5055 749d DCB99BDC 		.ascii	"\334\271\233\334\271\232\333\270\231\331\267\225\332"
 5055      B99ADBB8 
 5055      99D9B795 
 5055      DA
 5056 74aa B792DBB7 		.ascii	"\267\222\333\267\217\332\265\215\332\266\216\332\266"
 5056      8FDAB58D 
 5056      DAB68EDA 
 5056      B6
ARM GAS  C:\Users\pbant\AppData\Local\Temp\ccAmOMRv.s 			page 269


 5057 74b7 96D9B8A3 		.ascii	"\226\331\270\243\337\305\272\335\274\240\334\267\227"
 5057      DFC5BADD 
 5057      BCA0DCB7 
 5057      97
 5058 74c4 DCB899DA 		.ascii	"\334\270\231\332\271\232\335\272\234\333\270\231\330"
 5058      B99ADDBA 
 5058      9CDBB899 
 5058      D8
 5059 74d1 B58FD7B5 		.ascii	"\265\217\327\265\224\335\300\261\337\307\275\335\277"
 5059      94DDC0B1 
 5059      DFC7BDDD 
 5059      BF
 5060 74de ADD9B99F 		.ascii	"\255\331\271\237\324\255|\324\255w\326\260\205\335\300"
 5060      D4AD7CD4 
 5060      AD77D6B0 
 5060      85DDC0
 5061 74ed AAE6CEC1 		.ascii	"\252\346\316\301\337\307\265\343\313\310\340\306\300"
 5061      DFC7B5E3 
 5061      CBC8E0C6 
 5061      C0
 5062 74fa DEC1B3DB 		.ascii	"\336\301\263\333\276\254\326\270\247\327\271\246\332"
 5062      BEACD6B8 
 5062      A7D7B9A6 
 5062      DA
 5063 7507 BCA7D8BA 		.ascii	"\274\247\330\272\246\333\276\254\333\276\253\332\271"
 5063      A6DBBEAC 
 5063      DBBEABDA 
 5063      B9
 5064 7514 A1D7B497 		.ascii	"\241\327\264\227\335\276\241\337\300\242\333\271\232"
 5064      DDBEA1DF 
 5064      C0A2DBB9 
 5064      9A
 5065 7521 D8B593DB 		.ascii	"\330\265\223\333\267\232\334\272\236\335\300\250\334"
 5065      B79ADCBA 
 5065      9EDDC0A8 
 5065      DC
 5066 752e BFAA     		.ascii	"\277\252"
 5067              		.section	.sdram_bss,"aw"
 5068              		.align	2
 5071              	__FrameBuff:
 5072 0000 00000000 		.space	614400
 5072      00000000 
 5072      00000000 
 5072      00000000 
 5072      00000000 
 5073              		.section	.sram1_bss,"aw"
 5074              		.align	2
 5077              	__Fifo:
 5078 0000 00000000 		.space	15470
 5078      00000000 
 5078      00000000 
 5078      00000000 
 5078      00000000 
 5079              		.text
 5080              	.Letext0:
 5081              		.file 16 "c:\\program files\\daisytoolchain\\arm-none-eabi\\include\\machine\\_default_types.h"
 5082              		.file 17 "c:\\program files\\daisytoolchain\\arm-none-eabi\\include\\sys\\_stdint.h"
ARM GAS  C:\Users\pbant\AppData\Local\Temp\ccAmOMRv.s 			page 270


 5083              		.file 18 "c:\\program files\\daisytoolchain\\arm-none-eabi\\include\\stdint.h"
 5084              		.file 19 "c:\\program files\\daisytoolchain\\lib\\gcc\\arm-none-eabi\\10.2.1\\include\\stddef.h"
 5085              		.file 20 "c:\\program files\\daisytoolchain\\arm-none-eabi\\include\\c++\\10.2.1\\cmath"
 5086              		.file 21 "c:\\program files\\daisytoolchain\\arm-none-eabi\\include\\c++\\10.2.1\\bits\\std_abs.h"
 5087              		.file 22 "c:\\program files\\daisytoolchain\\arm-none-eabi\\include\\c++\\10.2.1\\cstdlib"
 5088              		.file 23 "c:\\program files\\daisytoolchain\\arm-none-eabi\\include\\c++\\10.2.1\\cstdint"
 5089              		.file 24 "c:\\program files\\daisytoolchain\\arm-none-eabi\\include\\c++\\10.2.1\\type_traits"
 5090              		.file 25 "c:\\program files\\daisytoolchain\\arm-none-eabi\\include\\c++\\10.2.1\\debug\\debug.h"
 5091              		.file 26 "c:\\program files\\daisytoolchain\\arm-none-eabi\\include\\c++\\10.2.1\\arm-none-eabi\\t
 5092              		.file 27 "c:\\program files\\daisytoolchain\\arm-none-eabi\\include\\c++\\10.2.1\\bits\\algorithmf
 5093              		.file 28 "c:\\program files\\daisytoolchain\\arm-none-eabi\\include\\c++\\10.2.1\\bits\\stl_pair.h
 5094              		.file 29 "c:\\program files\\daisytoolchain\\arm-none-eabi\\include\\c++\\10.2.1\\bits\\exception_
 5095              		.file 30 "c:\\program files\\daisytoolchain\\arm-none-eabi\\include\\c++\\10.2.1\\cstdarg"
 5096              		.file 31 "c:\\program files\\daisytoolchain\\arm-none-eabi\\include\\c++\\10.2.1\\cstdio"
 5097              		.file 32 "c:\\program files\\daisytoolchain\\arm-none-eabi\\include\\c++\\10.2.1\\cstring"
 5098              		.file 33 "c:\\program files\\daisytoolchain\\arm-none-eabi\\include\\c++\\10.2.1\\cwchar"
 5099              		.file 34 "c:\\program files\\daisytoolchain\\arm-none-eabi\\include\\c++\\10.2.1\\clocale"
 5100              		.file 35 "c:\\program files\\daisytoolchain\\arm-none-eabi\\include\\c++\\10.2.1\\bits\\basic_stri
 5101              		.file 36 "c:\\program files\\daisytoolchain\\arm-none-eabi\\include\\c++\\10.2.1\\bits\\stl_tempbu
 5102              		.file 37 "c:\\program files\\daisytoolchain\\arm-none-eabi\\include\\c++\\10.2.1\\bits\\predefined
 5103              		.file 38 "c:\\program files\\daisytoolchain\\arm-none-eabi\\include\\sys\\_types.h"
 5104              		.file 39 "c:\\program files\\daisytoolchain\\arm-none-eabi\\include\\sys\\reent.h"
 5105              		.file 40 "c:\\program files\\daisytoolchain\\arm-none-eabi\\include\\sys\\lock.h"
 5106              		.file 41 "c:\\program files\\daisytoolchain\\arm-none-eabi\\include\\math.h"
 5107              		.file 42 "c:\\program files\\daisytoolchain\\arm-none-eabi\\include\\stdlib.h"
 5108              		.file 43 "c:\\program files\\daisytoolchain\\arm-none-eabi\\include\\c++\\10.2.1\\math.h"
 5109              		.file 44 "c:\\program files\\daisytoolchain\\arm-none-eabi\\include\\c++\\10.2.1\\stdlib.h"
 5110              		.file 45 "../../../../Desktop/DaisyExamples/libDaisy//src/per/tim.h"
 5111              		.file 46 "../../../../Desktop/DaisyExamples/libDaisy//src/hid/logger_impl.h"
 5112              		.file 47 "../../../../Desktop/DaisyExamples/libDaisy//src/util/wav_format.h"
 5113              		.file 48 "../../../../Desktop/DaisyExamples/libDaisy//src/dev/max11300.h"
 5114              		.file 49 "../../../../Desktop/DaisyExamples/libDaisy//src/hid/logger.h"
 5115              		.file 50 "../../../../Desktop/DaisyExamples/libDaisy//src/dev/sdram.h"
 5116              		.file 51 "c:\\program files\\daisytoolchain\\lib\\gcc\\arm-none-eabi\\10.2.1\\include\\stdarg.h"
 5117              		.file 52 "c:\\program files\\daisytoolchain\\arm-none-eabi\\include\\stdio.h"
 5118              		.file 53 "c:\\program files\\daisytoolchain\\arm-none-eabi\\include\\string.h"
 5119              		.file 54 "../../../../Desktop/DaisyExamples/DaisySP//Source/Control/adenv.h"
 5120              		.file 55 "../../../../Desktop/DaisyExamples/DaisySP//Source/Utility/dsp.h"
 5121              		.file 56 "c:\\program files\\daisytoolchain\\arm-none-eabi\\include\\wchar.h"
 5122              		.file 57 "c:\\program files\\daisytoolchain\\arm-none-eabi\\include\\locale.h"
 5123              		.file 58 "../../../../Desktop/DaisyExamples/libDaisy//src/dev/sr_595.h"
 5124              		.file 59 "Vanilla20pt.h"
 5125              		.file 60 "Pap.h"
 5126              		.file 61 "<built-in>"
ARM GAS  C:\Users\pbant\AppData\Local\Temp\ccAmOMRv.s 			page 271


DEFINED SYMBOLS
                            *ABS*:00000000 TestTFT.cpp
C:\Users\pbant\AppData\Local\Temp\ccAmOMRv.s:17     .text._ZN5daisy9DaisySeedD2Ev:00000000 $t
C:\Users\pbant\AppData\Local\Temp\ccAmOMRv.s:26     .text._ZN5daisy9DaisySeedD2Ev:00000000 _ZN5daisy9DaisySeedD2Ev
C:\Users\pbant\AppData\Local\Temp\ccAmOMRv.s:26     .text._ZN5daisy9DaisySeedD2Ev:00000000 _ZN5daisy9DaisySeedD1Ev
C:\Users\pbant\AppData\Local\Temp\ccAmOMRv.s:67     .text._Z13AudioCallbackPKPKfPPfj:00000000 $t
C:\Users\pbant\AppData\Local\Temp\ccAmOMRv.s:75     .text._Z13AudioCallbackPKPKfPPfj:00000000 _Z13AudioCallbackPKPKfPPfj
C:\Users\pbant\AppData\Local\Temp\ccAmOMRv.s:132    .rodata.main.str1.4:00000000 $d
C:\Users\pbant\AppData\Local\Temp\ccAmOMRv.s:139    .text.startup.main:00000000 $t
C:\Users\pbant\AppData\Local\Temp\ccAmOMRv.s:147    .text.startup.main:00000000 main
C:\Users\pbant\AppData\Local\Temp\ccAmOMRv.s:948    .text.startup.main:000001c0 $d
C:\Users\pbant\AppData\Local\Temp\ccAmOMRv.s:5077   .sram1_bss:00000000 __Fifo
C:\Users\pbant\AppData\Local\Temp\ccAmOMRv.s:5071   .sdram_bss:00000000 __FrameBuff
C:\Users\pbant\AppData\Local\Temp\ccAmOMRv.s:3328   .rodata._ZL7Pap_map:00000000 _ZL7Pap_map
C:\Users\pbant\AppData\Local\Temp\ccAmOMRv.s:963    .text.startup.main:000001e4 $t
C:\Users\pbant\AppData\Local\Temp\ccAmOMRv.s:1434   .text.startup.main:000003b0 $d
C:\Users\pbant\AppData\Local\Temp\ccAmOMRv.s:1442   .text.startup._GLOBAL__sub_I_hw:00000000 $t
C:\Users\pbant\AppData\Local\Temp\ccAmOMRv.s:1449   .text.startup._GLOBAL__sub_I_hw:00000000 _GLOBAL__sub_I_hw
C:\Users\pbant\AppData\Local\Temp\ccAmOMRv.s:1964   .text.startup._GLOBAL__sub_I_hw:0000009c $d
C:\Users\pbant\AppData\Local\Temp\ccAmOMRv.s:1978   .init_array:00000000 $d
C:\Users\pbant\AppData\Local\Temp\ccAmOMRv.s:1990   .bss.Vanilla20:00000000 Vanilla20
C:\Users\pbant\AppData\Local\Temp\ccAmOMRv.s:1997   .bss.__Display:00000000 __Display
C:\Users\pbant\AppData\Local\Temp\ccAmOMRv.s:2004   .bss.hw:00000000 hw
C:\Users\pbant\AppData\Local\Temp\ccAmOMRv.s:1986   .bss.Vanilla20:00000000 $d
C:\Users\pbant\AppData\Local\Temp\ccAmOMRv.s:1993   .bss.__Display:00000000 $d
C:\Users\pbant\AppData\Local\Temp\ccAmOMRv.s:2000   .bss.hw:00000000 $d
C:\Users\pbant\AppData\Local\Temp\ccAmOMRv.s:2007   .rodata._ZL27VanillaExtractRegular20pt7b:00000000 $d
C:\Users\pbant\AppData\Local\Temp\ccAmOMRv.s:2011   .rodata._ZL27VanillaExtractRegular20pt7b:00000000 _ZL27VanillaExtractRegular20pt7b
C:\Users\pbant\AppData\Local\Temp\ccAmOMRv.s:2692   .rodata._ZL34VanillaExtractRegular20pt7bBitmaps:00000000 _ZL34VanillaExtractRegular20pt7bBitmaps
C:\Users\pbant\AppData\Local\Temp\ccAmOMRv.s:2022   .rodata._ZL33VanillaExtractRegular20pt7bGlyphs:00000000 _ZL33VanillaExtractRegular20pt7bGlyphs
C:\Users\pbant\AppData\Local\Temp\ccAmOMRv.s:2019   .rodata._ZL33VanillaExtractRegular20pt7bGlyphs:00000000 $d
C:\Users\pbant\AppData\Local\Temp\ccAmOMRv.s:2689   .rodata._ZL34VanillaExtractRegular20pt7bBitmaps:00000000 $d
C:\Users\pbant\AppData\Local\Temp\ccAmOMRv.s:3325   .rodata._ZL7Pap_map:00000000 $d
C:\Users\pbant\AppData\Local\Temp\ccAmOMRv.s:5068   .sdram_bss:00000000 $d
C:\Users\pbant\AppData\Local\Temp\ccAmOMRv.s:5074   .sram1_bss:00000000 $d
                           .group:00000000 _ZN5daisy9DaisySeedD5Ev

UNDEFINED SYMBOLS
_ZN5daisy9DaisySeed4InitEb
_ZN5daisy9DaisySeed17SetAudioBlockSizeEj
_ZN5daisy9DaisySeed18SetAudioSampleRateENS_9SaiHandle6Config10SampleRateE
_ZN5daisy9DaisySeed10StartAudioEPFvPKPKfPPfjE
_ZN5daisy6LoggerILNS_17LoggerDestinationE1EE8StartLogEb
_ZN10cRBG_Frame8setFrameEP3RGBP9FIFO_Datatt
_ZN10cRBG_Frame16setFrameRotationE8Rotation
_ZN4cGFX15drawR8G8B8ImageEttttPKh
_ZN4cGFX13drawTransTextEPKcb
_ZN4cGFX8drawLineEtttt6cColor
_ZN4cGFX8drawRectEttss6cColor
_ZN4cGFX12drawFillRectEttss6cColor
_ZN4cGFX10drawCircleEttt6cColor
_ZN4cGFX14drawFillCircleEttt6cColor
sprintf
_ZN4cGFX8drawTextEPKcb
_ZN10cRBG_Frame10FlushFrameEv
_ZN5daisy6System5DelayEm
__aeabi_atexit
ARM GAS  C:\Users\pbant\AppData\Local\Temp\ccAmOMRv.s 			page 272


_ZN5cFontC1EPK7GFXfont
__dso_handle
